Trying to open './libc-2.15.so'..
Loading ELF information..
FileFormat: Elf, Arch: Ia32
Using the Nasm syntax..

Wait a few seconds, rp++ is looking for gadgets..
in PHDR
0 found.

in LOAD
67283 found.

A total of 67283 gadgets found.
0x00176658: aaa  ; add edi, ebp ; call dword [eax] ;  (1 found)
0x00198e6d: aaa  ; clc  ; jmp dword [eax] ;  (1 found)
0x00169f31: aaa  ; int1  ; jmp dword [edi+ecx*2] ;  (1 found)
0x00168b44: aad 0x00 ; add byte [eax+edx*8-0x12], dl ; call dword [eax+0x340000D5] ;  (1 found)
0x00168b45: aad 0x00 ; add byte [eax+edx*8-0x12], dl ; call dword [eax+0x340000D5] ;  (1 found)
0x000b9132: aad 0x00 ; add byte [eax], al ; call dword [0x00000010] ;  (1 found)
0x00168b3d: aad 0x00 ; add byte [edi+ecx*8-0x12], dh ; jmp dword [ebp+edx*8+0x00] ;  (1 found)
0x0006952f: aad 0x29 ; int 0x29 ; retn 0x0E75 ;  (1 found)
0x00019c68: aad 0x89 ; retn 0x6C89 ;  (1 found)
0x00174345: aad 0xEC ; call dword [eax] ;  (1 found)
0x0017527e: aad 0xED ; jmp dword [edx] ;  (1 found)
0x0017534a: aad 0xED ; jmp dword [edx] ;  (1 found)
0x0017537a: aad 0xED ; jmp dword [edx] ;  (1 found)
0x0017543a: aad 0xED ; jmp dword [edx] ;  (1 found)
0x0017546a: aad 0xED ; jmp dword [edx] ;  (1 found)
0x0017552a: aad 0xED ; jmp dword [edx] ;  (1 found)
0x00197b21: aad 0xF7 ; jmp dword [ebx+0x00] ;  (1 found)
0x0016624d: aad 0xFC ; jmp dword [0x65FFFCD6] ;  (1 found)
0x00166244: aad 0xFC ; jmp dword [ebp-0x1A00032B] ;  (1 found)
0x00166245: aad 0xFC ; jmp dword [ebp-0x1A00032B] ;  (1 found)
0x00166241: aad 0xFC ; jmp dword [ebp-0x2B] ;  (1 found)
0x00166249: aad 0xFC ; jmp ebp ;  (1 found)
0x00176f5c: aam 0x09 ; out dx, eax ; call esp ;  (1 found)
0x00167138: aam 0x2C ; std  ; jmp dword [0x2C1EFFFD+ebp] ;  (1 found)
0x00167230: aam 0x2D ; std  ; jmp dword [esi+ebp] ;  (1 found)
0x00168148: aam 0x58 ; in al, dx ; call dword [eax+0x5400009D] ;  (1 found)
0x00168158: aam 0x59 ; in al, dx ; call eax ;  (1 found)
0x00167734: aam 0x5C ; std  ; jmp dword [0x5D74FFFD+ebx*2] ;  (1 found)
0x00169b40: aam 0xD2 ; call dword [esi+eax*2] ;  (1 found)
0x00168c60: aam 0xE0 ; out dx, al ; jmp dword [ebx+ebx*8+0x00] ;  (1 found)
0x00168f30: aam 0xEE ; out dx, eax ; jmp dword [eax] ;  (1 found)
0x00189c21: aam 0xF4 ; call dword [edx] ;  (1 found)
0x00197a45: aam 0xF7 ; jmp dword [ebx] ;  (1 found)
0x00166271: aam 0xFC ; call dword [eax-0x3F00032C] ;  (1 found)
0x00166230: aam 0xFC ; call dword [ebp-0x3A00032C] ;  (1 found)
0x00166231: aam 0xFC ; call dword [ebp-0x3A00032C] ;  (1 found)
0x00166175: aam 0xFC ; call esp ;  (1 found)
0x0016626d: aam 0xFC ; jmp dword [eax-0x2C] ;  (1 found)
0x0016622d: aam 0xFC ; jmp dword [ebp-0x2C] ;  (1 found)
0x00166171: aam 0xFC ; jmp dword [esp+edx*8-0x2B2B0004] ;  (1 found)
0x0016616d: aam 0xFC ; push dword [esp+edx*8-0x04] ; jmp dword [esp+edx*8-0x2B2B0004] ;  (1 found)
0x00195254: aas  ; xor al, 0xF7 ; call dword [eax] ;  (1 found)
0x00166b7c: adc ah, bh ; cld  ; call dword [eax] ;  (1 found)
0x000b9053: adc al, 0x00 ; add byte [eax], al ; call dword [0x00000010] ;  (1 found)
0x00167074: adc al, 0x20 ; std  ; jmp dword [eax-0x03] ;  (1 found)
0x00126f7d: adc al, 0x24 ; call dword [eax+0x08] ;  (1 found)
0x0012686e: adc al, 0x24 ; call dword [ebp+0x000007F8] ;  (1 found)
0x00104f71: adc al, 0x24 ; call dword [ebx+0x00002EC8] ;  (1 found)
0x00019861: adc al, 0x24 ; call eax ;  (1 found)
0x00047930: adc al, 0x24 ; call eax ;  (1 found)
0x00056523: adc al, 0x24 ; call eax ;  (1 found)
0x00064f20: adc al, 0x24 ; call eax ;  (1 found)
0x00064f78: adc al, 0x24 ; call eax ;  (1 found)
0x0006623d: adc al, 0x24 ; call eax ;  (1 found)
0x0006626f: adc al, 0x24 ; call eax ;  (1 found)
0x00067c53: adc al, 0x24 ; call eax ;  (1 found)
0x000b855c: adc al, 0x24 ; call eax ;  (1 found)
0x000b916c: adc al, 0x24 ; call eax ;  (1 found)
0x000e7a52: adc al, 0x24 ; call eax ;  (1 found)
0x00114b79: adc al, 0x24 ; call eax ;  (1 found)
0x00129e39: adc al, 0x24 ; call eax ;  (1 found)
0x00107e23: adc al, 0x24 ; mov dword [esp+0x04], eax ; call dword [esp+0x3C] ;  (1 found)
0x00126f37: adc al, 0x24 ; mov dword [esp+0x04], ecx ; call dword [eax+0x04] ;  (1 found)
0x00076e23: adc al, 0x24 ; mov dword [esp+0x28], edx ; call dword [ebp+0x00] ;  (1 found)
0x00126c62: adc al, 0x24 ; mov eax, dword [eax+0x000001A0] ; call eax ;  (1 found)
0x00129d7c: adc al, 0x24 ; ret  ;  (1 found)
0x000f7a53: adc al, 0x39 ; retn 0x0A7D ;  (1 found)
0x000c6c44: adc al, 0x39 ; retn 0x850F ;  (1 found)
0x000f7a5d: adc al, 0x39 ; retn 0xF67C ;  (1 found)
0x00169f68: adc al, 0x3D ; int1  ; jmp dword [eax+0x24000151] ;  (1 found)
0x00175a25: adc al, 0x41 ; ret  ;  (1 found)
0x00176723: adc al, 0x41 ; ret  ;  (1 found)
0x00178872: adc al, 0x41 ; ret  ;  (1 found)
0x00179f48: adc al, 0x41 ; ret  ;  (1 found)
0x00184072: adc al, 0x41 ; ret  ;  (1 found)
0x00184230: adc al, 0x41 ; ret  ;  (1 found)
0x0018446d: adc al, 0x41 ; ret  ;  (1 found)
0x00185722: adc al, 0x41 ; ret  ;  (1 found)
0x00187340: adc al, 0x41 ; ret  ;  (1 found)
0x00188753: adc al, 0x41 ; ret  ;  (1 found)
0x00189136: adc al, 0x41 ; ret  ;  (1 found)
0x0018963a: adc al, 0x41 ; ret  ;  (1 found)
0x0018984d: adc al, 0x41 ; ret  ;  (1 found)
0x0018995e: adc al, 0x41 ; ret  ;  (1 found)
0x00189975: adc al, 0x41 ; ret  ;  (1 found)
0x00194a57: adc al, 0x41 ; ret  ;  (1 found)
0x00195862: adc al, 0x41 ; ret  ;  (1 found)
0x00197d4d: adc al, 0x41 ; ret  ;  (1 found)
0x00197e3c: adc al, 0x41 ; ret  ;  (1 found)
0x00199044: adc al, 0x41 ; ret  ;  (1 found)
0x0017467f: adc al, 0x43 ; ret  ;  (1 found)
0x0017473f: adc al, 0x43 ; ret  ;  (1 found)
0x00174c72: adc al, 0x43 ; ret  ;  (1 found)
0x0017735e: adc al, 0x43 ; ret  ;  (1 found)
0x00186c71: adc al, 0x43 ; ret  ;  (1 found)
0x00187b6a: adc al, 0x43 ; ret  ;  (1 found)
0x00189b73: adc al, 0x43 ; ret  ;  (1 found)
0x00194358: adc al, 0x43 ; ret  ;  (1 found)
0x00195d29: adc al, 0x43 ; ret  ;  (1 found)
0x00196456: adc al, 0x43 ; ret  ;  (1 found)
0x0019646e: adc al, 0x43 ; ret  ;  (1 found)
0x00198064: adc al, 0x43 ; ret  ;  (1 found)
0x0019807b: adc al, 0x43 ; ret  ;  (1 found)
0x0019944f: adc al, 0x43 ; ret  ;  (1 found)
0x0017416e: adc al, 0x46 ; ret  ;  (1 found)
0x000c5d6b: adc al, 0x5B ; pop esi ; ret  ;  (1 found)
0x00167830: adc al, 0x5E ; std  ; jmp dword [esi+ebx*2-0x03] ;  (1 found)
0x00168840: adc al, 0x73 ; in eax, dx ; jmp dword [ebx+eax*8+0x74040000] ;  (1 found)
0x00169758: adc al, 0x7E ; jmp dword [eax] ;  (1 found)
0x00189a32: adc al, 0x83 ; add eax, 0x02400E43 ; retn 0x0E0A ;  (1 found)
0x00018069: adc al, 0x83 ; retn 0x0108 ;  (1 found)
0x0012526b: adc al, 0x83 ; retn 0x8328 ;  (1 found)
0x0009816b: adc al, 0x83 ; retn 0x8B04 ;  (1 found)
0x00128150: adc al, 0x89 ; add al, 0x24 ; call dword [esp+0x1C] ;  (1 found)
0x0012824c: adc al, 0x89 ; add al, 0x24 ; call dword [esp+0x1C] ;  (1 found)
0x00124d33: adc al, 0x89 ; rcr byte [ebx+0x5E], 1  ; ret  ;  (1 found)
0x00019d2a: adc al, 0x89 ; retn 0x4C89 ;  (1 found)
0x00168520: adc al, 0xAF ; in al, dx ; jmp eax ;  (1 found)
0x00168e50: adc al, 0xDD ; out dx, eax ; call dword [eax-0x6AFFFF18] ;  (1 found)
0x0006896e: adc al, 0xE8 ; call dword [ebx] ;  (1 found)
0x00077b6e: adc al, 0xE8 ; jmp dword [ecx] ;  (1 found)
0x00188130: adc al, 0xFFFFFFF3 ; call dword [eax+0x00] ;  (1 found)
0x00009440: adc al, byte [eax] ; or al, 0x00 ; retn 0x0038 ;  (1 found)
0x00004230: adc al, byte [eax] ; or al, 0x00 ; retn 0x0052 ;  (1 found)
0x00095c75: adc al, dh ; ret  ;  (1 found)
0x00166854: adc bh, ah ; cld  ; jmp dword [eax+0x30FFFCE7] ;  (1 found)
0x00167328: adc bh, byte [ebx] ; std  ; jmp dword [edx+0x3B] ;  (1 found)
0x00115953: adc bh, dh ; retn 0x8080 ;  (1 found)
0x00078226: adc bl, al ; mov dword [ecx+0x0000190C], 0x00000000 ; ret  ;  (1 found)
0x00167768: adc bl, byte [ebp-0x03] ; jmp dword [edx+0x5D] ;  (1 found)
0x000e9925: adc bl, dh ; ret  ;  (1 found)
0x000e7e70: adc byte [eax+0x0000008E], bh ; call dword [0x00000010] ;  (1 found)
0x00009555: adc byte [eax], al ; add al, dl ; retn 0x0007 ;  (1 found)
0x000b9328: adc byte [eax], al ; add byte [eax], al ; ret  ;  (1 found)
0x0005452b: adc byte [eax], al ; add byte [ecx-0x7CAD8836], cl ; retn 0x830F ;  (1 found)
0x00139e54: adc byte [eax], bh ; retn 0x840F ;  (1 found)
0x00144347: adc byte [ebp-0x79F00F93], cl ; call dword [eax] ;  (1 found)
0x00098528: adc byte [ebp-0x7CCC8B0A], al ; retn 0x8310 ;  (1 found)
0x00198e55: adc byte [ebx+0x0C0E7E04], al ; ret  ;  (1 found)
0x00127953: adc byte [ebx+0x0CC48300], cl ; ret  ;  (1 found)
0x00127e73: adc byte [ebx+0x0CC48300], cl ; ret  ;  (1 found)
0x00094a26: adc byte [ebx+0x5B0C2444], cl ; pop esi ; ret  ;  (1 found)
0x00094c20: adc byte [ebx+0x5B0C2444], cl ; pop esi ; ret  ;  (1 found)
0x00026a59: adc byte [ebx+0x5E], bl ; pop edi ; ret  ;  (1 found)
0x000c952e: adc byte [ebx+0x5E], bl ; pop edi ; ret  ;  (1 found)
0x000f7327: adc byte [ebx+0x5E], bl ; pop edi ; ret  ;  (1 found)
0x00109b3c: adc byte [ebx+0x5E], bl ; pop edi ; ret  ;  (1 found)
0x000d715b: adc byte [ebx-0x00008F7D], cl ; jmp dword [ebp-0x75] ;  (1 found)
0x00078f59: adc byte [ebx-0x0001877D], cl ; jmp dword [ebp-0x7D] ;  (1 found)
0x00138e7e: adc byte [ebx-0x167CEF3E], al ; adc byte [eax], bh ; retn 0x840F ;  (1 found)
0x00139e4e: adc byte [ebx-0x167CEF3E], al ; adc byte [eax], bh ; retn 0x840F ;  (1 found)
0x000a572d: adc byte [ecx], ch ; lds ecx,  [ecx+0x5D5F5EE8] ; ret  ;  (1 found)
0x00019c66: adc byte [ecx], cl ; aad 0x89 ; retn 0x6C89 ;  (1 found)
0x00117c68: adc byte [ecx], cl ; retn 0xB60F ;  (1 found)
0x000a573a: adc byte [ecx], dh ; rcr byte [esi+0x5F], 0x0000005D ; ret  ;  (1 found)
0x00167364: adc byte [ecx], dh ; std  ; jmp dword [eax+0x30FFFD31] ;  (1 found)
0x00055568: adc byte [edi+0x012EB8DF], al ; add byte [eax], al ; call dword [0x00000010] ;  (1 found)
0x00148f62: adc byte [edi], cl ; test dword [edi-0x0A000000], esp ; retn 0x0F20 ;  (1 found)
0x00148e42: adc byte [edi], cl ; test dword [esi-0x09FFFFFD], esi ; retn 0x0F20 ;  (1 found)
0x00167474: adc byte [edx-0x03], cl ; jmp edx ;  (1 found)
0x00188f50: adc byte [edx], dh ; hlt  ; jmp dword [esi] ;  (1 found)
0x00147c5c: adc byte [esi+0x0F], ah ; xlatb  ; ret  ;  (1 found)
0x0014892a: adc byte [esi+0x0F], ah ; xlatb  ; ret  ;  (1 found)
0x00147c44: adc byte [esi+0x0F], ah ; xlatb  ; retn 0xC085 ;  (1 found)
0x00168174: adc byte [esi+0x5A640000], bl ; in al, dx ; jmp dword [esi+ebx*4] ;  (1 found)
0x0010495e: adc byte [esi+0x5F], bl ; pop ebp ; ret  ;  (1 found)
0x0016835c: adc byte [esi+0x73540000], ah ; in al, dx ; jmp dword [esi] ;  (1 found)
0x00168049: adc ch, ah ; call dword [edi+edx*4] ;  (1 found)
0x00166e75: adc ch, bh ; call dword [edx+0x22FFFD10] ;  (1 found)
0x00166e79: adc ch, bh ; jmp dword [edx] ;  (1 found)
0x00166e65: adc ch, bh ; jmp edx ;  (1 found)
0x00166928: adc ch, bl ; cld  ; jmp dword [eax+0x30FFFCDD] ;  (1 found)
0x000a8536: adc ch, byte [ecx] ; retn 0x018B ;  (1 found)
0x00166030: adc cl, 0xFFFFFFFC ; jmp dword [edx-0x3D00032F] ;  (1 found)
0x00167638: adc cl, byte [edi-0x03] ; call dword [edx+0x48FFFD4F] ;  (1 found)
0x00167630: adc cl, byte [esi-0x03] ; call dword [edx+0x12FFFD4E] ;  (1 found)
0x0009892e: adc dh, byte [ecx] ; rol byte [ebp-0x3F6BF02E], 0xFFFFFFF3 ; ret  ;  (1 found)
0x00136b59: adc dl, 0xFFFFFFB8 ; cld  ; jmp dword [esi-0x70] ;  (1 found)
0x00134259: adc dl, 0xFFFFFFE1 ; cld  ; jmp dword [esi-0x70] ;  (1 found)
0x00184655: adc dl, dh ; call dword [edi+0x00] ;  (1 found)
0x00184729: adc dl, dh ; jmp dword [eax] ;  (1 found)
0x000d4c73: adc dword [0xDA890000], eax ; sub edx, dword [ebx+eax*4-0x000CE370] ; jmp edx ;  (1 found)
0x00009540: adc dword [eax], eax ; and byte [eax], al ; ret  ;  (1 found)
0x00008850: adc dword [eax], eax ; int1  ; jmp dword [ebp+0x56] ;  (1 found)
0x00008420: adc dword [eax], eax ; int1  ; jmp edi ;  (1 found)
0x0000796a: adc dword [eax], eax ; ret  ;  (1 found)
0x00026f6c: adc dword [ebx-0x0001577F], ecx ; jmp dword [ebp-0x75] ;  (1 found)
0x00049764: adc dword [edi], ecx ; xchg eax, esp ; retn 0xC183 ;  (1 found)
0x000b9327: adc eax, 0x00000010 ; ret  ;  (1 found)
0x0000713c: adc eax, 0x22000000 ; add byte [eax+eax], cl ; ret  ;  (1 found)
0x0009533a: adc eax, 0x29C0BC0F ; retn 0x860F ;  (1 found)
0x00087978: adc eax, 0x5BFFFFFE ; ret  ;  (1 found)
0x0016955d: adc eax, 0x5C340001 ; call dword [eax+0x15] ;  (1 found)
0x0002722c: adc eax, 0x65FFFFFE ; add eax, dword [0x00000000] ; ret  ;  (1 found)
0x000e745a: adc eax, 0x81000429 ; ret  ;  (1 found)
0x00169525: adc eax, dword [ecx] ; add byte [ebp+ecx*2-0x10], ah ; jmp dword [eax] ;  (1 found)
0x0016634c: adc ebx, ecx ; cld  ; call dword [ebx-0x27] ;  (1 found)
0x00089c4f: adc ecx, dword [edx+0x05] ; lea eax, dword [edx+0x0C] ; ret  ;  (1 found)
0x0008586f: adc ecx, dword [edx+0x05] ; mov eax, edx ; ret  ;  (1 found)
0x00089c6f: adc ecx, dword [edx+0x06] ; lea eax, dword [edx+0x0D] ; ret  ;  (1 found)
0x00198645: adc edi, eax ; jmp dword [edi] ;  (1 found)
0x000e5855: adc esi, esp ; call dword [eax+0x0026B48D] ;  (1 found)
0x00169947: add ah, ah ; mov bl, 0xF0 ; jmp eax ;  (1 found)
0x0016994f: add ah, ah ; mov ch, 0xF0 ; jmp dword [eax] ;  (1 found)
0x0016923f: add ah, ah ; sbb esi, eax ; jmp dword [esi+edi*8+0x1C040000] ;  (1 found)
0x0017496b: add ah, ah ; xor ch, ch ; call dword [ebx+0x01] ;  (1 found)
0x0019914b: add ah, al ; clc  ; jmp dword [edi] ;  (1 found)
0x00174860: add ah, al ; ret  ;  (1 found)
0x00167c4f: add ah, al ; xor al, 0xEB ; jmp dword [eax+0x7E] ;  (1 found)
0x00167c2f: add ah, al ; xor ebp, ebx ; jmp esp ;  (1 found)
0x00187831: add ah, byte [ecx+0x0A] ; ret  ;  (1 found)
0x00185c23: add ah, byte [edx+0x0E] ; add al, 0xC6 ; ret  ;  (1 found)
0x00188324: add ah, byte [esi+0x0A] ; ret  ;  (1 found)
0x00198c33: add ah, ch ; xor bh, al ; jmp dword [eax+eax+0x00] ;  (1 found)
0x0016947f: add ah, dh ; aas  ; jmp esp ;  (1 found)
0x00168047: add ah, dh ; adc ch, ah ; call dword [edi+edx*4] ;  (1 found)
0x00188a6b: add ah, dh ; sbb esp, esi ; call eax ;  (1 found)
0x00169c67: add ah, dh ; sub al, 0xF1 ; jmp esp ;  (1 found)
0x00167d6f: add ah, dl ; mov ah, 0xEB ; call dword [eax+ecx*4+0x00] ;  (1 found)
0x00167d5f: add ah, dl ; mov al, 0xEB ; call eax ;  (1 found)
0x00176f5b: add ah, dl ; or edi, ebp ; call esp ;  (1 found)
0x00169b3f: add ah, dl ; sal al, cl ; call dword [esi+eax*2] ;  (1 found)
0x00079076: add al, 0x00 ; add al, ch ; retn 0xFFFC ;  (1 found)
0x0004462e: add al, 0x00 ; add byte [eax-0x0004AB43], al ; call dword [ebx+0x0F] ;  (1 found)
0x000a7431: add al, 0x00 ; add byte [eax], al ; ret  ;  (1 found)
0x0003943a: add al, 0x00 ; add byte [ebx-0x0000F77D], cl ; jmp dword [ebp-0x39] ;  (1 found)
0x00074c56: add al, 0x00 ; add byte [ebx-0x0001877D], cl ; jmp dword [ebp-0x77] ;  (1 found)
0x000e5329: add al, 0x00 ; add byte [ecx], cl ; retn 0x850F ;  (1 found)
0x000d9a6a: add al, 0x01 ; retn 0x0689 ;  (1 found)
0x00097c7c: add al, 0x01 ; retn 0xFF85 ;  (1 found)
0x00174a52: add al, 0x0A ; ret  ;  (1 found)
0x00187c3e: add al, 0x0A ; ret  ;  (1 found)
0x00188b2c: add al, 0x1B ; hlt  ; jmp dword [ebx+0x00] ;  (1 found)
0x00169248: add al, 0x1C ; call dword [edi+edi*8+0x00] ;  (1 found)
0x00064a6e: add al, 0x24 ; call dword [eax+0x10] ;  (1 found)
0x00065532: add al, 0x24 ; call dword [eax+0x10] ;  (1 found)
0x00067465: add al, 0x24 ; call dword [eax+0x10] ;  (1 found)
0x00067661: add al, 0x24 ; call dword [eax+0x10] ;  (1 found)
0x00124931: add al, 0x24 ; call dword [ebx-0x00001464] ;  (1 found)
0x00124849: add al, 0x24 ; call dword [ebx-0x0000146C] ;  (1 found)
0x00074d49: add al, 0x24 ; call dword [ecx] ;  (1 found)
0x00126829: add al, 0x24 ; call dword [edx+0x000001B4] ;  (1 found)
0x00119e28: add al, 0x24 ; call dword [edx+0x0C] ;  (1 found)
0x00114259: add al, 0x24 ; call dword [esi+0x20] ;  (1 found)
0x0011496c: add al, 0x24 ; call dword [esi+0x20] ;  (1 found)
0x00128152: add al, 0x24 ; call dword [esp+0x1C] ;  (1 found)
0x0012824e: add al, 0x24 ; call dword [esp+0x1C] ;  (1 found)
0x00115f32: add al, 0x24 ; call dword [esp+0x24] ;  (1 found)
0x00116b26: add al, 0x24 ; call dword [esp+0x24] ;  (1 found)
0x00116b4d: add al, 0x24 ; call dword [esp+0x24] ;  (1 found)
0x00127677: add al, 0x24 ; call dword [esp+0x38] ;  (1 found)
0x0012774f: add al, 0x24 ; call dword [esp+0x38] ;  (1 found)
0x00127774: add al, 0x24 ; call dword [esp+0x38] ;  (1 found)
0x000b615f: add al, 0x24 ; call dword [esp+0x3C] ;  (1 found)
0x000f4a3f: add al, 0x24 ; call dword [esp+0x3C] ;  (1 found)
0x0010696b: add al, 0x24 ; call dword [esp+0x3C] ;  (1 found)
0x0010743f: add al, 0x24 ; call dword [esp+0x3C] ;  (1 found)
0x00108d7f: add al, 0x24 ; call dword [esp+0x3C] ;  (1 found)
0x00108f5f: add al, 0x24 ; call dword [esp+0x3C] ;  (1 found)
0x00098679: add al, 0x24 ; call edi ;  (1 found)
0x00098d37: add al, 0x24 ; call edi ;  (1 found)
0x0009872c: add al, 0x24 ; call esi ;  (1 found)
0x00124a4b: add al, 0x24 ; mov eax, dword [ebx+0x00000EE0] ; call dword [eax+0x04] ;  (1 found)
0x0001956d: add al, 0x24 ; mov eax, dword [ebx-0x000000FC] ; call dword [eax+0x00000194] ;  (1 found)
0x00126d23: add al, 0x24 ; mov eax, dword [ebx-0x000000FC] ; call dword [eax+0x000001AC] ;  (1 found)
0x00169328: add al, 0x26 ; jmp dword [ebx+eax+0x01] ;  (1 found)
0x00169f30: add al, 0x37 ; int1  ; jmp dword [edi+ecx*2] ;  (1 found)
0x00169458: add al, 0x3C ; jmp dword [eax] ;  (1 found)
0x00174233: add al, 0x45 ; or esi, dword [esi+0x0A] ; ret  ;  (1 found)
0x00026e2a: add al, 0x50 ; and eax, 0x00000200 ; ret  ;  (1 found)
0x00026f3a: add al, 0x50 ; and eax, 0x00001000 ; ret  ;  (1 found)
0x0002717d: add al, 0x50 ; and eax, 0x00002000 ; ret  ;  (1 found)
0x0002713d: add al, 0x50 ; and eax, 0x00004000 ; ret  ;  (1 found)
0x00026e5a: add al, 0x50 ; and eax, 0x00008000 ; ret  ;  (1 found)
0x0002705d: add al, 0x50 ; and eax, 0x01 ; ret  ;  (1 found)
0x0002715d: add al, 0x50 ; and eax, 0x04 ; ret  ;  (1 found)
0x0002707d: add al, 0x50 ; and eax, 0x08 ; ret  ;  (1 found)
0x00087654: add al, 0x5B ; ret  ;  (1 found)
0x00087665: add al, 0x5B ; ret  ;  (1 found)
0x0014544b: add al, 0x5D ; pop ebx ; ret  ;  (1 found)
0x00135c60: add al, 0x5F ; add ebx, dword [ebx+ecx*4] ; jmp ebx ;  (1 found)
0x00089a4c: add al, 0x5F ; ret  ;  (1 found)
0x00147442: add al, 0x5F ; ret  ;  (1 found)
0x00147e62: add al, 0x5F ; ret  ;  (1 found)
0x00168278: add al, 0x68 ; in al, dx ; call dword [edx] ;  (1 found)
0x00025f7b: add al, 0x83 ; les ecx,  [eax] ; ret  ;  (1 found)
0x00067f52: add al, 0x83 ; les ecx,  [eax] ; ret  ;  (1 found)
0x000b947e: add al, 0x83 ; les ecx,  [eax] ; ret  ;  (1 found)
0x000e8230: add al, 0x83 ; les ecx,  [eax] ; ret  ;  (1 found)
0x000e9772: add al, 0x83 ; les ecx,  [eax] ; ret  ;  (1 found)
0x000e985e: add al, 0x83 ; les ecx,  [eax] ; ret  ;  (1 found)
0x00126630: add al, 0x83 ; les ecx,  [eax] ; ret  ;  (1 found)
0x00025721: add al, 0x83 ; retn 0x3910 ;  (1 found)
0x000d4851: add al, 0x83 ; retn 0x8340 ;  (1 found)
0x0011887c: add al, 0x83 ; retn 0x8901 ;  (1 found)
0x000c7362: add al, 0x85 ; ror byte [ecx-0x77F04FAB], cl ; ret  ;  (1 found)
0x000c8d78: add al, 0x85 ; ror byte [edi], 0xFFFFFF94 ; retn 0xA5E9 ;  (1 found)
0x00124847: add al, 0x89 ; add al, 0x24 ; call dword [ebx-0x0000146C] ;  (1 found)
0x00115f30: add al, 0x89 ; add al, 0x24 ; call dword [esp+0x24] ;  (1 found)
0x00116b4b: add al, 0x89 ; add al, 0x24 ; call dword [esp+0x24] ;  (1 found)
0x0011627f: add al, 0x89 ; cmp al, 0x24 ; call dword [eax+0x04] ;  (1 found)
0x00118627: add al, 0x89 ; cmp al, 0x24 ; call dword [eax+0x24] ;  (1 found)
0x00098f6b: add al, 0x89 ; cmp al, 0x24 ; call esi ;  (1 found)
0x00124a55: add al, 0x89 ; retn 0x8365 ;  (1 found)
0x00114137: add al, 0x89 ; retn 0xC031 ;  (1 found)
0x00079f48: add al, 0x89 ; retn 0xEAC1 ;  (1 found)
0x00126f3f: add al, 0x89 ; retn 0xEBEB ;  (1 found)
0x00048a68: add al, 0x89 ; retn 0xFAC1 ;  (1 found)
0x000b903b: add al, 0x89 ; sal bl, 1  ; ret  ;  (1 found)
0x00067b74: add al, 0x89 ; sub al, 0x24 ; call edi ;  (1 found)
0x00114131: add al, 0x89 ; xor al, 0x24 ; call dword [eax+0x04] ;  (1 found)
0x00114146: add al, 0x89 ; xor al, 0x24 ; call dword [eax+0x04] ;  (1 found)
0x00044772: add al, 0x89 ; xor al, 0x24 ; call dword [eax+0x1C] ;  (1 found)
0x00059263: add al, 0x89 ; xor al, 0x24 ; call dword [eax+0x1C] ;  (1 found)
0x0006526e: add al, 0x89 ; xor al, 0x24 ; call dword [eax+0x1C] ;  (1 found)
0x0006606a: add al, 0x89 ; xor al, 0x24 ; call dword [eax+0x1C] ;  (1 found)
0x00066e75: add al, 0x89 ; xor al, 0x24 ; call dword [eax+0x2C] ;  (1 found)
0x00114161: add al, 0x89 ; xor al, 0x24 ; call dword [eax] ;  (1 found)
0x00114175: add al, 0x89 ; xor al, 0x24 ; call dword [eax] ;  (1 found)
0x00048e76: add al, 0x89 ; xor al, 0x24 ; call eax ;  (1 found)
0x00026f7c: add al, 0x90 ; rep ret  ;  (1 found)
0x00168440: add al, 0x92 ; in al, dx ; jmp eax ;  (1 found)
0x00168468: add al, 0x96 ; in al, dx ; call eax ;  (1 found)
0x000e8055: add al, 0xB8 ; cmp eax, 0x65000000 ; call dword [0x00000010] ;  (1 found)
0x000c5535: add al, 0xB8 ; mov al, byte [0x65000000] ; call dword [0x00000010] ;  (1 found)
0x000c5579: add al, 0xB8 ; mov eax, dword [0x65000000] ; call dword [0x00000010] ;  (1 found)
0x0001925f: add al, 0xB8 ; retn 0x0000 ;  (1 found)
0x00174229: add al, 0xC6 ; ret  ;  (1 found)
0x00178b71: add al, 0xC6 ; ret  ;  (1 found)
0x00178d25: add al, 0xC6 ; ret  ;  (1 found)
0x00179825: add al, 0xC6 ; ret  ;  (1 found)
0x00179c75: add al, 0xC6 ; ret  ;  (1 found)
0x00179d3c: add al, 0xC6 ; ret  ;  (1 found)
0x00185835: add al, 0xC6 ; ret  ;  (1 found)
0x00185c26: add al, 0xC6 ; ret  ;  (1 found)
0x00186b51: add al, 0xC6 ; ret  ;  (1 found)
0x00187221: add al, 0xC6 ; ret  ;  (1 found)
0x00188b20: add al, 0xC6 ; ret  ;  (1 found)
0x00188d71: add al, 0xC6 ; ret  ;  (1 found)
0x0019576d: add al, 0xC6 ; ret  ;  (1 found)
0x00195964: add al, 0xC6 ; ret  ;  (1 found)
0x00195b48: add al, 0xC6 ; ret  ;  (1 found)
0x00196869: add al, 0xC6 ; ret  ;  (1 found)
0x00196a32: add al, 0xC6 ; ret  ;  (1 found)
0x00196d22: add al, 0xC6 ; ret  ;  (1 found)
0x0019703c: add al, 0xC6 ; ret  ;  (1 found)
0x0019752d: add al, 0xC6 ; ret  ;  (1 found)
0x00198171: add al, 0xC6 ; ret  ;  (1 found)
0x00198c49: add al, 0xC6 ; ret  ;  (1 found)
0x00187941: add al, 0xC7 ; ret  ;  (1 found)
0x00187965: add al, 0xC7 ; ret  ;  (1 found)
0x00168b58: add al, 0xD2 ; out dx, al ; jmp esp ;  (1 found)
0x000d904a: add al, 0xE8 ; pushad  ; ret  ;  (1 found)
0x00166e41: add al, 0xFD ; call dword [eax] ;  (1 found)
0x00166c50: add al, 0xFD ; cld  ; call dword [ebp+edi*8-0x01CB0004] ;  (1 found)
0x0019427f: add al, ah ; sbb edi, esi ; call dword [ebx+eax+0x41000000] ;  (1 found)
0x00186a3f: add al, al ; call ecx ;  (1 found)
0x0019667f: add al, al ; mov di, seg? ; jmp dword [ebx+0x00000000] ;  (1 found)
0x0018642f: add al, al ; out 0xF2, al ; jmp dword [edx+0x00] ;  (1 found)
0x00179c2f: add al, al ; out dx, eax ; jmp esi ;  (1 found)
0x00187b2f: add al, al ; xor al, 0xF3 ; call dword [esi] ;  (1 found)
0x00184727: add al, bh ; adc dl, dh ; jmp dword [eax] ;  (1 found)
0x0019824d: add al, bh ; call dword [esi+0x00] ;  (1 found)
0x00196747: add al, bl ; lea esi, edi ; call dword [ecx+0x00000000] ;  (1 found)
0x00188177: add al, bl ; sal bl, 1  ; call dword [eax+0x00] ;  (1 found)
0x00079943: add al, byte [eax] ; add byte [ebx-0x0001876D], cl ; jmp dword [ebp-0x75] ;  (1 found)
0x00079e5b: add al, byte [eax] ; add byte [ebx-0x0001876D], cl ; jmp dword [ebp-0x75] ;  (1 found)
0x000c6c4a: add al, byte [eax] ; add byte [ecx], bh ; retn 0x840F ;  (1 found)
0x0008753b: add al, byte [eax] ; add byte [edi+0x5B], bl ; ret  ;  (1 found)
0x00087569: add al, byte [eax] ; add byte [edi+0x5B], bl ; ret  ;  (1 found)
0x00138050: add al, byte [eax] ; add ebx, dword [ebx+ecx*4] ; jmp ebx ;  (1 found)
0x00138163: add al, byte [eax] ; add ebx, dword [ebx+ecx*4] ; jmp ebx ;  (1 found)
0x00138173: add al, byte [eax] ; add ebx, dword [ebx+ecx*4] ; jmp ebx ;  (1 found)
0x0013826c: add al, byte [eax] ; add ebx, dword [ebx+ecx*4] ; jmp ebx ;  (1 found)
0x00138373: add al, byte [eax] ; add ebx, dword [ebx+ecx*4] ; jmp ebx ;  (1 found)
0x0013847d: add al, byte [eax] ; add ebx, dword [ebx+ecx*4] ; jmp ebx ;  (1 found)
0x00138f72: add al, byte [eax] ; add ebx, dword [ebx+ecx*4] ; jmp ebx ;  (1 found)
0x00139143: add al, byte [eax] ; add ebx, dword [ebx+ecx*4] ; jmp ebx ;  (1 found)
0x00139153: add al, byte [eax] ; add ebx, dword [ebx+ecx*4] ; jmp ebx ;  (1 found)
0x0013924c: add al, byte [eax] ; add ebx, dword [ebx+ecx*4] ; jmp ebx ;  (1 found)
0x00139353: add al, byte [eax] ; add ebx, dword [ebx+ecx*4] ; jmp ebx ;  (1 found)
0x0013945d: add al, byte [eax] ; add ebx, dword [ebx+ecx*4] ; jmp ebx ;  (1 found)
0x00139f42: add al, byte [eax] ; add ebx, dword [ebx+ecx*4] ; jmp ebx ;  (1 found)
0x00199d3e: add al, byte [eax] ; and byte [esi-0x08], bl ; jmp dword [ebx] ;  (1 found)
0x00195a56: add al, byte [eax] ; cmp dword [edx-0x09], ecx ; call dword [eax] ;  (1 found)
0x00197442: add al, byte [eax] ; lodsb  ; ret  ;  (1 found)
0x00198a42: add al, byte [eax] ; mov word [eax+edi*8], gs ; call dword [eax+0x00] ;  (1 found)
0x0019542a: add al, byte [eax] ; mov word [edi+esi*8], seg? ; call dword [eax] ;  (1 found)
0x00195d42: add al, byte [eax] ; mov word [edi-0x09], es ; jmp dword [esi] ;  (1 found)
0x0019764e: add al, byte [eax] ; ror bl, 0xFFFFFFF7 ; jmp dword [edx+0x00000000] ;  (1 found)
0x0019595e: add al, byte [ebx+0x0E590203] ; add al, 0xC6 ; ret  ;  (1 found)
0x00045e34: add al, byte [ebx-0x0004E343] ; call dword [eax] ;  (1 found)
0x00097c76: add al, byte [ebx-0x1D3EFE3E] ; add al, 0x01 ; retn 0xFF85 ;  (1 found)
0x000a8874: add al, byte [ecx] ; retn 0x3C8D ;  (1 found)
0x00199c69: add al, byte [edi+0x0E] ; or byte [esi+ecx+0x04], al ; ret  ;  (1 found)
0x0018534b: add al, ch ; inc edx ; call dword [eax] ;  (1 found)
0x00079a77: add al, ch ; ret  ;  (1 found)
0x00079078: add al, ch ; retn 0xFFFC ;  (1 found)
0x000e5140: add al, ch ; sub eax, 0x8100044C ; ret  ;  (1 found)
0x0018537b: add al, cl ; inc edx ; call dword [eax] ;  (1 found)
0x00185c5f: add al, dl ; fdivr st2, st0 ; jmp dword [eax+eax+0x00] ;  (1 found)
0x00009557: add al, dl ; retn 0x0007 ;  (1 found)
0x000d6e43: add bh, ah ; ret  ;  (1 found)
0x000b9b72: add bh, bh ; ret  ;  (1 found)
0x00056a6f: add bh, byte [ecx] ; retn 0x1974 ;  (1 found)
0x00166e31: add bh, ch ; call eax ;  (1 found)
0x00166e35: add bh, ch ; jmp dword [eax+0x03] ;  (1 found)
0x00194c5b: add bh, dh ; sub esi, edi ; call dword [eax] ;  (1 found)
0x0009843e: add bl, al ; xor eax, eax ; ret  ;  (1 found)
0x0009843f: add bl, al ; xor eax, eax ; ret  ;  (1 found)
0x0019752a: add bl, byte [eax+0x0E] ; add al, 0xC6 ; ret  ;  (1 found)
0x00196228: add bl, byte [ecx+0x0A] ; ret  ;  (1 found)
0x00195961: add bl, byte [ecx+0x0E] ; add al, 0xC6 ; ret  ;  (1 found)
0x00135b40: add bl, byte [edi+0x03] ; sbb al, 0x8B ; jmp ebx ;  (1 found)
0x00189b6f: add bl, byte [edx+ecx+0x0E] ; adc al, 0x43 ; ret  ;  (1 found)
0x0019847d: add bl, byte [edx+ecx+0x0E] ; adc al, 0x43 ; ret  ;  (1 found)
0x00174225: add bl, byte [edx+ecx+0x0E] ; add al, 0xC6 ; ret  ;  (1 found)
0x00189c48: add bl, byte [esi+0x0A] ; ret  ;  (1 found)
0x00167860: add bl, byte [esi-0x03] ; call dword [edx+0x5E] ;  (1 found)
0x000d7062: add bl, ch ; ret  ;  (1 found)
0x00125d43: add bl, ch ; ret  ;  (1 found)
0x000a7a2e: add bl, ch ; retn 0xB48D ;  (1 found)
0x00187155: add bl, dh ; call dword [esi+0x02] ;  (1 found)
0x00115f3e: add bl, dh ; ret  ;  (1 found)
0x00115f3f: add bl, dh ; ret  ;  (1 found)
0x00184723: add byte [0x10F80001+edx*2], ah ; jmp dword [eax] ;  (1 found)
0x0000713b: add byte [0x22000000], dl ; add byte [eax+eax], cl ; ret  ;  (1 found)
0x00177f23: add byte [0x28480000+ecx*4], ah ; out dx, eax ; call edx ;  (1 found)
0x00167450: add byte [0xFD3C50FF+edi*8], bh ; jmp dword [eax-0x0F0002C4] ;  (1 found)
0x00129a67: add byte [eax+0x00000002], bh ; add esp, 0x0C ; ret  ;  (1 found)
0x000a742f: add byte [eax+0x00000004], bh ; ret  ;  (1 found)
0x000a743f: add byte [eax+0x00000005], bh ; ret  ;  (1 found)
0x000a744f: add byte [eax+0x00000006], bh ; ret  ;  (1 found)
0x000a745f: add byte [eax+0x00000007], bh ; ret  ;  (1 found)
0x00129a57: add byte [eax+0x00000008], bh ; add esp, 0x0C ; ret  ;  (1 found)
0x00149155: add byte [eax+0x00000008], bh ; pop edi ; ret  ;  (1 found)
0x000b906a: add byte [eax+0x0026748D], dl ; ret  ;  (1 found)
0x00167b7c: add byte [eax+0x00], bh ; add byte [ebx+ebx-0x15], ah ; jmp dword [eax] ;  (1 found)
0x0019877f: add byte [eax+0x19], ah ; clc  ; call edx ;  (1 found)
0x00188d2f: add byte [eax+0x21], dl ; hlt  ; jmp dword [edi+0x00000000] ;  (1 found)
0x0000583b: add byte [eax+0x22000001], bl ; add byte [eax+eax], cl ; ret  ;  (1 found)
0x00177f27: add byte [eax+0x28], cl ; out dx, eax ; call edx ;  (1 found)
0x00198b77: add byte [eax+0x2F], cl ; clc  ; call dword [eax+eax+0x00] ;  (1 found)
0x0019443f: add byte [eax+0x3800024D], dl ; and dh, bh ; call dword [eax] ;  (1 found)
0x0019524f: add byte [eax+0x3F00025B], ah ; xor al, 0xF7 ; call dword [eax] ;  (1 found)
0x0018543b: add byte [eax+0x42], cl ; call dword [eax] ;  (1 found)
0x00185437: add byte [eax+0x4800015D], cl ; inc edx ; call dword [eax] ;  (1 found)
0x00199d77: add byte [eax+0x5E], cl ; clc  ; jmp dword [ebx] ;  (1 found)
0x0017433f: add byte [eax+0x6A00004C], dl ; aad 0xEC ; call dword [eax] ;  (1 found)
0x00169f7f: add byte [eax+eax*2], dl ; int1  ; jmp dword [edx+edx*2] ;  (1 found)
0x0019824b: add byte [eax+eax-0x08], dh ; call dword [esi+0x00] ;  (1 found)
0x00009551: add byte [eax+eax], cl ; mov eax, dword [0xD0000010] ; retn 0x0007 ;  (1 found)
0x00005841: add byte [eax+eax], cl ; ret  ;  (1 found)
0x00007141: add byte [eax+eax], cl ; ret  ;  (1 found)
0x00009441: add byte [eax+eax], cl ; retn 0x0038 ;  (1 found)
0x00004231: add byte [eax+eax], cl ; retn 0x0052 ;  (1 found)
0x00168277: add byte [eax+ebp*2], al ; in al, dx ; call dword [edx] ;  (1 found)
0x0018865b: add byte [eax+ebx*8], ah ; jmp dword [esi] ;  (1 found)
0x00198753: add byte [eax+ebx-0x08], ch ; call dword [0x00000001] ;  (1 found)
0x00167b4f: add byte [eax+ebx-0x15], dl ; call dword [eax] ;  (1 found)
0x0016972f: add byte [eax+edi*2], dh ; jmp dword [eax+0x1F] ;  (1 found)
0x00168b47: add byte [eax+edx*8-0x12], dl ; call dword [eax+0x340000D5] ;  (1 found)
0x00184653: add byte [eax+edx], bl ; call dword [edi+0x00] ;  (1 found)
0x0018674b: add byte [eax+esi*2-0x0DF7FFFF], bl ; call dword [eax] ;  (1 found)
0x000e5e2c: add byte [eax-0x00000001], bh ; pop ebx ; ret  ;  (1 found)
0x0006813c: add byte [eax-0x00000001], bh ; ret  ;  (1 found)
0x000e892f: add byte [eax-0x00000001], bh ; ret  ;  (1 found)
0x000e893e: add byte [eax-0x00000001], bh ; ret  ;  (1 found)
0x000e896f: add byte [eax-0x00000001], bh ; ret  ;  (1 found)
0x000e897e: add byte [eax-0x00000001], bh ; ret  ;  (1 found)
0x0002916e: add byte [eax-0x0000A017], dl ; call dword [eax-0x6F6F6F70] ;  (1 found)
0x0004864f: add byte [eax-0x0000B443], al ; jmp dword [esi+0x0F] ;  (1 found)
0x00044630: add byte [eax-0x0004AB43], al ; call dword [ebx+0x0F] ;  (1 found)
0x00186e67: add byte [eax-0x01], ah ; call dword [eax] ;  (1 found)
0x00194c57: add byte [eax-0x08FFFDAB], ch ; sub esi, edi ; call dword [eax] ;  (1 found)
0x00007967: add byte [eax-0x08], ah ; adc dword [eax], eax ; ret  ;  (1 found)
0x000f975a: add byte [eax-0x158B7F80], 0xFFFFFF89 ; retn 0xEAC1 ;  (1 found)
0x00185347: add byte [eax-0x17FFFEA4], bl ; inc edx ; call dword [eax] ;  (1 found)
0x00189f57: add byte [eax-0x1A], ch ; hlt  ; jmp dword [esi+0x00] ;  (1 found)
0x00168e27: add byte [eax-0x25], cl ; out dx, eax ; jmp eax ;  (1 found)
0x0018856f: add byte [eax-0x29], ah ; jmp dword [ecx] ;  (1 found)
0x0014763e: add byte [eax-0x3FCEA1A5], dl ; pop edi ; ret  ;  (1 found)
0x0019503f: add byte [eax-0x43FFFDA7], dl ; xor bh, dh ; call dword [eax] ;  (1 found)
0x0019497f: add byte [eax-0x53FFFDA9], al ; and esi, edi ; jmp dword [edi+0x00000000] ;  (1 found)
0x00186a7f: add byte [eax-0x53FFFE88], al ; call dword [esi+0x02] ;  (1 found)
0x00187c7f: add byte [eax-0x73FFFE76], al ; pop ecx ; jmp dword [eax+eax] ;  (1 found)
0x0018667f: add byte [eax-0x73FFFE8C], al ; out dx, eax ; call dword [ecx+0x00000000] ;  (1 found)
0x00026e5e: add byte [eax], 0x00000000 ; ret  ;  (1 found)
0x00027121: add byte [eax], 0x00000000 ; ret  ;  (1 found)
0x00169246: add byte [eax], al ; add al, 0x1C ; call dword [edi+edi*8+0x00] ;  (1 found)
0x00079a75: add byte [eax], al ; add al, ch ; ret  ;  (1 found)
0x000d7060: add byte [eax], al ; add bl, ch ; ret  ;  (1 found)
0x00125d41: add byte [eax], al ; add bl, ch ; ret  ;  (1 found)
0x000a7a2c: add byte [eax], al ; add bl, ch ; retn 0xB48D ;  (1 found)
0x00184721: add byte [eax], al ; add byte [0x10F80001+edx*2], ah ; jmp dword [eax] ;  (1 found)
0x000a742d: add byte [eax], al ; add byte [eax+0x00000004], bh ; ret  ;  (1 found)
0x000a743d: add byte [eax], al ; add byte [eax+0x00000005], bh ; ret  ;  (1 found)
0x000a744d: add byte [eax], al ; add byte [eax+0x00000006], bh ; ret  ;  (1 found)
0x000a745d: add byte [eax], al ; add byte [eax+0x00000007], bh ; ret  ;  (1 found)
0x000b9068: add byte [eax], al ; add byte [eax+0x0026748D], dl ; ret  ;  (1 found)
0x00186749: add byte [eax], al ; add byte [eax+esi*2-0x0DF7FFFF], bl ; call dword [eax] ;  (1 found)
0x0006813a: add byte [eax], al ; add byte [eax-0x00000001], bh ; ret  ;  (1 found)
0x000e892c: add byte [eax], al ; add byte [eax-0x00000001], bh ; ret  ;  (1 found)
0x000e892d: add byte [eax], al ; add byte [eax-0x00000001], bh ; ret  ;  (1 found)
0x000e893c: add byte [eax], al ; add byte [eax-0x00000001], bh ; ret  ;  (1 found)
0x000e896c: add byte [eax], al ; add byte [eax-0x00000001], bh ; ret  ;  (1 found)
0x000e896d: add byte [eax], al ; add byte [eax-0x00000001], bh ; ret  ;  (1 found)
0x000e897c: add byte [eax], al ; add byte [eax-0x00000001], bh ; ret  ;  (1 found)
0x0002916c: add byte [eax], al ; add byte [eax-0x0000A017], dl ; call dword [eax-0x6F6F6F70] ;  (1 found)
0x00186a7d: add byte [eax], al ; add byte [eax-0x53FFFE88], al ; call dword [esi+0x02] ;  (1 found)
0x00076f59: add byte [eax], al ; add byte [eax], al ; call dword [eax] ;  (1 found)
0x00074d6c: add byte [eax], al ; add byte [eax], al ; call dword [ecx] ;  (1 found)
0x00074f45: add byte [eax], al ; add byte [eax], al ; call dword [edx] ;  (1 found)
0x00019b64: add byte [eax], al ; add byte [eax], al ; ret  ;  (1 found)
0x00027234: add byte [eax], al ; add byte [eax], al ; ret  ;  (1 found)
0x00027254: add byte [eax], al ; add byte [eax], al ; ret  ;  (1 found)
0x00027274: add byte [eax], al ; add byte [eax], al ; ret  ;  (1 found)
0x0007822e: add byte [eax], al ; add byte [eax], al ; ret  ;  (1 found)
0x00105344: add byte [eax], al ; add byte [eax], al ; ret  ;  (1 found)
0x0013837d: add byte [eax], al ; add byte [eax], bh ; retn 0x840F ;  (1 found)
0x0013935d: add byte [eax], al ; add byte [eax], bh ; retn 0x840F ;  (1 found)
0x000b9a62: add byte [eax], al ; add byte [ebp-0x2F], dh ; rep ret  ;  (1 found)
0x00087a4d: add byte [eax], al ; add byte [ebp-0x7CC78A40], al ; ret  ;  (1 found)
0x000d9346: add byte [eax], al ; add byte [ebx+0x027602FA], al ; rep ret  ;  (1 found)
0x00127945: add byte [eax], al ; add byte [ebx+0x0CC48302], cl ; ret  ;  (1 found)
0x00127e65: add byte [eax], al ; add byte [ebx+0x0CC48302], cl ; ret  ;  (1 found)
0x00055c45: add byte [eax], al ; add byte [ebx+0x5E], bl ; ret  ;  (1 found)
0x0007402b: add byte [eax], al ; add byte [ebx+0x5E], bl ; ret  ;  (1 found)
0x000b676e: add byte [eax], al ; add byte [ebx-0x0000F76D], cl ; jmp dword [ebp-0x39] ;  (1 found)
0x000b7b56: add byte [eax], al ; add byte [ebx-0x0000F76D], cl ; jmp dword [ebp-0x39] ;  (1 found)
0x000f516a: add byte [eax], al ; add byte [ebx-0x0000F76D], cl ; jmp dword [ebp-0x39] ;  (1 found)
0x000f664a: add byte [eax], al ; add byte [ebx-0x0000F76D], cl ; jmp dword [ebp-0x39] ;  (1 found)
0x000b4f2d: add byte [eax], al ; add byte [ebx-0x0000F76D], cl ; jmp dword [ebp-0x7D] ;  (1 found)
0x000f646d: add byte [eax], al ; add byte [ebx-0x0000F77D], cl ; jmp dword [ebp+0x03] ;  (1 found)
0x000b8c3d: add byte [eax], al ; add byte [ebx-0x0000F77D], cl ; jmp dword [ebp-0x39] ;  (1 found)
0x000e844d: add byte [eax], al ; add byte [ebx-0x0000F77D], cl ; jmp dword [ebp-0x39] ;  (1 found)
0x000b4455: add byte [eax], al ; add byte [ebx-0x0000F77D], cl ; jmp dword [ebp-0x75] ;  (1 found)
0x00117125: add byte [eax], al ; add byte [ebx-0x0000F77D], cl ; jmp dword [ebp-0x7D] ;  (1 found)
0x00149140: add byte [eax], al ; add byte [ebx-0x7BF0FC01], al ; retn 0x0000 ;  (1 found)
0x000e725d: add byte [eax], al ; add byte [ebx-0x7CFE1BBB], al ; retn 0x8B08 ;  (1 found)
0x000e7c30: add byte [eax], al ; add byte [ecx+0x15E82404], cl ; call dword [eax-0x6F6F6F70] ;  (1 found)
0x000f5c43: add byte [eax], al ; add byte [ecx+0x72E82434], cl ; ret  ;  (1 found)
0x0006455d: add byte [eax], al ; add byte [ecx+0x78E82434], cl ; retn 0x0000 ;  (1 found)
0x00187061: add byte [eax], al ; add byte [ecx+edi*2+0x01590001], dh ; call dword [eax] ;  (1 found)
0x00187031: add byte [eax], al ; add byte [ecx+edi*2+0x01790001], al ; call dword [eax] ;  (1 found)
0x000f5c26: add byte [eax], al ; add byte [ecx-0x7017DBCC], cl ; ret  ;  (1 found)
0x000a9a2b: add byte [eax], al ; add byte [ecx], al ; retn 0x9389 ;  (1 found)
0x00038463: add byte [eax], al ; add byte [ecx], ch ; retn 0x848D ;  (1 found)
0x0007435d: add byte [eax], al ; add byte [ecx], ch ; retn 0x933B ;  (1 found)
0x000f8e5d: add byte [eax], al ; add byte [edi+0x31], dl ; call dword [esi-0x77] ;  (1 found)
0x000a712e: add byte [eax], al ; add byte [edi+0x5E], bl ; ret  ;  (1 found)
0x000a7149: add byte [eax], al ; add byte [edi+0x5E], bl ; ret  ;  (1 found)
0x000a7164: add byte [eax], al ; add byte [edi+0x5E], bl ; ret  ;  (1 found)
0x000c5b3f: add byte [eax], al ; add byte [edi+0x5FD8F7FB], al ; ret  ;  (1 found)
0x00186e61: add byte [eax], al ; add byte [edi+esi*2-0x009FFFFF], dh ; call dword [eax] ;  (1 found)
0x00186931: add byte [eax], al ; add byte [edx+esi*2-0x0B46FFFF], al ; call dword [eax] ;  (1 found)
0x00186961: add byte [eax], al ; add byte [edx+esi*2-0x0B66FFFF], dh ; call dword [eax] ;  (1 found)
0x000b6037: add byte [eax], al ; add cl, al ; retn 0x8909 ;  (1 found)
0x000b604b: add byte [eax], al ; add cl, al ; retn 0x8909 ;  (1 found)
0x000b6071: add byte [eax], al ; add cl, al ; retn 0x8909 ;  (1 found)
0x000b7421: add byte [eax], al ; add cl, al ; retn 0x8909 ;  (1 found)
0x000b7647: add byte [eax], al ; add cl, al ; retn 0x8909 ;  (1 found)
0x000b765b: add byte [eax], al ; add cl, al ; retn 0x8909 ;  (1 found)
0x000f4b2b: add byte [eax], al ; add cl, al ; retn 0x8909 ;  (1 found)
0x000f4b51: add byte [eax], al ; add cl, al ; retn 0x8909 ;  (1 found)
0x00106327: add byte [eax], al ; add cl, al ; retn 0x8909 ;  (1 found)
0x00106348: add byte [eax], al ; add cl, al ; retn 0x8909 ;  (1 found)
0x0010752b: add byte [eax], al ; add cl, al ; retn 0x8909 ;  (1 found)
0x00107551: add byte [eax], al ; add cl, al ; retn 0x8909 ;  (1 found)
0x00108e57: add byte [eax], al ; add cl, al ; retn 0x8909 ;  (1 found)
0x00108e6b: add byte [eax], al ; add cl, al ; retn 0x8909 ;  (1 found)
0x00109037: add byte [eax], al ; add cl, al ; retn 0x8909 ;  (1 found)
0x0010904b: add byte [eax], al ; add cl, al ; retn 0x8909 ;  (1 found)
0x00109071: add byte [eax], al ; add cl, al ; retn 0x8909 ;  (1 found)
0x0010982c: add byte [eax], al ; add cl, al ; retn 0x8909 ;  (1 found)
0x000f8755: add byte [eax], al ; add cl, ch ; retn 0xFFFD ;  (1 found)
0x00148e20: add byte [eax], al ; add dh, dh ; retn 0x0F02 ;  (1 found)
0x00148f3c: add byte [eax], al ; add dh, dh ; retn 0x0F04 ;  (1 found)
0x00148e3d: add byte [eax], al ; add dh, dh ; retn 0x0F10 ;  (1 found)
0x00148f5d: add byte [eax], al ; add dh, dh ; retn 0x0F10 ;  (1 found)
0x00148f66: add byte [eax], al ; add dh, dh ; retn 0x0F20 ;  (1 found)
0x00148f6f: add byte [eax], al ; add dh, dh ; retn 0x0F40 ;  (1 found)
0x0014685b: add byte [eax], al ; add dh, dh ; retn 0x7501 ;  (1 found)
0x0014706d: add byte [eax], al ; add dh, dh ; retn 0x7510 ;  (1 found)
0x000c745d: add byte [eax], al ; add dh, dh ; retn 0xC740 ;  (1 found)
0x00064348: add byte [eax], al ; add esp, 0x0000009C ; ret  ;  (1 found)
0x000b8734: add byte [eax], al ; add esp, 0x000000AC ; ret  ;  (1 found)
0x00068f5a: add byte [eax], al ; add esp, 0x000000EC ; ret  ;  (1 found)
0x00115664: add byte [eax], al ; add esp, 0x0000048C ; ret  ;  (1 found)
0x000d953f: add byte [eax], al ; add esp, 0x0000054C ; ret  ;  (1 found)
0x000d8437: add byte [eax], al ; add esp, 0x08 ; ret  ;  (1 found)
0x00129a4f: add byte [eax], al ; add esp, 0x0C ; ret  ;  (1 found)
0x00129a5b: add byte [eax], al ; add esp, 0x0C ; ret  ;  (1 found)
0x00129a6b: add byte [eax], al ; add esp, 0x0C ; ret  ;  (1 found)
0x000b434d: add byte [eax], al ; add esp, 0x2C ; ret  ;  (1 found)
0x00104a75: add byte [eax], al ; add esp, 0x2C ; ret  ;  (1 found)
0x00168c3e: add byte [eax], al ; and eax, 0xFFFFFFEE ; call dword [eax-0x70FFFF26] ;  (1 found)
0x00024f54: add byte [eax], al ; call dword [0x00000010] ;  (1 found)
0x00025773: add byte [eax], al ; call dword [0x00000010] ;  (1 found)
0x0002586b: add byte [eax], al ; call dword [0x00000010] ;  (1 found)
0x00029470: add byte [eax], al ; call dword [0x00000010] ;  (1 found)
0x0005556e: add byte [eax], al ; call dword [0x00000010] ;  (1 found)
0x000a844d: add byte [eax], al ; call dword [0x00000010] ;  (1 found)
0x000a846d: add byte [eax], al ; call dword [0x00000010] ;  (1 found)
0x000b7c69: add byte [eax], al ; call dword [0x00000010] ;  (1 found)
0x000b7d32: add byte [eax], al ; call dword [0x00000010] ;  (1 found)
0x000b7e34: add byte [eax], al ; call dword [0x00000010] ;  (1 found)
0x000b9055: add byte [eax], al ; call dword [0x00000010] ;  (1 found)
0x000b9134: add byte [eax], al ; call dword [0x00000010] ;  (1 found)
0x000b9323: add byte [eax], al ; call dword [0x00000010] ;  (1 found)
0x000b9369: add byte [eax], al ; call dword [0x00000010] ;  (1 found)
0x000b9466: add byte [eax], al ; call dword [0x00000010] ;  (1 found)
0x000b9561: add byte [eax], al ; call dword [0x00000010] ;  (1 found)
0x000b9c64: add byte [eax], al ; call dword [0x00000010] ;  (1 found)
0x000b9e53: add byte [eax], al ; call dword [0x00000010] ;  (1 found)
0x000c5440: add byte [eax], al ; call dword [0x00000010] ;  (1 found)
0x000c5479: add byte [eax], al ; call dword [0x00000010] ;  (1 found)
0x000c5539: add byte [eax], al ; call dword [0x00000010] ;  (1 found)
0x000c557d: add byte [eax], al ; call dword [0x00000010] ;  (1 found)
0x000c5730: add byte [eax], al ; call dword [0x00000010] ;  (1 found)
0x000c584d: add byte [eax], al ; call dword [0x00000010] ;  (1 found)
0x000c592d: add byte [eax], al ; call dword [0x00000010] ;  (1 found)
0x000c5b39: add byte [eax], al ; call dword [0x00000010] ;  (1 found)
0x000e603e: add byte [eax], al ; call dword [0x00000010] ;  (1 found)
0x000e6072: add byte [eax], al ; call dword [0x00000010] ;  (1 found)
0x000e6326: add byte [eax], al ; call dword [0x00000010] ;  (1 found)
0x000e6361: add byte [eax], al ; call dword [0x00000010] ;  (1 found)
0x000e6d75: add byte [eax], al ; call dword [0x00000010] ;  (1 found)
0x000e6e35: add byte [eax], al ; call dword [0x00000010] ;  (1 found)
0x000e6e77: add byte [eax], al ; call dword [0x00000010] ;  (1 found)
0x000e7142: add byte [eax], al ; call dword [0x00000010] ;  (1 found)
0x000e7375: add byte [eax], al ; call dword [0x00000010] ;  (1 found)
0x000e7925: add byte [eax], al ; call dword [0x00000010] ;  (1 found)
0x000e7b65: add byte [eax], al ; call dword [0x00000010] ;  (1 found)
0x000e7d4d: add byte [eax], al ; call dword [0x00000010] ;  (1 found)
0x000e7e74: add byte [eax], al ; call dword [0x00000010] ;  (1 found)
0x000e8059: add byte [eax], al ; call dword [0x00000010] ;  (1 found)
0x000e8153: add byte [eax], al ; call dword [0x00000010] ;  (1 found)
0x000e8176: add byte [eax], al ; call dword [0x00000010] ;  (1 found)
0x000e842e: add byte [eax], al ; call dword [0x00000010] ;  (1 found)
0x000e8479: add byte [eax], al ; call dword [0x00000010] ;  (1 found)
0x000e9579: add byte [eax], al ; call dword [0x00000010] ;  (1 found)
0x000e975a: add byte [eax], al ; call dword [0x00000010] ;  (1 found)
0x000e9846: add byte [eax], al ; call dword [0x00000010] ;  (1 found)
0x00125a6f: add byte [eax], al ; call dword [0x00000010] ;  (1 found)
0x00124a51: add byte [eax], al ; call dword [eax+0x04] ;  (1 found)
0x00076f5b: add byte [eax], al ; call dword [eax] ;  (1 found)
0x00074d6e: add byte [eax], al ; call dword [ecx] ;  (1 found)
0x00074f47: add byte [eax], al ; call dword [edx] ;  (1 found)
0x00019530: add byte [eax], al ; call eax ;  (1 found)
0x00024037: add byte [eax], al ; call eax ;  (1 found)
0x0002417d: add byte [eax], al ; call eax ;  (1 found)
0x00024229: add byte [eax], al ; call eax ;  (1 found)
0x00026757: add byte [eax], al ; call eax ;  (1 found)
0x0002682f: add byte [eax], al ; call eax ;  (1 found)
0x0002684f: add byte [eax], al ; call eax ;  (1 found)
0x0002743c: add byte [eax], al ; call eax ;  (1 found)
0x0002747f: add byte [eax], al ; call eax ;  (1 found)
0x00027f5e: add byte [eax], al ; call eax ;  (1 found)
0x0002894f: add byte [eax], al ; call eax ;  (1 found)
0x00028978: add byte [eax], al ; call eax ;  (1 found)
0x00028d3a: add byte [eax], al ; call eax ;  (1 found)
0x00028f67: add byte [eax], al ; call eax ;  (1 found)
0x00029129: add byte [eax], al ; call eax ;  (1 found)
0x00126c68: add byte [eax], al ; call eax ;  (1 found)
0x00098420: add byte [eax], al ; cmove eax, ecx ; ret  ;  (1 found)
0x00167f5e: add byte [eax], al ; imul bl ; jmp eax ;  (1 found)
0x0016923e: add byte [eax], al ; in al, 0x1B ; jmp dword [esi+edi*8+0x1C040000] ;  (1 found)
0x000b8054: add byte [eax], al ; jmp dword [ebp+ecx*8+0x1D] ;  (1 found)
0x0014843e: add byte [eax], al ; lea eax, dword [ecx+0x02] ; ret  ;  (1 found)
0x0014844e: add byte [eax], al ; lea eax, dword [ecx+0x03] ; ret  ;  (1 found)
0x0014997f: add byte [eax], al ; lea eax, dword [ecx+0x04] ; ret  ;  (1 found)
0x0014845e: add byte [eax], al ; lea eax, dword [ecx+0x05] ; ret  ;  (1 found)
0x0014846e: add byte [eax], al ; lea eax, dword [ecx+0x06] ; ret  ;  (1 found)
0x0014847e: add byte [eax], al ; lea eax, dword [ecx+0x07] ; ret  ;  (1 found)
0x00148648: add byte [eax], al ; lea eax, dword [ecx+0x08] ; ret  ;  (1 found)
0x00148429: add byte [eax], al ; lea eax, dword [ecx+0x0C] ; ret  ;  (1 found)
0x00148672: add byte [eax], al ; lea eax, dword [ecx+0x0C] ; ret  ;  (1 found)
0x00148a26: add byte [eax], al ; lea eax, dword [edx+0x07] ; ret  ;  (1 found)
0x00148a50: add byte [eax], al ; lea eax, dword [edx+0x0B] ; ret  ;  (1 found)
0x00148b2e: add byte [eax], al ; lea eax, dword [edx+0x0E] ; ret  ;  (1 found)
0x00148a79: add byte [eax], al ; lea eax, dword [edx+0x0F] ; ret  ;  (1 found)
0x00167c4e: add byte [eax], al ; les esi,  [ebx+ebp*8] ; jmp dword [eax+0x7E] ;  (1 found)
0x00045048: add byte [eax], al ; mov dword [ebp-0x000004B8], edi ; jmp edx ;  (1 found)
0x00118f3a: add byte [eax], al ; mov dword [esp], ebp ; call dword [eax+0x10] ;  (1 found)
0x00067e3c: add byte [eax], al ; mov dword [esp], ebp ; call dword [eax+0x40] ;  (1 found)
0x0011855e: add byte [eax], al ; mov dword [esp], edi ; call dword [eax+0x18] ;  (1 found)
0x000b483e: add byte [eax], al ; mov dword [esp], edi ; call esi ;  (1 found)
0x000b4a3e: add byte [eax], al ; mov dword [esp], edi ; call esi ;  (1 found)
0x0012686b: add byte [eax], al ; mov dword [esp], edx ; call dword [ebp+0x000007F8] ;  (1 found)
0x0004792d: add byte [eax], al ; mov dword [esp], edx ; call eax ;  (1 found)
0x00056520: add byte [eax], al ; mov dword [esp], edx ; call eax ;  (1 found)
0x00064f75: add byte [eax], al ; mov dword [esp], edx ; call eax ;  (1 found)
0x0006623a: add byte [eax], al ; mov dword [esp], edx ; call eax ;  (1 found)
0x0006626c: add byte [eax], al ; mov dword [esp], edx ; call eax ;  (1 found)
0x000b8559: add byte [eax], al ; mov dword [esp], edx ; call eax ;  (1 found)
0x000b9169: add byte [eax], al ; mov dword [esp], edx ; call eax ;  (1 found)
0x000e7a4f: add byte [eax], al ; mov dword [esp], edx ; call eax ;  (1 found)
0x00129e36: add byte [eax], al ; mov dword [esp], edx ; call eax ;  (1 found)
0x0011693c: add byte [eax], al ; mov dword [esp], esi ; call dword [eax+0x10] ;  (1 found)
0x000a742e: add byte [eax], al ; mov eax, 0x00000004 ; ret  ;  (1 found)
0x000a743e: add byte [eax], al ; mov eax, 0x00000005 ; ret  ;  (1 found)
0x000a744e: add byte [eax], al ; mov eax, 0x00000006 ; ret  ;  (1 found)
0x000a745e: add byte [eax], al ; mov eax, 0x00000007 ; ret  ;  (1 found)
0x0006813b: add byte [eax], al ; mov eax, 0xFFFFFFFF ; ret  ;  (1 found)
0x000e892e: add byte [eax], al ; mov eax, 0xFFFFFFFF ; ret  ;  (1 found)
0x000e893d: add byte [eax], al ; mov eax, 0xFFFFFFFF ; ret  ;  (1 found)
0x000e896e: add byte [eax], al ; mov eax, 0xFFFFFFFF ; ret  ;  (1 found)
0x000e897d: add byte [eax], al ; mov eax, 0xFFFFFFFF ; ret  ;  (1 found)
0x00168856: add byte [eax], al ; mov eax, dword [0x10FFED74] ; retn 0x0000 ;  (1 found)
0x00148251: add byte [eax], al ; mov eax, ecx ; ret  ;  (1 found)
0x0014833c: add byte [eax], al ; mov eax, ecx ; ret  ;  (1 found)
0x00148378: add byte [eax], al ; mov eax, ecx ; ret  ;  (1 found)
0x00148525: add byte [eax], al ; mov eax, ecx ; ret  ;  (1 found)
0x00148568: add byte [eax], al ; mov eax, ecx ; ret  ;  (1 found)
0x0010507c: add byte [eax], al ; or byte [edi], 0x00000045 ; retn 0x90C3 ;  (1 found)
0x000a7e7d: add byte [eax], al ; or byte [edi], 0x0000004E ; retn 0xC483 ;  (1 found)
0x00187c7e: add byte [eax], al ; or byte [edx+0x598C0001], 0xFFFFFFF3 ; jmp dword [eax+eax] ;  (1 found)
0x00169176: add byte [eax], al ; or byte [esi], 0xFFFFFFF0 ; call dword [eax-0x06] ;  (1 found)
0x0001934c: add byte [eax], al ; pop ebx ; ret  ;  (1 found)
0x00019b3e: add byte [eax], al ; pop ebx ; ret  ;  (1 found)
0x00019b3f: add byte [eax], al ; pop ebx ; ret  ;  (1 found)
0x000b9925: add byte [eax], al ; pop ebx ; ret  ;  (1 found)
0x000b996b: add byte [eax], al ; pop ebx ; ret  ;  (1 found)
0x000b9973: add byte [eax], al ; pop ebx ; ret  ;  (1 found)
0x000b997b: add byte [eax], al ; pop ebx ; ret  ;  (1 found)
0x000e8c55: add byte [eax], al ; pop ebx ; ret  ;  (1 found)
0x00146c5a: add byte [eax], al ; pop ebx ; ret  ;  (1 found)
0x00149159: add byte [eax], al ; pop edi ; ret  ;  (1 found)
0x0016927e: add byte [eax], al ; rcr dword [esi], 1  ; jmp eax ;  (1 found)
0x00019b66: add byte [eax], al ; ret  ;  (1 found)
0x00026e2f: add byte [eax], al ; ret  ;  (1 found)
0x00026e5f: add byte [eax], al ; ret  ;  (1 found)
0x00026f3f: add byte [eax], al ; ret  ;  (1 found)
0x00027022: add byte [eax], al ; ret  ;  (1 found)
0x00027122: add byte [eax], al ; ret  ;  (1 found)
0x00027142: add byte [eax], al ; ret  ;  (1 found)
0x00027236: add byte [eax], al ; ret  ;  (1 found)
0x00027256: add byte [eax], al ; ret  ;  (1 found)
0x00027276: add byte [eax], al ; ret  ;  (1 found)
0x0006434e: add byte [eax], al ; ret  ;  (1 found)
0x00068f60: add byte [eax], al ; ret  ;  (1 found)
0x00078230: add byte [eax], al ; ret  ;  (1 found)
0x000a7423: add byte [eax], al ; ret  ;  (1 found)
0x000a7433: add byte [eax], al ; ret  ;  (1 found)
0x000a7443: add byte [eax], al ; ret  ;  (1 found)
0x000a7453: add byte [eax], al ; ret  ;  (1 found)
0x000a7463: add byte [eax], al ; ret  ;  (1 found)
0x000b873a: add byte [eax], al ; ret  ;  (1 found)
0x000b932a: add byte [eax], al ; ret  ;  (1 found)
0x000b9a3b: add byte [eax], al ; ret  ;  (1 found)
0x000b9b5a: add byte [eax], al ; ret  ;  (1 found)
0x000d9545: add byte [eax], al ; ret  ;  (1 found)
0x00105346: add byte [eax], al ; ret  ;  (1 found)
0x0011566a: add byte [eax], al ; ret  ;  (1 found)
0x00175d5d: add byte [eax], al ; ret  ;  (1 found)
0x00175d5e: add byte [eax], al ; ret  ;  (1 found)
0x0017712e: add byte [eax], al ; ret  ;  (1 found)
0x00179242: add byte [eax], al ; ret  ;  (1 found)
0x00177466: add byte [eax], al ; retn 0xEF13 ;  (1 found)
0x00177c2e: add byte [eax], al ; retn 0xEF21 ;  (1 found)
0x00105047: add byte [eax], al ; ror ax, 0x0008 ; ret  ;  (1 found)
0x00168866: add byte [eax], al ; sal dword [ebp+ebp*8-0x01], 0x70 ; retn 0x0000 ;  (1 found)
0x0016925e: add byte [eax], al ; sbb al, 0x1D ; jmp dword [edi+edi*8] ;  (1 found)
0x00167b7e: add byte [eax], al ; sbb ebp, ebx ; jmp dword [eax] ;  (1 found)
0x00169266: add byte [eax], al ; xor al, 0x1D ; call dword [eax] ;  (1 found)
0x000a722e: add byte [eax], al ; xor eax, eax ; ret  ;  (1 found)
0x000b9b3e: add byte [eax], al ; xor eax, eax ; ret  ;  (1 found)
0x000d9358: add byte [eax], al ; xor eax, eax ; ret  ;  (1 found)
0x000d936e: add byte [eax], al ; xor eax, eax ; ret  ;  (1 found)
0x0014577e: add byte [eax], al ; xor eax, eax ; ret  ;  (1 found)
0x0014873e: add byte [eax], al ; xor eax, eax ; ret  ;  (1 found)
0x00148b3e: add byte [eax], al ; xor eax, eax ; ret  ;  (1 found)
0x0014926e: add byte [eax], al ; xor eax, eax ; ret  ;  (1 found)
0x00194443: add byte [eax], bh ; and dh, bh ; call dword [eax] ;  (1 found)
0x0013837f: add byte [eax], bh ; retn 0x840F ;  (1 found)
0x0013935f: add byte [eax], bh ; retn 0x840F ;  (1 found)
0x00194b57: add byte [eax], bh ; sub bh, dh ; call esi ;  (1 found)
0x00194473: add byte [eax], bl ; and dh, bh ; call dword [eax] ;  (1 found)
0x0018674f: add byte [eax], cl ; call dword [eax] ;  (1 found)
0x0019732f: add byte [eax], dh ; add dword [edx], 0xF7BD1C00 ; call dword [ebp+0x00000000] ;  (1 found)
0x00026f3d: add byte [eax], dl ; add byte [eax], al ; ret  ;  (1 found)
0x00188f4f: add byte [eax], dl ; xor dh, ah ; jmp dword [esi] ;  (1 found)
0x00147069: add byte [ebp+0x000000BF], cl ; add dh, dh ; retn 0x7510 ;  (1 found)
0x00074c52: add byte [ebp+0x00044C8B], cl ; add byte [ebx-0x0001877D], cl ; jmp dword [ebp-0x77] ;  (1 found)
0x00169e3f: add byte [ebp+0x31], bl ; int1  ; jmp dword [edi+edi+0x316D0001] ;  (1 found)
0x00169e47: add byte [ebp+0x31], ch ; int1  ; call esp ;  (1 found)
0x0016967f: add byte [ebp+0x72], cl ; call dword [eax] ;  (1 found)
0x00038a3f: add byte [ebp+0x75168BD2], al ; sbb dh, dh ; retn 0x7501 ;  (1 found)
0x00168977: add byte [ebp+ebx*4-0x13], ah ; jmp dword [eax] ;  (1 found)
0x0019946b: add byte [ebp+ecx*2-0x08], al ; jmp dword [ebx] ;  (1 found)
0x00169527: add byte [ebp+ecx*2-0x10], ah ; jmp dword [eax] ;  (1 found)
0x00168a6f: add byte [ebp+edi-0x12], dh ; jmp dword [ecx+edx*8+0x00] ;  (1 found)
0x00174a7b: add byte [ebp+edx*2-0x13], dh ; call dword [eax] ;  (1 found)
0x000b9324: add byte [ebp-0x01], ah ; adc eax, 0x00000010 ; ret  ;  (1 found)
0x00185043: add byte [ebp-0x0E], bh ; jmp dword [esi] ;  (1 found)
0x000b904f: add byte [ebp-0x14], dh ; mov eax, 0x00000014 ; call dword [0x00000010] ;  (1 found)
0x000b9a64: add byte [ebp-0x2F], dh ; rep ret  ;  (1 found)
0x00148a7a: add byte [ebp-0x6F3CF0BE], cl ; mov eax, edx ; ret  ;  (1 found)
0x0014842a: add byte [ebp-0x6F3CF3BF], cl ; lea eax, dword [ecx+0x01] ; ret  ;  (1 found)
0x000e6d6b: add byte [ebp-0x78D48A40], al ; fistp qword [eax+0x00000091] ; call dword [0x00000010] ;  (1 found)
0x000e6e2b: add byte [ebp-0x78D48A40], al ; fistp qword [eax+0x00000092] ; call dword [0x00000010] ;  (1 found)
0x000b9557: add byte [ebp-0x78DC8A40], al ; fistp qword [eax+0x000000D2] ; call dword [0x00000010] ;  (1 found)
0x00087a4f: add byte [ebp-0x7CC78A40], al ; ret  ;  (1 found)
0x000e9a7b: add byte [ebx+0x01B018C4], al ; pop ebx ; ret  ;  (1 found)
0x000d9348: add byte [ebx+0x027602FA], al ; rep ret  ;  (1 found)
0x000b9036: add byte [ebx+0x047E00FA], al ; mov eax, edx ; rep ret  ;  (1 found)
0x00026f77: add byte [ebx+0x048B3040], cl ; nop  ; rep ret  ;  (1 found)
0x0014872f: add byte [ebx+0x0B7C0FC2], al ; lea eax, dword [ecx+0x0F] ; ret  ;  (1 found)
0x00127947: add byte [ebx+0x0CC48302], cl ; ret  ;  (1 found)
0x00127e67: add byte [ebx+0x0CC48302], cl ; ret  ;  (1 found)
0x00119e21: add byte [ebx+0x20508B02], cl ; mov dword [esp], eax ; call dword [edx+0x0C] ;  (1 found)
0x00096b34: add byte [ebx+0x29202454], cl ; retn 0xC083 ;  (1 found)
0x00026f75: add byte [ebx+0x30408B00], cl ; mov eax, dword [eax+edx*4] ; rep ret  ;  (1 found)
0x000a5650: add byte [ebx+0x391C2454], cl ; retn 0xCF74 ;  (1 found)
0x00066a7f: add byte [ebx+0x462B0846], cl ; add al, 0x89 ; retn 0xFAC1 ;  (1 found)
0x00069527: add byte [ebx+0x468B0C4E], cl ; or byte [ecx+0x29CD29D5], cl ; retn 0x0E75 ;  (1 found)
0x000f7a4d: add byte [ebx+0x518B1445], cl ; adc al, 0x39 ; retn 0x0A7D ;  (1 found)
0x00055c47: add byte [ebx+0x5E], bl ; ret  ;  (1 found)
0x0007402d: add byte [ebx+0x5E], bl ; ret  ;  (1 found)
0x00097b76: add byte [ebx+0x5F5E40C4], al ; pop ebp ; ret  ;  (1 found)
0x00097b77: add byte [ebx+0x5F5E40C4], al ; pop ebp ; ret  ;  (1 found)
0x0018655b: add byte [ebx+ebp*8], ah ; jmp dword [edi+0x03] ;  (1 found)
0x00168e2f: add byte [ebx+ebx*8-0x11], dl ; call eax ;  (1 found)
0x00167b7f: add byte [ebx+ebx-0x15], ah ; jmp dword [eax] ;  (1 found)
0x00188b2b: add byte [ebx+ebx], al ; hlt  ; jmp dword [ebx+0x00] ;  (1 found)
0x00169f4f: add byte [ebx+edi], dh ; int1  ; call eax ;  (1 found)
0x0018856b: add byte [ebx+edx*4+0x01], ch ; add byte [eax-0x29], ah ; jmp dword [ecx] ;  (1 found)
0x00198643: add byte [ebx+edx-0x08], bh ; jmp dword [edi] ;  (1 found)
0x0016835f: add byte [ebx+esi*2-0x14], dl ; jmp dword [esi] ;  (1 found)
0x00168357: add byte [ebx+esi*2], dh ; in al, dx ; call dword [eax] ;  (1 found)
0x0016883f: add byte [ebx+esi*2], dl ; in eax, dx ; jmp dword [ebx+eax*8+0x74040000] ;  (1 found)
0x000d772f: add byte [ebx-0x0000336D], cl ; dec dword [ebx+0x5B0A8902] ; ret  ;  (1 found)
0x0002726a: add byte [ebx-0x00008F7F], cl ; jmp dword [ebp+0x03] ;  (1 found)
0x0002724a: add byte [ebx-0x0000BF7F], cl ; jmp dword [ebp+0x03] ;  (1 found)
0x000e4147: add byte [ebx-0x0000F755], cl ; jmp dword [ebp-0x75] ;  (1 found)
0x000b6770: add byte [ebx-0x0000F76D], cl ; jmp dword [ebp-0x39] ;  (1 found)
0x000b7b58: add byte [ebx-0x0000F76D], cl ; jmp dword [ebp-0x39] ;  (1 found)
0x000f516c: add byte [ebx-0x0000F76D], cl ; jmp dword [ebp-0x39] ;  (1 found)
0x000f664c: add byte [ebx-0x0000F76D], cl ; jmp dword [ebp-0x39] ;  (1 found)
0x000b5676: add byte [ebx-0x0000F76D], cl ; jmp dword [ebp-0x75] ;  (1 found)
0x000b6c46: add byte [ebx-0x0000F76D], cl ; jmp dword [ebp-0x75] ;  (1 found)
0x000b7079: add byte [ebx-0x0000F76D], cl ; jmp dword [ebp-0x75] ;  (1 found)
0x000b7156: add byte [ebx-0x0000F76D], cl ; jmp dword [ebp-0x75] ;  (1 found)
0x000f477b: add byte [ebx-0x0000F76D], cl ; jmp dword [ebp-0x75] ;  (1 found)
0x000f4829: add byte [ebx-0x0000F76D], cl ; jmp dword [ebp-0x75] ;  (1 found)
0x000b4f2f: add byte [ebx-0x0000F76D], cl ; jmp dword [ebp-0x7D] ;  (1 found)
0x000b4e2c: add byte [ebx-0x0000F775], cl ; jmp dword [ebp+0x03] ;  (1 found)
0x0005525d: add byte [ebx-0x0000F775], cl ; jmp dword [ebp-0x7D] ;  (1 found)
0x000b5154: add byte [ebx-0x0000F77D], cl ; jmp dword [ebp+0x03] ;  (1 found)
0x000f646f: add byte [ebx-0x0000F77D], cl ; jmp dword [ebp+0x03] ;  (1 found)
0x00109f5d: add byte [ebx-0x0000F77D], cl ; jmp dword [ebp+0x03] ;  (1 found)
0x0003943c: add byte [ebx-0x0000F77D], cl ; jmp dword [ebp-0x39] ;  (1 found)
0x000b8c3f: add byte [ebx-0x0000F77D], cl ; jmp dword [ebp-0x39] ;  (1 found)
0x000e4676: add byte [ebx-0x0000F77D], cl ; jmp dword [ebp-0x39] ;  (1 found)
0x000e4677: add byte [ebx-0x0000F77D], cl ; jmp dword [ebp-0x39] ;  (1 found)
0x000e6967: add byte [ebx-0x0000F77D], cl ; jmp dword [ebp-0x39] ;  (1 found)
0x000e753e: add byte [ebx-0x0000F77D], cl ; jmp dword [ebp-0x39] ;  (1 found)
0x000e753f: add byte [ebx-0x0000F77D], cl ; jmp dword [ebp-0x39] ;  (1 found)
0x000e844f: add byte [ebx-0x0000F77D], cl ; jmp dword [ebp-0x39] ;  (1 found)
0x000e877e: add byte [ebx-0x0000F77D], cl ; jmp dword [ebp-0x39] ;  (1 found)
0x000e877f: add byte [ebx-0x0000F77D], cl ; jmp dword [ebp-0x39] ;  (1 found)
0x000e963e: add byte [ebx-0x0000F77D], cl ; jmp dword [ebp-0x39] ;  (1 found)
0x000e963f: add byte [ebx-0x0000F77D], cl ; jmp dword [ebp-0x39] ;  (1 found)
0x000b4457: add byte [ebx-0x0000F77D], cl ; jmp dword [ebp-0x75] ;  (1 found)
0x00117127: add byte [ebx-0x0000F77D], cl ; jmp dword [ebp-0x7D] ;  (1 found)
0x00019b5a: add byte [ebx-0x0000F77F], cl ; jmp dword [ebp+0x03] ;  (1 found)
0x000b9b5f: add byte [ebx-0x0000F77F], cl ; jmp dword [ebp-0x7D] ;  (1 found)
0x0010533a: add byte [ebx-0x0000FF7F], cl ; jmp dword [ebp+0x03] ;  (1 found)
0x000f506b: add byte [ebx-0x00012F6D], cl ; jmp dword [ebp-0x75] ;  (1 found)
0x000f654b: add byte [ebx-0x00012F6D], cl ; jmp dword [ebp-0x75] ;  (1 found)
0x000f6240: add byte [ebx-0x00012F7D], cl ; jmp dword [ebp-0x75] ;  (1 found)
0x000f6320: add byte [ebx-0x00012F7D], cl ; jmp dword [ebp-0x75] ;  (1 found)
0x0002722a: add byte [ebx-0x00012F7F], cl ; jmp dword [ebp+0x03] ;  (1 found)
0x00025d7b: add byte [ebx-0x0001577D], cl ; jmp dword [ebp-0x75] ;  (1 found)
0x00078d71: add byte [ebx-0x0001876D], cl ; jmp dword [ebp-0x75] ;  (1 found)
0x00079945: add byte [ebx-0x0001876D], cl ; jmp dword [ebp-0x75] ;  (1 found)
0x00079e5d: add byte [ebx-0x0001876D], cl ; jmp dword [ebp-0x75] ;  (1 found)
0x00077b32: add byte [ebx-0x00018775], cl ; jmp dword [ebp-0x7D] ;  (1 found)
0x00079638: add byte [ebx-0x0001877D], cl ; jmp dword [ebp-0x75] ;  (1 found)
0x00074c58: add byte [ebx-0x0001877D], cl ; jmp dword [ebp-0x77] ;  (1 found)
0x00077f3b: add byte [ebx-0x0001877D], cl ; jmp dword [ebp-0x77] ;  (1 found)
0x000e5e4f: add byte [ebx-0x08F7DBBC], cl ; retn 0xEFF0 ;  (1 found)
0x00079269: add byte [ebx-0x16A4E73C], al ; in eax, dx ; retn 0xFFFF ;  (1 found)
0x000f5d2f: add byte [ebx-0x18], dl ; cmp eax, 0x81000340 ; ret  ;  (1 found)
0x0011995f: add byte [ebx-0x18], dl ; or eax, 0x81000104 ; ret  ;  (1 found)
0x00128b4f: add byte [ebx-0x18], dl ; sbb eax, 0x81000012 ; ret  ;  (1 found)
0x00126f4f: add byte [ebx-0x18], dl ; sbb eax, 0x8100002E ; ret  ;  (1 found)
0x000e8a4f: add byte [ebx-0x18], dl ; sbb eax, 0x81000413 ; ret  ;  (1 found)
0x000b5c4f: add byte [ebx-0x18], dl ; sbb eax, 0x81000741 ; ret  ;  (1 found)
0x00099b4f: add byte [ebx-0x18], dl ; sbb eax, 0x81000902 ; ret  ;  (1 found)
0x00035b4f: add byte [ebx-0x18], dl ; sbb eax, 0x81000F42 ; ret  ;  (1 found)
0x00035a4f: add byte [ebx-0x18], dl ; sbb eax, 0x81000F43 ; ret  ;  (1 found)
0x00026c4f: add byte [ebx-0x18], dl ; sbb eax, 0x81001031 ; ret  ;  (1 found)
0x000c5c3f: add byte [ebx-0x18], dl ; sub eax, 0x81000641 ; ret  ;  (1 found)
0x00124a6f: add byte [ebx-0x2F76E73C], al ; pop ebx ; ret  ;  (1 found)
0x0001934d: add byte [ebx-0x3D], bl ; rep ret  ;  (1 found)
0x00064d7d: add byte [ebx-0x6E76A7B8], cl ; mov eax, 0x5B000000 ; ret  ;  (1 found)
0x00107d6b: add byte [ebx-0x71F0FF08], al ; ret  ;  (1 found)
0x0010813b: add byte [ebx-0x71F0FF08], al ; ret  ;  (1 found)
0x000a7b24: add byte [ebx-0x76DFDBA4], cl ; retn 0x7C8B ;  (1 found)
0x00055564: add byte [ebx-0x78EFDB84], cl ; fistp qword [eax+0x0000012E] ; call dword [0x00000010] ;  (1 found)
0x000e983c: add byte [ebx-0x78F3DB84], cl ; fistp qword [eax+0x000000C1] ; call dword [0x00000010] ;  (1 found)
0x000b945c: add byte [ebx-0x78F3DB84], cl ; fistp qword [eax+0x000000D3] ; call dword [0x00000010] ;  (1 found)
0x000e6a7f: add byte [ebx-0x78F7DBAC], cl ; sar dword [eax+0x00000060], cl ; call dword [0x00000010] ;  (1 found)
0x000e657f: add byte [ebx-0x78F7DBAC], cl ; sar dword [eax+0x000000BF], cl ; call dword [0x00000010] ;  (1 found)
0x000e956f: add byte [ebx-0x78F7DBAC], cl ; sar dword [eax+0x0000010F], cl ; call dword [0x00000010] ;  (1 found)
0x00149142: add byte [ebx-0x7BF0FC01], al ; retn 0x0000 ;  (1 found)
0x000e725f: add byte [ebx-0x7CFE1BBB], al ; retn 0x8B08 ;  (1 found)
0x0009474e: add byte [ebx], al ; or al, 0x91 ; jmp ecx ;  (1 found)
0x00094834: add byte [ebx], al ; or al, 0x91 ; jmp ecx ;  (1 found)
0x0009484d: add byte [ebx], al ; or al, 0x91 ; jmp ecx ;  (1 found)
0x00094877: add byte [ebx], al ; or al, 0x91 ; jmp ecx ;  (1 found)
0x0009492c: add byte [ebx], al ; or al, 0x99 ; jmp ecx ;  (1 found)
0x00094959: add byte [ebx], al ; or al, 0x99 ; jmp ecx ;  (1 found)
0x00094976: add byte [ebx], al ; or al, 0x99 ; jmp ecx ;  (1 found)
0x00135724: add byte [ebx], al ; sbb al, 0x8B ; jmp ebx ;  (1 found)
0x00135a25: add byte [ebx], al ; sbb al, 0x8B ; jmp ebx ;  (1 found)
0x00138051: add byte [ebx], al ; sbb al, 0x8B ; jmp ebx ;  (1 found)
0x00138164: add byte [ebx], al ; sbb al, 0x8B ; jmp ebx ;  (1 found)
0x00138174: add byte [ebx], al ; sbb al, 0x8B ; jmp ebx ;  (1 found)
0x0013826d: add byte [ebx], al ; sbb al, 0x8B ; jmp ebx ;  (1 found)
0x00138374: add byte [ebx], al ; sbb al, 0x8B ; jmp ebx ;  (1 found)
0x0013847e: add byte [ebx], al ; sbb al, 0x8B ; jmp ebx ;  (1 found)
0x00138f73: add byte [ebx], al ; sbb al, 0x8B ; jmp ebx ;  (1 found)
0x00139144: add byte [ebx], al ; sbb al, 0x8B ; jmp ebx ;  (1 found)
0x00139154: add byte [ebx], al ; sbb al, 0x8B ; jmp ebx ;  (1 found)
0x0013924d: add byte [ebx], al ; sbb al, 0x8B ; jmp ebx ;  (1 found)
0x00139354: add byte [ebx], al ; sbb al, 0x8B ; jmp ebx ;  (1 found)
0x0013945e: add byte [ebx], al ; sbb al, 0x8B ; jmp ebx ;  (1 found)
0x00139f43: add byte [ebx], al ; sbb al, 0x8B ; jmp ebx ;  (1 found)
0x0013576e: add byte [ebx], al ; sbb al, 0xBB ; jmp ebx ;  (1 found)
0x0011967f: add byte [ebx], bh ; lodsb  ; ret  ;  (1 found)
0x00167358: add byte [ebx], bh ; std  ; call dword [eax+0x3B] ;  (1 found)
0x00186373: add byte [ebx], bl ; call dword [esi+0x00] ;  (1 found)
0x00105078: add byte [ecx+0x000000F9], al ; or byte [edi], 0x00000045 ; retn 0x90C3 ;  (1 found)
0x00019347: add byte [ecx+0x00050491], cl ; add byte [ebx-0x3D], bl ; rep ret  ;  (1 found)
0x00187037: add byte [ecx+0x01], bh ; call dword [eax] ;  (1 found)
0x00187067: add byte [ecx+0x01], bl ; call dword [eax] ;  (1 found)
0x0008766f: add byte [ecx+0x03518911], cl ; pop ebx ; ret  ;  (1 found)
0x0008764f: add byte [ecx+0x04518811], cl ; pop ebx ; ret  ;  (1 found)
0x00105334: add byte [ecx+0x09DCBFC1], al ; add byte [ebx-0x0000FF7F], cl ; jmp dword [ebp+0x03] ;  (1 found)
0x0010512f: add byte [ecx+0x09DEC4C3], al ; add byte [ecx-0x76D7DB8C], cl ; retn 0xEAC1 ;  (1 found)
0x0009903e: add byte [ecx+0x09E82404], cl ; fdiv st0, st0 ; call dword [eax-0x6BDB6B75] ;  (1 found)
0x0012623d: add byte [ecx+0x0AE82404], cl ; or dh, al ; call dword [eax-0x6F6F6F70] ;  (1 found)
0x000e5e49: add byte [ecx+0x0BD1AAC3], al ; add byte [ebx-0x08F7DBBC], cl ; retn 0xEFF0 ;  (1 found)
0x0018575c: add byte [ecx+0x0E], al ; or byte [ebx+0x040E5902], al ; ret  ;  (1 found)
0x00188238: add byte [ecx+0x0E], al ; or byte [ebx+0x040E5902], al ; ret  ;  (1 found)
0x00198224: add byte [ecx+0x0E], al ; or byte [ebx+0x040E6F02], al ; ret  ;  (1 found)
0x00184d70: add byte [ecx+0x0E], bl ; or byte [ebx+0x040E4902], al ; ret  ;  (1 found)
0x000a5d5c: add byte [ecx+0x0FC085FE], cl ; xchg eax, ebp ; retn 0xD589 ;  (1 found)
0x00168857: add byte [ecx+0x10FFED74], ah ; retn 0x0000 ;  (1 found)
0x0000943b: add byte [ecx+0x12000000], bl ; add byte [eax+eax], cl ; retn 0x0038 ;  (1 found)
0x000e7c32: add byte [ecx+0x15E82404], cl ; call dword [eax-0x6F6F6F70] ;  (1 found)
0x00027264: add byte [ecx+0x17BD8FC1], al ; add byte [ebx-0x00008F7F], cl ; jmp dword [ebp+0x03] ;  (1 found)
0x00027244: add byte [ecx+0x17BDAFC1], al ; add byte [ebx-0x0000BF7F], cl ; jmp dword [ebp+0x03] ;  (1 found)
0x00027224: add byte [ecx+0x17BDCFC1], al ; add byte [ebx-0x00012F7F], cl ; jmp dword [ebp+0x03] ;  (1 found)
0x00025d75: add byte [ecx+0x17D27EC3], al ; add byte [ebx-0x0001577D], cl ; jmp dword [ebp-0x75] ;  (1 found)
0x00019b54: add byte [ecx+0x18949FC1], al ; add byte [ebx-0x0000F77F], cl ; jmp dword [ebp+0x03] ;  (1 found)
0x00169d27: add byte [ecx+0x2F], ch ; int1  ; call dword [ecx+edi] ;  (1 found)
0x0016885f: add byte [ecx+0x40FFED74], dh ; retn 0x0000 ;  (1 found)
0x00119f24: add byte [ecx+0x4489243C], cl ; and al, 0x04 ; call dword [esp+0x00000090] ;  (1 found)
0x000c804c: add byte [ecx+0x4C892434], cl ; and al, 0x08 ; call dword [ebp-0x78] ;  (1 found)
0x000c8443: add byte [ecx+0x4C892434], cl ; and al, 0x08 ; call dword [ebp-0x78] ;  (1 found)
0x0008765f: add byte [ecx+0x51896611], cl ; add al, 0x5B ; ret  ;  (1 found)
0x000e8b37: add byte [ecx+0x5D5F5EF8], cl ; ret  ;  (1 found)
0x00099375: add byte [ecx+0x5F5E5BE8], cl ; pop ebp ; ret  ;  (1 found)
0x0012986b: add byte [ecx+0x5F5E5BE8], cl ; pop ebp ; ret  ;  (1 found)
0x00076133: add byte [ecx+0x5F5E5BF0], cl ; pop ebp ; ret  ;  (1 found)
0x000a825d: add byte [ecx+0x5F5E5BF0], cl ; pop ebp ; ret  ;  (1 found)
0x000d435b: add byte [ecx+0x5F5E5BF0], cl ; pop ebp ; ret  ;  (1 found)
0x00117426: add byte [ecx+0x5F5E5BF0], cl ; pop ebp ; ret  ;  (1 found)
0x00125455: add byte [ecx+0x5F5E5BF0], cl ; pop ebp ; ret  ;  (1 found)
0x0002424d: add byte [ecx+0x5F5E5BF8], cl ; pop ebp ; ret  ;  (1 found)
0x00047939: add byte [ecx+0x5F5E5BF8], cl ; pop ebp ; ret  ;  (1 found)
0x000b806c: add byte [ecx+0x5F5E5BF8], cl ; pop ebp ; ret  ;  (1 found)
0x000f5c45: add byte [ecx+0x72E82434], cl ; ret  ;  (1 found)
0x0006455f: add byte [ecx+0x78E82434], cl ; retn 0x0000 ;  (1 found)
0x00168a37: add byte [ecx+eax], dh ; out dx, al ; jmp dword [edi+ecx*8+0x00] ;  (1 found)
0x0016814f: add byte [ecx+ebx*2-0x14], dl ; jmp dword [ebp+ebx*4+0x59D40000] ;  (1 found)
0x00185b63: add byte [ecx+ebx*8-0x0E], ch ; jmp dword [ecx+eax+0x00] ;  (1 found)
0x00168b7f: add byte [ecx+ebx*8], al ; out dx, al ; call eax ;  (1 found)
0x00187063: add byte [ecx+edi*2+0x01590001], dh ; call dword [eax] ;  (1 found)
0x00187033: add byte [ecx+edi*2+0x01790001], al ; call dword [eax] ;  (1 found)
0x000e584f: add byte [ecx-0x0717DBFC], cl ; adc esi, esp ; call dword [eax+0x0026B48D] ;  (1 found)
0x000f7b7f: add byte [ecx-0x142ED63F], cl ; enter 0x9066, 0x39 ; retn 0x850F ;  (1 found)
0x000d9046: add byte [ecx-0x17FBDBBC], cl ; pushad  ; ret  ;  (1 found)
0x00097565: add byte [ecx-0x1D17DBFC], cl ; idiv al ; jmp dword [esi-0x70] ;  (1 found)
0x000e6069: add byte [ecx-0x2078DBFC], cl ; mov eax, 0x00000036 ; call dword [0x00000010] ;  (1 found)
0x00009553: add byte [ecx-0x2FFFFFF0], ah ; retn 0x0007 ;  (1 found)
0x0001925b: add byte [ecx-0x47FBDBBC], cl ; retn 0x0000 ;  (1 found)
0x000b9d67: add byte [ecx-0x4C7BD428], cl ; sub byte [ebp-0x0F], 0xFFFFFFFF ; jmp eax ;  (1 found)
0x00168554: add byte [ecx-0x507C0000], dh ; in al, dx ; jmp dword [eax] ;  (1 found)
0x00167968: add byte [ecx-0x6E5F0004], dl ; cld  ; call dword [eax-0x6E] ;  (1 found)
0x000f5c28: add byte [ecx-0x7017DBCC], cl ; ret  ;  (1 found)
0x000c7733: add byte [ecx-0x74725BB3], cl ; movsb  ; retn 0xFFFB ;  (1 found)
0x00105135: add byte [ecx-0x76D7DB8C], cl ; retn 0xEAC1 ;  (1 found)
0x00067c4d: add byte [ecx-0x76F7DBB4], cl ; adc al, 0x24 ; call eax ;  (1 found)
0x00099837: add byte [ecx-0x76F7DBBC], cl ; cmp al, 0x24 ; call esi ;  (1 found)
0x00115f2c: add byte [ecx-0x76FBDBAC], cl ; add al, 0x24 ; call dword [esp+0x24] ;  (1 found)
0x0011627b: add byte [ecx-0x76FBDBAC], cl ; cmp al, 0x24 ; call dword [eax+0x04] ;  (1 found)
0x00066066: add byte [ecx-0x76FBDBAC], cl ; xor al, 0x24 ; call dword [eax+0x1C] ;  (1 found)
0x00098f67: add byte [ecx-0x76FBDBBC], cl ; cmp al, 0x24 ; call esi ;  (1 found)
0x0005452d: add byte [ecx-0x7CAD8836], cl ; retn 0x830F ;  (1 found)
0x0012817f: add byte [ecx-0x7CF76AB4], cl ; rol byte [ecx], 0xFFFFFF83 ; retn 0x3B01 ;  (1 found)
0x00187469: add byte [ecx], 0x00000000 ; test byte [ecx], cl ; call edi ;  (1 found)
0x00168e47: add byte [ecx], al ; fucomp st7 ; jmp dword [eax+0x140000E7] ;  (1 found)
0x000a9a2d: add byte [ecx], al ; retn 0x9389 ;  (1 found)
0x00056d49: add byte [ecx], al ; test dword [eax-0x16000011], esi ; retn 0xFFFC ;  (1 found)
0x000c6c4c: add byte [ecx], bh ; retn 0x840F ;  (1 found)
0x00078075: add byte [ecx], bh ; retn 0x850F ;  (1 found)
0x00119447: add byte [ecx], bh ; xchg eax, esp ; ret  ;  (1 found)
0x00038344: add byte [ecx], ch ; mov dword [ebp-0x5A71F001], 0x89FFFFFE ; retn 0x18E9 ;  (1 found)
0x00038465: add byte [ecx], ch ; retn 0x848D ;  (1 found)
0x0007435f: add byte [ecx], ch ; retn 0x933B ;  (1 found)
0x0011452f: add byte [ecx], ch ; retn 0xEA83 ;  (1 found)
0x000a9829: add byte [ecx], cl ; retn 0x840F ;  (1 found)
0x000a9f79: add byte [ecx], cl ; retn 0x850F ;  (1 found)
0x000e532b: add byte [ecx], cl ; retn 0x850F ;  (1 found)
0x000e9636: add byte [ecx], dh ; shr bl, cl ; retn 0x748D ;  (1 found)
0x000e9637: add byte [ecx], dh ; shr bl, cl ; retn 0x748D ;  (1 found)
0x0000884f: add byte [ecx], dl ; add cl, dh ; jmp dword [ebp+0x56] ;  (1 found)
0x0000837f: add byte [ecx], dl ; add cl, dh ; jmp dword [edx] ;  (1 found)
0x000e6320: add byte [edi+0x0036B8DF], al ; add byte [eax], al ; call dword [0x00000010] ;  (1 found)
0x00176627: add byte [edi+0x01], dl ; out dx, eax ; call dword [eax] ;  (1 found)
0x000a7224: add byte [edi+0x02], bh ; neg eax ; ret  ;  (1 found)
0x0014576c: add byte [edi+0x02], dh ; neg eax ; ret  ;  (1 found)
0x00149825: add byte [edi+0x08], bh ; neg eax ; ret  ;  (1 found)
0x000f8e5f: add byte [edi+0x31], dl ; call dword [esi-0x77] ;  (1 found)
0x00087131: add byte [edi+0x5B], bl ; ret  ;  (1 found)
0x00087175: add byte [edi+0x5B], bl ; ret  ;  (1 found)
0x00087451: add byte [edi+0x5B], bl ; ret  ;  (1 found)
0x00087473: add byte [edi+0x5B], bl ; ret  ;  (1 found)
0x0008753d: add byte [edi+0x5B], bl ; ret  ;  (1 found)
0x0008756b: add byte [edi+0x5B], bl ; ret  ;  (1 found)
0x0014973f: add byte [edi+0x5E], bl ; pop ebx ; ret  ;  (1 found)
0x000a7130: add byte [edi+0x5E], bl ; ret  ;  (1 found)
0x000a714b: add byte [edi+0x5E], bl ; ret  ;  (1 found)
0x000a7166: add byte [edi+0x5E], bl ; ret  ;  (1 found)
0x000c5b41: add byte [edi+0x5FD8F7FB], al ; ret  ;  (1 found)
0x00176653: add byte [edi+ebp*2+0x01370000], ah ; out dx, eax ; call dword [eax] ;  (1 found)
0x00169667: add byte [edi+ebp*2-0x10], al ; call dword [edx+ebx+0x71340001] ;  (1 found)
0x00168547: add byte [edi+ebp*4-0x14], ah ; call eax ;  (1 found)
0x0016853f: add byte [edi+ebp*4-0x14], dl ; jmp dword [eax+0x640000B0] ;  (1 found)
0x00168527: add byte [edi+ebp*4], ah ; in al, dx ; call dword [eax] ;  (1 found)
0x00168b3f: add byte [edi+ecx*8-0x12], dh ; jmp dword [ebp+edx*8+0x00] ;  (1 found)
0x0016975f: add byte [edi+edi*2-0x10], al ; call dword [eax+0x20] ;  (1 found)
0x00186e63: add byte [edi+esi*2-0x009FFFFF], dh ; call dword [eax] ;  (1 found)
0x00169977: add byte [edi+esi*4-0x10], ah ; push dword [esi+ebp-0x485BFFFF] ; call esp ;  (1 found)
0x00174f53: add byte [edi+esi*8-0x13], bl ; jmp dword [ebx] ;  (1 found)
0x00198e6b: add byte [edi+esi-0x08], dl ; jmp dword [eax] ;  (1 found)
0x00169f2f: add byte [edi+esi], al ; int1  ; jmp dword [edi+ecx*2] ;  (1 found)
0x00195253: add byte [edi], bh ; xor al, 0xF7 ; call dword [eax] ;  (1 found)
0x0004507f: add byte [edi], cl ; inc ebp ; retn 0x8588 ;  (1 found)
0x00059877: add byte [edi], cl ; inc ebp ; retn 0x8589 ;  (1 found)
0x00098961: add byte [edi], cl ; inc esp ; retn 0x4489 ;  (1 found)
0x000f9769: add byte [edi], cl ; inc esp ; retn 0x568D ;  (1 found)
0x00124245: add byte [edi], cl ; inc esp ; retn 0x8965 ;  (1 found)
0x00095124: add byte [edi], cl ; mov ebp, 0x5FF801C0 ; ret  ;  (1 found)
0x0009556f: add byte [edi], cl ; mov esp, 0x5FF801C0 ; ret  ;  (1 found)
0x000d4867: add byte [edi], cl ; xchg eax, esp ; retn 0x003D ;  (1 found)
0x00054e40: add byte [edi], cl ; xchg eax, esp ; retn 0xD089 ;  (1 found)
0x00176657: add byte [edi], dh ; add edi, ebp ; call dword [eax] ;  (1 found)
0x0016914f: add byte [edx+0x0D], dl ; jmp dword [ecx+edi*8+0x00] ;  (1 found)
0x0016962f: add byte [edx+0x6C], bh ; jmp dword [eax] ;  (1 found)
0x0017892b: add byte [edx+ebp-0x11], al ; jmp dword [ebx] ;  (1 found)
0x00168177: add byte [edx+ebx*2-0x14], ah ; jmp dword [esi+ebx*4] ;  (1 found)
0x0016816f: add byte [edx+ebx*2-0x14], al ; call dword [eax] ;  (1 found)
0x00184b2b: add byte [edx+ebx], ah ; jmp ebx ;  (1 found)
0x00178143: add byte [edx+ecx*4+0x26EE0000], dl ; sti  ; call dword [eax] ;  (1 found)
0x0019895b: add byte [edx+edx*4+0x32990002], ch ; clc  ; call dword [eax] ;  (1 found)
0x0016843f: add byte [edx+edx*4], al ; in al, dx ; jmp eax ;  (1 found)
0x00168b57: add byte [edx+edx*8], al ; out dx, al ; jmp esp ;  (1 found)
0x00186933: add byte [edx+esi*2-0x0B46FFFF], al ; call dword [eax] ;  (1 found)
0x00186963: add byte [edx+esi*2-0x0B66FFFF], dh ; call dword [eax] ;  (1 found)
0x00176123: add byte [edx+esi*8], ch ; out dx, al ; jmp dword [ecx+eax] ;  (1 found)
0x0019535b: add byte [edx+esi-0x09], al ; call ebx ;  (1 found)
0x00187a43: add byte [edx-0x0D], bl ; jmp dword [eax+0x03] ;  (1 found)
0x00174343: add byte [edx-0x2B], ch ; in al, dx ; call dword [eax] ;  (1 found)
0x00197441: add byte [edx], 0x00000000 ; lodsb  ; ret  ;  (1 found)
0x0000583f: add byte [edx], ah ; add byte [eax+eax], cl ; ret  ;  (1 found)
0x0000713f: add byte [edx], ah ; add byte [eax+eax], cl ; ret  ;  (1 found)
0x00026e2d: add byte [edx], al ; add byte [eax], al ; ret  ;  (1 found)
0x00027020: add byte [edx], al ; add byte [eax], al ; ret  ;  (1 found)
0x00169c6f: add byte [edx], bl ; int1  ; jmp dword [esp+esi+0x01] ;  (1 found)
0x00169c77: add byte [edx], ch ; int1  ; call dword [esp+esi+0x2E360001] ;  (1 found)
0x00009f7f: add byte [edx], dl ; add byte [eax+eax], cl ; retn 0x0011 ;  (1 found)
0x0000943f: add byte [edx], dl ; add byte [eax+eax], cl ; retn 0x0038 ;  (1 found)
0x0000422f: add byte [edx], dl ; add byte [eax+eax], cl ; retn 0x0052 ;  (1 found)
0x000b9039: add byte [esi+0x04], bh ; mov eax, edx ; rep ret  ;  (1 found)
0x00169157: add byte [esi+0x0D], bl ; call dword [ecx+edi*8+0x0D670000] ;  (1 found)
0x0009575a: add byte [esi+0x0F], ah ; xlatb  ; ret  ;  (1 found)
0x00097f2d: add byte [esi+0x5F], bl ; pop ebp ; ret  ;  (1 found)
0x00114338: add byte [esi+0x5F], bl ; pop ebp ; ret  ;  (1 found)
0x00114a67: add byte [esi+0x5F], bl ; pop ebp ; ret  ;  (1 found)
0x00168837: add byte [esi+ebp*2-0x13], dh ; jmp dword [eax-0x3D] ;  (1 found)
0x0018853b: add byte [esi+ecx*4+0x1A850001], cl ; hlt  ; call dword [eax] ;  (1 found)
0x0016916f: add byte [esi+ecx-0x10], dh ; jmp dword [eax] ;  (1 found)
0x00169757: add byte [esi+edi*2], dl ; jmp dword [eax] ;  (1 found)
0x0018806b: add byte [esi+edi*4-0x0D], dh ; jmp dword [eax] ;  (1 found)
0x0016867f: add byte [esi+edi*4], dl ; in al, dx ; jmp dword [eax+edi*4] ;  (1 found)
0x0016905f: add byte [esi+edi*8-0x11], al ; jmp dword [eax-0x0C] ;  (1 found)
0x00168467: add byte [esi+edx*4], al ; in al, dx ; call eax ;  (1 found)
0x00167f5f: add byte [esi+esi*8-0x15], ah ; jmp eax ;  (1 found)
0x00187c23: add byte [esi+esi], cl ; call dword [ecx] ;  (1 found)
0x0019606b: add byte [esi-0x09], al ; jmp dword [eax] ;  (1 found)
0x00169a6f: add byte [esi-0x45], bl ; call dword [eax+0x6A000127] ;  (1 found)
0x00169a67: add byte [esi-0x45], cl ; jmp dword [eax+0x27] ;  (1 found)
0x00149a77: add byte [esi-0x77], dl ; retn 0xFE89 ;  (1 found)
0x00168257: add byte [esi], ah ; in al, dx ; call dword [eax-0x2BFFFF5F] ;  (1 found)
0x00169327: add byte [esi], al ; jmp dword [ebx+eax+0x01] ;  (1 found)
0x00169c7f: add byte [esi], dh ; int1  ; jmp dword [0x2E420001+esi] ;  (1 found)
0x00199323: add byte [esp+eax*2-0x08], ch ; jmp dword [eax] ;  (1 found)
0x0019933b: add byte [esp+eax*2-0x08], dh ; jmp dword [edi] ;  (1 found)
0x00169c57: add byte [esp+ebp-0x0F], al ; jmp dword [ebp+ecx*2+0x2C540001] ;  (1 found)
0x0018526b: add byte [esp+ebp], ah ; jmp dword [ebp+0x05] ;  (1 found)
0x0016955f: add byte [esp+ebx*2], dh ; call dword [eax+0x15] ;  (1 found)
0x00169247: add byte [esp+ebx], al ; call dword [edi+edi*8+0x00] ;  (1 found)
0x00169457: add byte [esp+edi], al ; jmp dword [eax] ;  (1 found)
0x00125269: add byte [esp+edx-0x7D], dh ; retn 0x8328 ;  (1 found)
0x0016836f: add byte [esp+esi*2-0x14], ah ; jmp dword [eax-0x5A] ;  (1 found)
0x00117648: add ch, al ; and eax, 0x81000127 ; ret  ;  (1 found)
0x00166e25: add ch, bh ; jmp dword [eax] ;  (1 found)
0x00197d49: add ch, byte [ebp+0x41140E0A] ; ret  ;  (1 found)
0x0018793d: add ch, byte [edx+ecx+0x0E] ; add al, 0xC7 ; ret  ;  (1 found)
0x00187961: add ch, byte [edx+ecx+0x0E] ; add al, 0xC7 ; ret  ;  (1 found)
0x00169e7f: add ch, cl ; xor ecx, esi ; jmp dword [ecx+eax*2] ;  (1 found)
0x00166944: add cl, ah ; cld  ; call dword [eax+0x20FFFCE1] ;  (1 found)
0x000b6039: add cl, al ; retn 0x8909 ;  (1 found)
0x000b604d: add cl, al ; retn 0x8909 ;  (1 found)
0x000b6073: add cl, al ; retn 0x8909 ;  (1 found)
0x000b7423: add cl, al ; retn 0x8909 ;  (1 found)
0x000b7649: add cl, al ; retn 0x8909 ;  (1 found)
0x000b765d: add cl, al ; retn 0x8909 ;  (1 found)
0x000f4b2d: add cl, al ; retn 0x8909 ;  (1 found)
0x000f4b53: add cl, al ; retn 0x8909 ;  (1 found)
0x00106329: add cl, al ; retn 0x8909 ;  (1 found)
0x0010634a: add cl, al ; retn 0x8909 ;  (1 found)
0x0010752d: add cl, al ; retn 0x8909 ;  (1 found)
0x00107553: add cl, al ; retn 0x8909 ;  (1 found)
0x00108e59: add cl, al ; retn 0x8909 ;  (1 found)
0x00108e6d: add cl, al ; retn 0x8909 ;  (1 found)
0x00109039: add cl, al ; retn 0x8909 ;  (1 found)
0x0010904d: add cl, al ; retn 0x8909 ;  (1 found)
0x00109073: add cl, al ; retn 0x8909 ;  (1 found)
0x0010982e: add cl, al ; retn 0x8909 ;  (1 found)
0x00166a34: add cl, bh ; cld  ; call edx ;  (1 found)
0x00085668: add cl, byte [eax-0x0776FDBE] ; pop edi ; ret  ;  (1 found)
0x00089b6b: add cl, byte [ebp-0x743CFDBE] ; add dword [ecx+0x03428D02], ecx ; ret  ;  (1 found)
0x0008784a: add cl, byte [ebp-0x7AF0FDB6] ; cmp eax, 0x5BFFFFFF ; ret  ;  (1 found)
0x00178d22: add cl, byte [ecx+0x0E] ; add al, 0xC6 ; ret  ;  (1 found)
0x00088363: add cl, byte [ecx-0x2F76F7BE] ; pop ebx ; ret  ;  (1 found)
0x0008584a: add cl, byte [ecx-0x2F76F7BE] ; ret  ;  (1 found)
0x0008582a: add cl, byte [ecx-0x2F76F8BE] ; ret  ;  (1 found)
0x00056a5a: add cl, byte [ecx-0x76F7DBAC] ; xor al, 0x24 ; call dword [eax+0x1C] ;  (1 found)
0x00185664: add cl, byte [edi+0x0A] ; ret  ;  (1 found)
0x0008784d: add cl, byte [edi] ; test dword [0x5BFFFFFF], edi ; ret  ;  (1 found)
0x00148f38: add cl, byte [edi] ; test dword [ecx-0x0A000000], esi ; retn 0x0F04 ;  (1 found)
0x0014863a: add cl, byte [edi] ; test dword [edi-0x7D000000], ebx ; retn 0x0F08 ;  (1 found)
0x00179f44: add cl, byte [edx+ecx+0x0E] ; adc al, 0x41 ; ret  ;  (1 found)
0x00167460: add cl, byte [edx-0x03] ; jmp dword [edx+0x32FFFD4A] ;  (1 found)
0x00187f72: add cl, byte [edx] ; ret  ;  (1 found)
0x00195d25: add cl, byte [esi+0x43140E0A] ; ret  ;  (1 found)
0x000f8757: add cl, ch ; retn 0xFFFD ;  (1 found)
0x00008851: add cl, dh ; jmp dword [ebp+0x56] ;  (1 found)
0x00008421: add cl, dh ; jmp edi ;  (1 found)
0x0016927f: add cl, dl ; push ds ; jmp eax ;  (1 found)
0x00145446: add dh, bh ; fadd dword [ebx+0x5B5D04C4] ; ret  ;  (1 found)
0x0013807a: add dh, bh ; retn 0x0002 ;  (1 found)
0x000a845d: add dh, bl ; ret  ;  (1 found)
0x000d934d: add dh, bl ; ret  ;  (1 found)
0x00195b45: add dh, byte [eax+0x0E] ; add al, 0xC6 ; ret  ;  (1 found)
0x00095c6c: add dh, byte [eax] ; ret  ;  (1 found)
0x00195e30: add dh, byte [ecx+0x0A] ; ret  ;  (1 found)
0x00197039: add dh, byte [ecx+0x0E] ; add al, 0xC6 ; ret  ;  (1 found)
0x000d934b: add dh, byte [esi+0x02] ; rep ret  ;  (1 found)
0x00176720: add dh, byte [esi+0x0E] ; adc al, 0x41 ; ret  ;  (1 found)
0x00178147: add dh, ch ; sti  ; call dword [eax] ;  (1 found)
0x00178177: add dh, cl ; sti  ; call dword [eax] ;  (1 found)
0x000c6e27: add dh, dh ; retn 0x0F01 ;  (1 found)
0x00148e22: add dh, dh ; retn 0x0F02 ;  (1 found)
0x00148e2b: add dh, dh ; retn 0x0F04 ;  (1 found)
0x00148f3e: add dh, dh ; retn 0x0F04 ;  (1 found)
0x00147241: add dh, dh ; retn 0x0F10 ;  (1 found)
0x00148e3f: add dh, dh ; retn 0x0F10 ;  (1 found)
0x00148f5f: add dh, dh ; retn 0x0F10 ;  (1 found)
0x00147252: add dh, dh ; retn 0x0F20 ;  (1 found)
0x00148e48: add dh, dh ; retn 0x0F20 ;  (1 found)
0x00148f68: add dh, dh ; retn 0x0F20 ;  (1 found)
0x00147263: add dh, dh ; retn 0x0F40 ;  (1 found)
0x00148e51: add dh, dh ; retn 0x0F40 ;  (1 found)
0x00148f71: add dh, dh ; retn 0x0F40 ;  (1 found)
0x0014685d: add dh, dh ; retn 0x7501 ;  (1 found)
0x0014706f: add dh, dh ; retn 0x7510 ;  (1 found)
0x000c745f: add dh, dh ; retn 0xC740 ;  (1 found)
0x000d7775: add dh, dh ; retn 0xF302 ;  (1 found)
0x00166e74: add dl, byte [eax] ; std  ; call dword [edx+0x22FFFD10] ;  (1 found)
0x00198060: add dl, byte [edi+0x43140E0A] ; ret  ;  (1 found)
0x00196e3d: add dl, byte [edx-0x3938FBF2] ; ret  ;  (1 found)
0x0018473a: add dword [0x03870486], 0x03 ; imul eax, dword [ecx], 0x0A ; ret  ;  (1 found)
0x00187c36: add dword [0x03870486], 0x03 ; xchg byte [edx+ecx], al ; ret  ;  (1 found)
0x00187f3d: add dword [0x5D030486], 0x06 ; ret  ;  (1 found)
0x00186531: add dword [0x7C020486], 0x0A ; ret  ;  (1 found)
0x000f7233: add dword [eax+0x0F], eax ; inc esp ; retn 0x8DC3 ;  (1 found)
0x00085641: add dword [eax+0x5FF88902], ecx ; ret  ;  (1 found)
0x000d7159: add dword [eax+edx-0x75], esi ; xor dword [eax-0x01], 0xFFFFFFFF ; jmp dword [ebp-0x75] ;  (1 found)
0x0002724c: add dword [eax-0x01], 0x0365FFFF ; add eax, 0x00000000 ; ret  ;  (1 found)
0x0010533c: add dword [eax], 0x65FFFFFF ; add eax, dword [0x00000000] ; ret  ;  (1 found)
0x00169b3e: add dword [eax], eax ; aam 0xD2 ; call dword [esi+eax*2] ;  (1 found)
0x00169756: add dword [eax], eax ; adc al, 0x7E ; jmp dword [eax] ;  (1 found)
0x0018812e: add dword [eax], eax ; adc al, 0xFFFFFFF3 ; call dword [eax+0x00] ;  (1 found)
0x00169326: add dword [eax], eax ; add al, 0x26 ; jmp dword [ebx+eax+0x01] ;  (1 found)
0x00169456: add dword [eax], eax ; add al, 0x3C ; jmp dword [eax] ;  (1 found)
0x000b9b58: add dword [eax], eax ; add byte [eax], al ; ret  ;  (1 found)
0x0005525b: add dword [eax], eax ; add byte [ebx-0x0000F775], cl ; jmp dword [ebp-0x7D] ;  (1 found)
0x000f5069: add dword [eax], eax ; add byte [ebx-0x00012F6D], cl ; jmp dword [ebp-0x75] ;  (1 found)
0x000f6549: add dword [eax], eax ; add byte [ebx-0x00012F6D], cl ; jmp dword [ebp-0x75] ;  (1 found)
0x000f623e: add dword [eax], eax ; add byte [ebx-0x00012F7D], cl ; jmp dword [ebp-0x75] ;  (1 found)
0x00078d6f: add dword [eax], eax ; add byte [ebx-0x0001876D], cl ; jmp dword [ebp-0x75] ;  (1 found)
0x00079636: add dword [eax], eax ; add byte [ebx-0x0001877D], cl ; jmp dword [ebp-0x75] ;  (1 found)
0x00078073: add dword [eax], eax ; add byte [ecx], bh ; retn 0x850F ;  (1 found)
0x00149a75: add dword [eax], eax ; add byte [esi-0x77], dl ; retn 0xFE89 ;  (1 found)
0x0014723f: add dword [eax], eax ; add dh, dh ; retn 0x0F10 ;  (1 found)
0x00147250: add dword [eax], eax ; add dh, dh ; retn 0x0F20 ;  (1 found)
0x00147261: add dword [eax], eax ; add dh, dh ; retn 0x0F40 ;  (1 found)
0x00184b2a: add dword [eax], eax ; and al, 0x1A ; jmp ebx ;  (1 found)
0x0018526a: add dword [eax], eax ; and al, 0x2C ; jmp dword [ebp+0x05] ;  (1 found)
0x0018865a: add dword [eax], eax ; and al, 0xD8 ; jmp dword [esi] ;  (1 found)
0x0018655a: add dword [eax], eax ; and al, 0xEB ; jmp dword [edi+0x03] ;  (1 found)
0x0018453e: add dword [eax], eax ; cmp bh, 0xFFFFFFF1 ; call edi ;  (1 found)
0x00169526: add dword [eax], eax ; dec ebp ; jmp dword [eax] ;  (1 found)
0x00188176: add dword [eax], eax ; fcom st0, st0 ; call dword [eax+0x00] ;  (1 found)
0x00169946: add dword [eax], eax ; in al, 0xB3 ; jmp eax ;  (1 found)
0x0016994e: add dword [eax], eax ; in al, 0xB5 ; jmp dword [eax] ;  (1 found)
0x00169c7e: add dword [eax], eax ; int1  ; jmp dword [0x2E420001+esi] ;  (1 found)
0x00169556: add dword [eax], eax ; mov ah, 0x5A ; jmp dword [0x5C340001+edx] ;  (1 found)
0x0016984e: add dword [eax], eax ; mov ah, 0xA1 ; jmp dword [ecx+ebp] ;  (1 found)
0x00187152: add dword [eax], eax ; mov word [eax], es ; call dword [esi+0x02] ;  (1 found)
0x00187c22: add dword [eax], eax ; or al, 0x36 ; call dword [ecx] ;  (1 found)
0x0018674e: add dword [eax], eax ; or dl, dh ; call dword [eax] ;  (1 found)
0x00185c5e: add dword [eax], eax ; rcr ah, 1  ; jmp dword [eax+eax+0x00] ;  (1 found)
0x00186a3e: add dword [eax], eax ; sal dl, 0xFFFFFFF2 ; call ecx ;  (1 found)
0x00184652: add dword [eax], eax ; sbb al, 0x10 ; call dword [edi+0x00] ;  (1 found)
0x00186372: add dword [eax], eax ; sbb al, 0xE3 ; call dword [esi+0x00] ;  (1 found)
0x0018642e: add dword [eax], eax ; shl dh, 0xFFFFFFF2 ; jmp dword [edx+0x00] ;  (1 found)
0x0018746a: add dword [eax], eax ; test byte [ecx], cl ; call edi ;  (1 found)
0x00184e5a: add dword [eax], eax ; test byte [esi], ah ; call dword [ebp+0x00000000] ;  (1 found)
0x0016955e: add dword [eax], eax ; xor al, 0x5C ; call dword [eax+0x15] ;  (1 found)
0x0016972e: add dword [eax], eax ; xor al, 0x78 ; jmp dword [eax+0x1F] ;  (1 found)
0x0009587c: add dword [eax], edx ; ret  ;  (1 found)
0x00097039: add dword [ebx+0x211C244C], ecx ; retn 0xD789 ;  (1 found)
0x000e8443: add dword [ebx+0x5E5B24C4], eax ; ret  ;  (1 found)
0x00019d26: add dword [ebx-0x76EBDB94], ecx ; retn 0x4C89 ;  (1 found)
0x00127c72: add dword [ebx-0x7AC3DBBC], ecx ; retn 0x1574 ;  (1 found)
0x00127b53: add dword [ebx-0x7AC7DBBC], ecx ; retn 0x840F ;  (1 found)
0x000d4429: add dword [ebx-0x7CCFDBBC], ecx ; retn 0x8940 ;  (1 found)
0x00089941: add dword [ecx+0x03428D02], ecx ; pop edi ; ret  ;  (1 found)
0x00089b71: add dword [ecx+0x03428D02], ecx ; ret  ;  (1 found)
0x00088431: add dword [ecx+0x5BD08902], ecx ; ret  ;  (1 found)
0x0008737e: add dword [ecx+0x5FF88902], ecx ; pop ebx ; ret  ;  (1 found)
0x0004855f: add dword [ecx+0x7D8BB455], ecx ; mov eax, 0xFFFC3BE9 ; call dword [eax+0x0026748D] ;  (1 found)
0x00047b2f: add dword [ecx-0x3B7CF3AA], ecx ; and byte [ecx+0x5F5E5BF8], cl ; ret  ;  (1 found)
0x00038a62: add dword [ecx], edi ; retn 0x0689 ;  (1 found)
0x000a544b: add dword [ecx], edi ; retn 0x1375 ;  (1 found)
0x00134620: add dword [edi+0x03], ebx ; sbb al, 0x8B ; jmp ebx ;  (1 found)
0x00136f30: add dword [edi+0x03], ebx ; sbb al, 0x8B ; jmp ebx ;  (1 found)
0x00197331: add dword [edx], 0xF7BD1C00 ; call dword [ebp+0x00000000] ;  (1 found)
0x0017582a: add dword [edx], ecx ; ret  ;  (1 found)
0x00175848: add dword [edx], ecx ; ret  ;  (1 found)
0x00177e76: add dword [edx], ecx ; ret  ;  (1 found)
0x00184742: add dword [edx], ecx ; ret  ;  (1 found)
0x0018555e: add dword [edx], ecx ; ret  ;  (1 found)
0x00186546: add dword [edx], ecx ; ret  ;  (1 found)
0x00187556: add dword [edx], ecx ; ret  ;  (1 found)
0x00195e41: add dword [edx], ecx ; ret  ;  (1 found)
0x00196036: add dword [edx], ecx ; ret  ;  (1 found)
0x00196526: add dword [edx], ecx ; ret  ;  (1 found)
0x000c6e63: add dword [esi+0x5F], ebx ; pop ebp ; ret  ;  (1 found)
0x00078072: add dword [fs:eax], eax ; add byte [ecx], bh ; retn 0x850F ;  (1 found)
0x00019b63: add eax, 0x00000000 ; ret  ;  (1 found)
0x00027233: add eax, 0x00000000 ; ret  ;  (1 found)
0x00027253: add eax, 0x00000000 ; ret  ;  (1 found)
0x00027273: add eax, 0x00000000 ; ret  ;  (1 found)
0x00105343: add eax, 0x00000000 ; ret  ;  (1 found)
0x0001952d: add eax, 0x00000018 ; call eax ;  (1 found)
0x00024034: add eax, 0x00000018 ; call eax ;  (1 found)
0x0002417a: add eax, 0x00000018 ; call eax ;  (1 found)
0x00024226: add eax, 0x00000018 ; call eax ;  (1 found)
0x00026754: add eax, 0x00000018 ; call eax ;  (1 found)
0x0002682c: add eax, 0x00000018 ; call eax ;  (1 found)
0x0002684c: add eax, 0x00000018 ; call eax ;  (1 found)
0x00027439: add eax, 0x00000018 ; call eax ;  (1 found)
0x0002747c: add eax, 0x00000018 ; call eax ;  (1 found)
0x00027f5b: add eax, 0x00000018 ; call eax ;  (1 found)
0x0002894c: add eax, 0x00000018 ; call eax ;  (1 found)
0x00028975: add eax, 0x00000018 ; call eax ;  (1 found)
0x00028b7e: add eax, 0x00000018 ; call eax ;  (1 found)
0x00028d37: add eax, 0x00000018 ; call eax ;  (1 found)
0x00028f64: add eax, 0x00000018 ; call eax ;  (1 found)
0x00029126: add eax, 0x00000018 ; call eax ;  (1 found)
0x0002677d: add eax, 0x00000018 ; mov dword [esp], edx ; call eax ;  (1 found)
0x0004792a: add eax, 0x00000018 ; mov dword [esp], edx ; call eax ;  (1 found)
0x00066237: add eax, 0x00000018 ; mov dword [esp], edx ; call eax ;  (1 found)
0x000b8556: add eax, 0x00000018 ; mov dword [esp], edx ; call eax ;  (1 found)
0x000b9166: add eax, 0x00000018 ; mov dword [esp], edx ; call eax ;  (1 found)
0x000e7a4c: add eax, 0x00000018 ; mov dword [esp], edx ; call eax ;  (1 found)
0x00189a34: add eax, 0x02400E43 ; retn 0x0E0A ;  (1 found)
0x00148e35: add eax, 0x03 ; pop edi ; ret  ;  (1 found)
0x00147060: add eax, 0x03 ; ret  ;  (1 found)
0x0017485b: add eax, 0x03870486 ; add ah, al ; ret  ;  (1 found)
0x0018565f: add eax, 0x03870486 ; add cl, byte [edi+0x0A] ; ret  ;  (1 found)
0x00195e2b: add eax, 0x03870486 ; add dh, byte [ecx+0x0A] ; ret  ;  (1 found)
0x0019602f: add eax, 0x03870486 ; add esi, dword [ecx+eax+0x0A] ; ret  ;  (1 found)
0x00148e5b: add eax, 0x07 ; pop edi ; ret  ;  (1 found)
0x0014707e: add eax, 0x07 ; ret  ;  (1 found)
0x0014707f: add eax, 0x07 ; ret  ;  (1 found)
0x00116b22: add eax, 0x08 ; mov dword [esp], eax ; call dword [esp+0x24] ;  (1 found)
0x00098430: add eax, 0x08 ; ret  ;  (1 found)
0x00149222: add eax, 0x0B ; pop edi ; ret  ;  (1 found)
0x00149227: add eax, 0x0C ; pop edi ; ret  ;  (1 found)
0x0014922c: add eax, 0x0D ; pop edi ; ret  ;  (1 found)
0x00149231: add eax, 0x0E ; pop edi ; ret  ;  (1 found)
0x00149236: add eax, 0x0F ; pop edi ; ret  ;  (1 found)
0x000a7f33: add eax, 0x291FF8C1 ; retn 0x01B8 ;  (1 found)
0x00166228: add eax, 0x35FFFCD4 ; aam 0xFC ; jmp dword [ebp-0x2C] ;  (1 found)
0x00187f38: add eax, 0x42038743 ; add dword [0x5D030486], 0x06 ; ret  ;  (1 found)
0x0018652c: add eax, 0x42038743 ; add dword [0x7C020486], 0x0A ; ret  ;  (1 found)
0x00187f3e: add eax, 0x5D030486 ; push es ; ret  ;  (1 found)
0x00138f6a: add eax, 0x81FFFF0E ; ret  ;  (1 found)
0x00134860: add eax, 0x8B1C035F ; jmp ebx ;  (1 found)
0x00137170: add eax, 0x8B1C035F ; jmp ebx ;  (1 found)
0x00138750: add eax, 0x8B1C035F ; jmp ebx ;  (1 found)
0x00139730: add eax, 0x8B1C035F ; jmp ebx ;  (1 found)
0x0001934b: add eax, 0xC35B0000 ; rep ret  ;  (1 found)
0x000d4c74: add eax, 0xDA890000 ; sub edx, dword [ebx+eax*4-0x000CE370] ; jmp edx ;  (1 found)
0x00019b61: add eax, dword [0x00000000] ; ret  ;  (1 found)
0x00019b62: add eax, dword [0x00000000] ; ret  ;  (1 found)
0x00027231: add eax, dword [0x00000000] ; ret  ;  (1 found)
0x00027232: add eax, dword [0x00000000] ; ret  ;  (1 found)
0x00027251: add eax, dword [0x00000000] ; ret  ;  (1 found)
0x00027252: add eax, dword [0x00000000] ; ret  ;  (1 found)
0x00027271: add eax, dword [0x00000000] ; ret  ;  (1 found)
0x00027272: add eax, dword [0x00000000] ; ret  ;  (1 found)
0x00105341: add eax, dword [0x00000000] ; ret  ;  (1 found)
0x00105342: add eax, dword [0x00000000] ; ret  ;  (1 found)
0x000a7421: add eax, dword [eax] ; add byte [eax], al ; ret  ;  (1 found)
0x0008744e: add eax, dword [eax] ; add byte [edi+0x5B], bl ; ret  ;  (1 found)
0x0008744f: add eax, dword [eax] ; add byte [edi+0x5B], bl ; ret  ;  (1 found)
0x00087471: add eax, dword [eax] ; add byte [edi+0x5B], bl ; ret  ;  (1 found)
0x00148e29: add eax, dword [eax] ; add dh, dh ; retn 0x0F04 ;  (1 found)
0x00148e46: add eax, dword [eax] ; add dh, dh ; retn 0x0F20 ;  (1 found)
0x00148e4f: add eax, dword [eax] ; add dh, dh ; retn 0x0F40 ;  (1 found)
0x00135723: add eax, dword [eax] ; add ebx, dword [ebx+ecx*4] ; jmp ebx ;  (1 found)
0x00135a24: add eax, dword [eax] ; add ebx, dword [ebx+ecx*4] ; jmp ebx ;  (1 found)
0x0013576d: add eax, dword [eax] ; add ebx, dword [ebx+edi*4] ; jmp ebx ;  (1 found)
0x00198e52: add eax, dword [ebx+0x0E] ; adc byte [ebx+0x0C0E7E04], al ; ret  ;  (1 found)
0x00118876: add eax, dword [ebx+0x5689FCE2] ; add al, 0x83 ; retn 0x8901 ;  (1 found)
0x0018473f: add eax, dword [ebx] ; imul eax, dword [ecx], 0x0A ; ret  ;  (1 found)
0x00187c3b: add eax, dword [ebx] ; xchg byte [edx+ecx], al ; ret  ;  (1 found)
0x00169325: add eax, dword [ecx] ; add byte [esi], al ; jmp dword [ebx+eax+0x01] ;  (1 found)
0x00029a29: add eax, dword [ecx] ; retn 0xD001 ;  (1 found)
0x0018752a: add eax, dword [edx] ; push esi ; ret  ;  (1 found)
0x00136958: add eax, ecx ; pop ebx ; ret  ;  (1 found)
0x00136a46: add eax, ecx ; pop ebx ; ret  ;  (1 found)
0x00136b47: add eax, ecx ; pop ebx ; ret  ;  (1 found)
0x00095348: add eax, ecx ; pop edi ; ret  ;  (1 found)
0x00095968: add eax, ecx ; pop edi ; ret  ;  (1 found)
0x00095823: add eax, ecx ; ret  ;  (1 found)
0x00095869: add eax, ecx ; ret  ;  (1 found)
0x0009586a: add eax, ecx ; ret  ;  (1 found)
0x00095128: add eax, edi ; pop edi ; ret  ;  (1 found)
0x00095573: add eax, edi ; pop edi ; ret  ;  (1 found)
0x00095927: add eax, edi ; pop edi ; ret  ;  (1 found)
0x000a866e: add eax, edx ; ret  ;  (1 found)
0x00168e48: add ebp, ebx ; out dx, eax ; jmp dword [eax+0x140000E7] ;  (1 found)
0x00175479: add ebp, esi ; call dword [ecx] ;  (1 found)
0x00139f3e: add ebx, 0x0002D1A2 ; add ebx, dword [ebx+ecx*4] ; jmp ebx ;  (1 found)
0x00139459: add ebx, 0x0002DC87 ; add ebx, dword [ebx+ecx*4] ; jmp ebx ;  (1 found)
0x0013934f: add ebx, 0x0002DD91 ; add ebx, dword [ebx+ecx*4] ; jmp ebx ;  (1 found)
0x00139248: add ebx, 0x0002DE98 ; add ebx, dword [ebx+ecx*4] ; jmp ebx ;  (1 found)
0x0013913f: add ebx, 0x0002DFA1 ; add ebx, dword [ebx+ecx*4] ; jmp ebx ;  (1 found)
0x00138f6e: add ebx, 0x0002DFB2 ; add ebx, dword [ebx+ecx*4] ; jmp ebx ;  (1 found)
0x0013914f: add ebx, 0x0002E091 ; add ebx, dword [ebx+ecx*4] ; jmp ebx ;  (1 found)
0x00138479: add ebx, 0x0002EAA7 ; add ebx, dword [ebx+ecx*4] ; jmp ebx ;  (1 found)
0x0013836f: add ebx, 0x0002EBB1 ; add ebx, dword [ebx+ecx*4] ; jmp ebx ;  (1 found)
0x00138268: add ebx, 0x0002ECB8 ; add ebx, dword [ebx+ecx*4] ; jmp ebx ;  (1 found)
0x0013815f: add ebx, 0x0002EDC1 ; add ebx, dword [ebx+ecx*4] ; jmp ebx ;  (1 found)
0x0013804c: add ebx, 0x0002EE14 ; add ebx, dword [ebx+ecx*4] ; jmp ebx ;  (1 found)
0x0013816f: add ebx, 0x0002EEB1 ; add ebx, dword [ebx+ecx*4] ; jmp ebx ;  (1 found)
0x00135a20: add ebx, 0x000310C0 ; add ebx, dword [ebx+ecx*4] ; jmp ebx ;  (1 found)
0x00135769: add ebx, 0x00031437 ; add ebx, dword [ebx+edi*4] ; jmp ebx ;  (1 found)
0x0013427f: add ebx, 0x00032521 ; add ebx, dword [ebx+ecx*4] ; jmp ebx ;  (1 found)
0x00124966: add ebx, 0x0007E68E ; sub esp, 0x18 ; call dword [ebx-0x00001470] ;  (1 found)
0x00187f41: add ebx, dword [ebp+0x06] ; ret  ;  (1 found)
0x00134622: add ebx, dword [ebx+ecx*4] ; jmp ebx ;  (1 found)
0x00134742: add ebx, dword [ebx+ecx*4] ; jmp ebx ;  (1 found)
0x00134862: add ebx, dword [ebx+ecx*4] ; jmp ebx ;  (1 found)
0x00134b32: add ebx, dword [ebx+ecx*4] ; jmp ebx ;  (1 found)
0x00134c52: add ebx, dword [ebx+ecx*4] ; jmp ebx ;  (1 found)
0x00134d72: add ebx, dword [ebx+ecx*4] ; jmp ebx ;  (1 found)
0x00135725: add ebx, dword [ebx+ecx*4] ; jmp ebx ;  (1 found)
0x00135a26: add ebx, dword [ebx+ecx*4] ; jmp ebx ;  (1 found)
0x00135b42: add ebx, dword [ebx+ecx*4] ; jmp ebx ;  (1 found)
0x00135c62: add ebx, dword [ebx+ecx*4] ; jmp ebx ;  (1 found)
0x00135f32: add ebx, dword [ebx+ecx*4] ; jmp ebx ;  (1 found)
0x00136052: add ebx, dword [ebx+ecx*4] ; jmp ebx ;  (1 found)
0x00136172: add ebx, dword [ebx+ecx*4] ; jmp ebx ;  (1 found)
0x00136f32: add ebx, dword [ebx+ecx*4] ; jmp ebx ;  (1 found)
0x00137052: add ebx, dword [ebx+ecx*4] ; jmp ebx ;  (1 found)
0x00137172: add ebx, dword [ebx+ecx*4] ; jmp ebx ;  (1 found)
0x00137322: add ebx, dword [ebx+ecx*4] ; jmp ebx ;  (1 found)
0x00137442: add ebx, dword [ebx+ecx*4] ; jmp ebx ;  (1 found)
0x00137562: add ebx, dword [ebx+ecx*4] ; jmp ebx ;  (1 found)
0x00138052: add ebx, dword [ebx+ecx*4] ; jmp ebx ;  (1 found)
0x00138165: add ebx, dword [ebx+ecx*4] ; jmp ebx ;  (1 found)
0x00138175: add ebx, dword [ebx+ecx*4] ; jmp ebx ;  (1 found)
0x0013826e: add ebx, dword [ebx+ecx*4] ; jmp ebx ;  (1 found)
0x00138375: add ebx, dword [ebx+ecx*4] ; jmp ebx ;  (1 found)
0x0013847f: add ebx, dword [ebx+ecx*4] ; jmp ebx ;  (1 found)
0x00138632: add ebx, dword [ebx+ecx*4] ; jmp ebx ;  (1 found)
0x00138752: add ebx, dword [ebx+ecx*4] ; jmp ebx ;  (1 found)
0x00138872: add ebx, dword [ebx+ecx*4] ; jmp ebx ;  (1 found)
0x00138a22: add ebx, dword [ebx+ecx*4] ; jmp ebx ;  (1 found)
0x00138b42: add ebx, dword [ebx+ecx*4] ; jmp ebx ;  (1 found)
0x00138c62: add ebx, dword [ebx+ecx*4] ; jmp ebx ;  (1 found)
0x00138f74: add ebx, dword [ebx+ecx*4] ; jmp ebx ;  (1 found)
0x00139145: add ebx, dword [ebx+ecx*4] ; jmp ebx ;  (1 found)
0x00139155: add ebx, dword [ebx+ecx*4] ; jmp ebx ;  (1 found)
0x0013924e: add ebx, dword [ebx+ecx*4] ; jmp ebx ;  (1 found)
0x00139355: add ebx, dword [ebx+ecx*4] ; jmp ebx ;  (1 found)
0x0013945f: add ebx, dword [ebx+ecx*4] ; jmp ebx ;  (1 found)
0x00139732: add ebx, dword [ebx+ecx*4] ; jmp ebx ;  (1 found)
0x00139852: add ebx, dword [ebx+ecx*4] ; jmp ebx ;  (1 found)
0x00139972: add ebx, dword [ebx+ecx*4] ; jmp ebx ;  (1 found)
0x00139b22: add ebx, dword [ebx+ecx*4] ; jmp ebx ;  (1 found)
0x00139c42: add ebx, dword [ebx+ecx*4] ; jmp ebx ;  (1 found)
0x00139f44: add ebx, dword [ebx+ecx*4] ; jmp ebx ;  (1 found)
0x0013576f: add ebx, dword [ebx+edi*4] ; jmp ebx ;  (1 found)
0x00134740: add ebx, dword [edi+0x03] ; sbb al, 0x8B ; jmp ebx ;  (1 found)
0x00137050: add ebx, dword [edi+0x03] ; sbb al, 0x8B ; jmp ebx ;  (1 found)
0x00138630: add ebx, dword [edi+0x03] ; sbb al, 0x8B ; jmp ebx ;  (1 found)
0x00185e2d: add ebx, dword [edx-0x0E] ; jmp dword [edx] ;  (1 found)
0x00187554: add ebx, esi ; add dword [edx], ecx ; ret  ;  (1 found)
0x00187039: add ebx, esi ; call dword [eax] ;  (1 found)
0x00187069: add ebx, esi ; call dword [eax] ;  (1 found)
0x00094971: add ecx, 0x000C6013 ; add ecx, dword [ecx+ebx*4] ; jmp ecx ;  (1 found)
0x00094954: add ecx, 0x000C6030 ; add ecx, dword [ecx+ebx*4] ; jmp ecx ;  (1 found)
0x00094927: add ecx, 0x000C605D ; add ecx, dword [ecx+ebx*4] ; jmp ecx ;  (1 found)
0x00094872: add ecx, 0x000C6092 ; add ecx, dword [ecx+edx*4] ; jmp ecx ;  (1 found)
0x00094848: add ecx, 0x000C60BC ; add ecx, dword [ecx+edx*4] ; jmp ecx ;  (1 found)
0x0009482f: add ecx, 0x000C60D5 ; add ecx, dword [ecx+edx*4] ; jmp ecx ;  (1 found)
0x00094749: add ecx, 0x000C61BB ; add ecx, dword [ecx+edx*4] ; jmp ecx ;  (1 found)
0x00019655: add ecx, 0x0018999F ; lea eax, dword [ecx-0x00043DEE] ; ret  ;  (1 found)
0x00019635: add ecx, 0x001899BF ; lea eax, dword [ecx-0x00046116] ; ret  ;  (1 found)
0x0018406d: add ecx, dword [ebp+0x140E0A03] ; inc ecx ; ret  ;  (1 found)
0x00094a7c: add ecx, dword [ebx+0x5B0C2444] ; pop esi ; ret  ;  (1 found)
0x0009492d: add ecx, dword [ecx+ebx*4] ; jmp ecx ;  (1 found)
0x0009495a: add ecx, dword [ecx+ebx*4] ; jmp ecx ;  (1 found)
0x00094977: add ecx, dword [ecx+ebx*4] ; jmp ecx ;  (1 found)
0x0009474f: add ecx, dword [ecx+edx*4] ; jmp ecx ;  (1 found)
0x00094835: add ecx, dword [ecx+edx*4] ; jmp ecx ;  (1 found)
0x0009484e: add ecx, dword [ecx+edx*4] ; jmp ecx ;  (1 found)
0x00094878: add ecx, dword [ecx+edx*4] ; jmp ecx ;  (1 found)
0x00179d39: add edi, dword [ecx+0x0E] ; add al, 0xC6 ; ret  ;  (1 found)
0x00176629: add edi, ebp ; call dword [eax] ;  (1 found)
0x00176659: add edi, ebp ; call dword [eax] ;  (1 found)
0x00176921: add edi, ebp ; call dword [ebx] ;  (1 found)
0x00179636: add edi, ebp ; jmp dword [edx] ;  (1 found)
0x00179772: add edi, ebp ; jmp dword [edx] ;  (1 found)
0x00179946: add edi, ebp ; jmp dword [edx] ;  (1 found)
0x00175a20: add esi, dword [eax+0x140E0A02] ; inc ecx ; ret  ;  (1 found)
0x00095d35: add esi, dword [eax+edx-0x7D] ; retn 0x3904 ;  (1 found)
0x00196034: add esi, dword [ecx+eax+0x0A] ; ret  ;  (1 found)
0x00168a39: add esi, ebp ; jmp dword [edi+ecx*8+0x00] ;  (1 found)
0x0006812c: add esi, ebx ; ret  ;  (1 found)
0x00177e74: add esi, ecx ; add dword [edx], ecx ; ret  ;  (1 found)
0x0006434a: add esp, 0x0000009C ; ret  ;  (1 found)
0x000b8736: add esp, 0x000000AC ; ret  ;  (1 found)
0x00068f5c: add esp, 0x000000EC ; ret  ;  (1 found)
0x00115666: add esp, 0x0000048C ; ret  ;  (1 found)
0x000d9541: add esp, 0x0000054C ; ret  ;  (1 found)
0x0009682f: add esp, 0x08 ; pop ebx ; ret  ;  (1 found)
0x000a9365: add esp, 0x08 ; pop ebx ; ret  ;  (1 found)
0x000c5c6f: add esp, 0x08 ; pop ebx ; ret  ;  (1 found)
0x00124b37: add esp, 0x08 ; pop ebx ; ret  ;  (1 found)
0x00126524: add esp, 0x08 ; pop ebx ; ret  ;  (1 found)
0x00025f7c: add esp, 0x08 ; ret  ;  (1 found)
0x00067f53: add esp, 0x08 ; ret  ;  (1 found)
0x000b947f: add esp, 0x08 ; ret  ;  (1 found)
0x000c5d2f: add esp, 0x08 ; ret  ;  (1 found)
0x000d8439: add esp, 0x08 ; ret  ;  (1 found)
0x000d8466: add esp, 0x08 ; ret  ;  (1 found)
0x000e8231: add esp, 0x08 ; ret  ;  (1 found)
0x000e9773: add esp, 0x08 ; ret  ;  (1 found)
0x000e985f: add esp, 0x08 ; ret  ;  (1 found)
0x00126631: add esp, 0x08 ; ret  ;  (1 found)
0x00026931: add esp, 0x0C ; ret  ;  (1 found)
0x0002696d: add esp, 0x0C ; ret  ;  (1 found)
0x0005564e: add esp, 0x0C ; ret  ;  (1 found)
0x00055672: add esp, 0x0C ; ret  ;  (1 found)
0x0007733f: add esp, 0x0C ; ret  ;  (1 found)
0x0007877d: add esp, 0x0C ; ret  ;  (1 found)
0x000e6347: add esp, 0x0C ; ret  ;  (1 found)
0x000e6a6a: add esp, 0x0C ; ret  ;  (1 found)
0x00114577: add esp, 0x0C ; ret  ;  (1 found)
0x00119a3b: add esp, 0x0C ; ret  ;  (1 found)
0x0012793e: add esp, 0x0C ; ret  ;  (1 found)
0x0012794a: add esp, 0x0C ; ret  ;  (1 found)
0x00127956: add esp, 0x0C ; ret  ;  (1 found)
0x00127e5e: add esp, 0x0C ; ret  ;  (1 found)
0x00127e6a: add esp, 0x0C ; ret  ;  (1 found)
0x00127e76: add esp, 0x0C ; ret  ;  (1 found)
0x00129a51: add esp, 0x0C ; ret  ;  (1 found)
0x00129a5d: add esp, 0x0C ; ret  ;  (1 found)
0x00129a6d: add esp, 0x0C ; ret  ;  (1 found)
0x00129a7a: add esp, 0x0C ; ret  ;  (1 found)
0x00035a48: add esp, 0x18 ; pop ebx ; ret  ;  (1 found)
0x00035b48: add esp, 0x18 ; pop ebx ; ret  ;  (1 found)
0x00047a3f: add esp, 0x18 ; pop ebx ; ret  ;  (1 found)
0x0005474b: add esp, 0x18 ; pop ebx ; ret  ;  (1 found)
0x00068b5b: add esp, 0x18 ; pop ebx ; ret  ;  (1 found)
0x00097c2e: add esp, 0x18 ; pop ebx ; ret  ;  (1 found)
0x0009897e: add esp, 0x18 ; pop ebx ; ret  ;  (1 found)
0x00099c78: add esp, 0x18 ; pop ebx ; ret  ;  (1 found)
0x00099d38: add esp, 0x18 ; pop ebx ; ret  ;  (1 found)
0x00099d78: add esp, 0x18 ; pop ebx ; ret  ;  (1 found)
0x000a7c5b: add esp, 0x18 ; pop ebx ; ret  ;  (1 found)
0x000a8434: add esp, 0x18 ; pop ebx ; ret  ;  (1 found)
0x000b876f: add esp, 0x18 ; pop ebx ; ret  ;  (1 found)
0x000b8a6f: add esp, 0x18 ; pop ebx ; ret  ;  (1 found)
0x000e8777: add esp, 0x18 ; pop ebx ; ret  ;  (1 found)
0x000e883a: add esp, 0x18 ; pop ebx ; ret  ;  (1 found)
0x000e8a41: add esp, 0x18 ; pop ebx ; ret  ;  (1 found)
0x000e9a46: add esp, 0x18 ; pop ebx ; ret  ;  (1 found)
0x00104734: add esp, 0x18 ; pop ebx ; ret  ;  (1 found)
0x00104831: add esp, 0x18 ; pop ebx ; ret  ;  (1 found)
0x00104a31: add esp, 0x18 ; pop ebx ; ret  ;  (1 found)
0x00104d29: add esp, 0x18 ; pop ebx ; ret  ;  (1 found)
0x00104e50: add esp, 0x18 ; pop ebx ; ret  ;  (1 found)
0x00119479: add esp, 0x18 ; pop ebx ; ret  ;  (1 found)
0x00119835: add esp, 0x18 ; pop ebx ; ret  ;  (1 found)
0x0012654b: add esp, 0x18 ; pop ebx ; ret  ;  (1 found)
0x0012656b: add esp, 0x18 ; pop ebx ; ret  ;  (1 found)
0x00126c6c: add esp, 0x18 ; pop ebx ; ret  ;  (1 found)
0x00128b43: add esp, 0x18 ; pop ebx ; ret  ;  (1 found)
0x00129e42: add esp, 0x18 ; pop esi ; ret  ;  (1 found)
0x00095f20: add esp, 0x18 ; ret  ;  (1 found)
0x00124773: add esp, 0x1C ; mov eax, edx ; ret  ;  (1 found)
0x00114e7c: add esp, 0x1C ; movzx eax, al ; ret  ;  (1 found)
0x00019939: add esp, 0x1C ; ret  ;  (1 found)
0x0002775f: add esp, 0x1C ; ret  ;  (1 found)
0x00049f67: add esp, 0x1C ; ret  ;  (1 found)
0x00064935: add esp, 0x1C ; ret  ;  (1 found)
0x00064f33: add esp, 0x1C ; ret  ;  (1 found)
0x00066757: add esp, 0x1C ; ret  ;  (1 found)
0x00068a54: add esp, 0x1C ; ret  ;  (1 found)
0x00077f57: add esp, 0x1C ; ret  ;  (1 found)
0x0009757e: add esp, 0x1C ; ret  ;  (1 found)
0x00097e39: add esp, 0x1C ; ret  ;  (1 found)
0x000b4b4e: add esp, 0x1C ; ret  ;  (1 found)
0x000b9357: add esp, 0x1C ; ret  ;  (1 found)
0x000d803e: add esp, 0x1C ; ret  ;  (1 found)
0x000d8556: add esp, 0x1C ; ret  ;  (1 found)
0x000d8673: add esp, 0x1C ; ret  ;  (1 found)
0x000e6452: add esp, 0x1C ; ret  ;  (1 found)
0x000e6478: add esp, 0x1C ; ret  ;  (1 found)
0x000e6e57: add esp, 0x1C ; ret  ;  (1 found)
0x000e857b: add esp, 0x1C ; ret  ;  (1 found)
0x000e864e: add esp, 0x1C ; ret  ;  (1 found)
0x000e962f: add esp, 0x1C ; ret  ;  (1 found)
0x000f6d25: add esp, 0x1C ; ret  ;  (1 found)
0x000f6f69: add esp, 0x1C ; ret  ;  (1 found)
0x000f706f: add esp, 0x1C ; ret  ;  (1 found)
0x000f8e27: add esp, 0x1C ; ret  ;  (1 found)
0x000f8e51: add esp, 0x1C ; ret  ;  (1 found)
0x00109847: add esp, 0x1C ; ret  ;  (1 found)
0x00109c64: add esp, 0x1C ; ret  ;  (1 found)
0x00114529: add esp, 0x1C ; ret  ;  (1 found)
0x00114e55: add esp, 0x1C ; ret  ;  (1 found)
0x00114f35: add esp, 0x1C ; ret  ;  (1 found)
0x00114f77: add esp, 0x1C ; ret  ;  (1 found)
0x00115157: add esp, 0x1C ; ret  ;  (1 found)
0x00115f38: add esp, 0x1C ; ret  ;  (1 found)
0x00116b2c: add esp, 0x1C ; ret  ;  (1 found)
0x00116b53: add esp, 0x1C ; ret  ;  (1 found)
0x00116d5d: add esp, 0x1C ; ret  ;  (1 found)
0x00124859: add esp, 0x1C ; ret  ;  (1 found)
0x00124873: add esp, 0x1C ; ret  ;  (1 found)
0x00124941: add esp, 0x1C ; ret  ;  (1 found)
0x0012495b: add esp, 0x1C ; ret  ;  (1 found)
0x00128a70: add esp, 0x1C ; ret  ;  (1 found)
0x00129f44: add esp, 0x1C ; ret  ;  (1 found)
0x00019f3f: add esp, 0x24 ; ret  ;  (1 found)
0x00027733: add esp, 0x28 ; pop ebx ; ret  ;  (1 found)
0x00028e4b: add esp, 0x28 ; pop ebx ; ret  ;  (1 found)
0x00034030: add esp, 0x28 ; pop ebx ; ret  ;  (1 found)
0x00065c73: add esp, 0x28 ; pop ebx ; ret  ;  (1 found)
0x00098e4b: add esp, 0x28 ; pop ebx ; ret  ;  (1 found)
0x00099a50: add esp, 0x28 ; pop ebx ; ret  ;  (1 found)
0x00099b40: add esp, 0x28 ; pop ebx ; ret  ;  (1 found)
0x00099c30: add esp, 0x28 ; pop ebx ; ret  ;  (1 found)
0x000b5c40: add esp, 0x28 ; pop ebx ; ret  ;  (1 found)
0x000c524b: add esp, 0x28 ; pop ebx ; ret  ;  (1 found)
0x000c534b: add esp, 0x28 ; pop ebx ; ret  ;  (1 found)
0x000f484e: add esp, 0x28 ; pop ebx ; ret  ;  (1 found)
0x000f5d20: add esp, 0x28 ; pop ebx ; ret  ;  (1 found)
0x00104c41: add esp, 0x28 ; pop ebx ; ret  ;  (1 found)
0x00106e7e: add esp, 0x28 ; pop ebx ; ret  ;  (1 found)
0x0010776e: add esp, 0x28 ; pop ebx ; ret  ;  (1 found)
0x0012996e: add esp, 0x28 ; pop ebx ; ret  ;  (1 found)
0x000a7b40: add esp, 0x2C ; imul eax, edx ; ret  ;  (1 found)
0x00019871: add esp, 0x2C ; ret  ;  (1 found)
0x00054d53: add esp, 0x2C ; ret  ;  (1 found)
0x00064526: add esp, 0x2C ; ret  ;  (1 found)
0x00064e63: add esp, 0x2C ; ret  ;  (1 found)
0x00065030: add esp, 0x2C ; ret  ;  (1 found)
0x00068b30: add esp, 0x2C ; ret  ;  (1 found)
0x00068d52: add esp, 0x2C ; ret  ;  (1 found)
0x00069476: add esp, 0x2C ; ret  ;  (1 found)
0x000a5b52: add esp, 0x2C ; ret  ;  (1 found)
0x000b434f: add esp, 0x2C ; ret  ;  (1 found)
0x000d812b: add esp, 0x2C ; ret  ;  (1 found)
0x000d833a: add esp, 0x2C ; ret  ;  (1 found)
0x000e5936: add esp, 0x2C ; ret  ;  (1 found)
0x000e664d: add esp, 0x2C ; ret  ;  (1 found)
0x000e673d: add esp, 0x2C ; ret  ;  (1 found)
0x000e6847: add esp, 0x2C ; ret  ;  (1 found)
0x000e6961: add esp, 0x2C ; ret  ;  (1 found)
0x000f6d77: add esp, 0x2C ; ret  ;  (1 found)
0x000f7e33: add esp, 0x2C ; ret  ;  (1 found)
0x00104a77: add esp, 0x2C ; ret  ;  (1 found)
0x00114724: add esp, 0x2C ; ret  ;  (1 found)
0x00118350: add esp, 0x2C ; ret  ;  (1 found)
0x00126d3c: add esp, 0x2C ; ret  ;  (1 found)
0x00127561: add esp, 0x2C ; retn 0x0004 ;  (1 found)
0x000d9c66: add esp, 0x2C ; retn 0x0008 ;  (1 found)
0x000b9146: add esp, 0x38 ; pop ebx ; ret  ;  (1 found)
0x000e7a28: add esp, 0x38 ; pop ebx ; ret  ;  (1 found)
0x00038938: add esp, 0x3C ; ret  ;  (1 found)
0x00065430: add esp, 0x3C ; ret  ;  (1 found)
0x00074d2f: add esp, 0x3C ; ret  ;  (1 found)
0x00079c6e: add esp, 0x3C ; ret  ;  (1 found)
0x00079f25: add esp, 0x3C ; ret  ;  (1 found)
0x000b7e5c: add esp, 0x3C ; ret  ;  (1 found)
0x000b957b: add esp, 0x3C ; ret  ;  (1 found)
0x000d9b34: add esp, 0x3C ; ret  ;  (1 found)
0x000e4e59: add esp, 0x3C ; ret  ;  (1 found)
0x000e5b7f: add esp, 0x3C ; ret  ;  (1 found)
0x000e7b7f: add esp, 0x3C ; ret  ;  (1 found)
0x00104245: add esp, 0x3C ; ret  ;  (1 found)
0x0010463f: add esp, 0x3C ; ret  ;  (1 found)
0x0011505a: add esp, 0x3C ; ret  ;  (1 found)
0x00115352: add esp, 0x3C ; ret  ;  (1 found)
0x00126333: add esp, 0x3C ; ret  ;  (1 found)
0x00126423: add esp, 0x3C ; ret  ;  (1 found)
0x000e6261: add esp, 0x40 ; ret  ;  (1 found)
0x00019e46: add esp, 0x44 ; ret  ;  (1 found)
0x00065f5f: add esp, 0x4C ; ret  ;  (1 found)
0x00066a54: add esp, 0x4C ; ret  ;  (1 found)
0x00067e61: add esp, 0x4C ; ret  ;  (1 found)
0x00074e7e: add esp, 0x4C ; ret  ;  (1 found)
0x000e5d54: add esp, 0x4C ; ret  ;  (1 found)
0x000e7634: add esp, 0x4C ; ret  ;  (1 found)
0x000f6466: add esp, 0x4C ; ret  ;  (1 found)
0x00116c2b: add esp, 0x4C ; ret  ;  (1 found)
0x0011784c: add esp, 0x4C ; ret  ;  (1 found)
0x00129c5e: add esp, 0x4C ; ret  ;  (1 found)
0x000b6b58: add esp, 0x5C ; ret  ;  (1 found)
0x00118d60: add esp, 0x5C ; ret  ;  (1 found)
0x0012443e: add esp, 0x5C ; ret  ;  (1 found)
0x0006634b: add esp, 0x6C ; ret  ;  (1 found)
0x00054e46: add esp, 0x7C ; ret  ;  (1 found)
0x000b4659: add esp, 0x7C ; ret  ;  (1 found)
0x000e6a29: add esp, 0x7C ; ret  ;  (1 found)
0x00175846: add esp, esp ; add dword [edx], ecx ; ret  ;  (1 found)
0x00096225: and al, 0x01 ; retn 0x5489 ;  (1 found)
0x00025f7a: and al, 0x04 ; add esp, 0x08 ; ret  ;  (1 found)
0x00067f51: and al, 0x04 ; add esp, 0x08 ; ret  ;  (1 found)
0x000b947d: and al, 0x04 ; add esp, 0x08 ; ret  ;  (1 found)
0x000e822f: and al, 0x04 ; add esp, 0x08 ; ret  ;  (1 found)
0x000e9771: and al, 0x04 ; add esp, 0x08 ; ret  ;  (1 found)
0x000e985d: and al, 0x04 ; add esp, 0x08 ; ret  ;  (1 found)
0x0012662f: and al, 0x04 ; add esp, 0x08 ; ret  ;  (1 found)
0x00027032: and al, 0x04 ; and eax, 0x7F ; ret  ;  (1 found)
0x00105032: and al, 0x04 ; bswap eax ; ret  ;  (1 found)
0x00126f3b: and al, 0x04 ; call dword [eax+0x04] ;  (1 found)
0x00116262: and al, 0x04 ; call dword [eax+0x0C] ;  (1 found)
0x0006704e: and al, 0x04 ; call dword [eax+0x2C] ;  (1 found)
0x00119f2a: and al, 0x04 ; call dword [esp+0x00000090] ;  (1 found)
0x00107e27: and al, 0x04 ; call dword [esp+0x3C] ;  (1 found)
0x00079865: and al, 0x04 ; call eax ;  (1 found)
0x00079b64: and al, 0x04 ; call eax ;  (1 found)
0x00079533: and al, 0x04 ; mov dword [esp+0x08], edx ; call eax ;  (1 found)
0x00124846: and al, 0x04 ; mov dword [esp], eax ; call dword [ebx-0x0000146C] ;  (1 found)
0x00115f2f: and al, 0x04 ; mov dword [esp], eax ; call dword [esp+0x24] ;  (1 found)
0x00116b4a: and al, 0x04 ; mov dword [esp], eax ; call dword [esp+0x24] ;  (1 found)
0x00067b73: and al, 0x04 ; mov dword [esp], ebp ; call edi ;  (1 found)
0x0011627e: and al, 0x04 ; mov dword [esp], edi ; call dword [eax+0x04] ;  (1 found)
0x00118626: and al, 0x04 ; mov dword [esp], edi ; call dword [eax+0x24] ;  (1 found)
0x00098f6a: and al, 0x04 ; mov dword [esp], edi ; call esi ;  (1 found)
0x00114130: and al, 0x04 ; mov dword [esp], esi ; call dword [eax+0x04] ;  (1 found)
0x00114145: and al, 0x04 ; mov dword [esp], esi ; call dword [eax+0x04] ;  (1 found)
0x00044771: and al, 0x04 ; mov dword [esp], esi ; call dword [eax+0x1C] ;  (1 found)
0x00059262: and al, 0x04 ; mov dword [esp], esi ; call dword [eax+0x1C] ;  (1 found)
0x0006526d: and al, 0x04 ; mov dword [esp], esi ; call dword [eax+0x1C] ;  (1 found)
0x00066069: and al, 0x04 ; mov dword [esp], esi ; call dword [eax+0x1C] ;  (1 found)
0x00066e74: and al, 0x04 ; mov dword [esp], esi ; call dword [eax+0x2C] ;  (1 found)
0x00114160: and al, 0x04 ; mov dword [esp], esi ; call dword [eax] ;  (1 found)
0x00114174: and al, 0x04 ; mov dword [esp], esi ; call dword [eax] ;  (1 found)
0x00048e75: and al, 0x04 ; mov dword [esp], esi ; call eax ;  (1 found)
0x000e8054: and al, 0x04 ; mov eax, 0x0000003D ; call dword [0x00000010] ;  (1 found)
0x000e7d48: and al, 0x04 ; mov eax, 0x0000004A ; call dword [0x00000010] ;  (1 found)
0x000a8468: and al, 0x04 ; mov eax, 0x0000004E ; call dword [0x00000010] ;  (1 found)
0x000e8474: and al, 0x04 ; mov eax, 0x0000006F ; call dword [0x00000010] ;  (1 found)
0x000b9364: and al, 0x04 ; mov eax, 0x00000093 ; call dword [0x00000010] ;  (1 found)
0x000e814e: and al, 0x04 ; mov eax, 0x00000094 ; call dword [0x00000010] ;  (1 found)
0x000e8171: and al, 0x04 ; mov eax, 0x00000094 ; call dword [0x00000010] ;  (1 found)
0x000c5474: and al, 0x04 ; mov eax, 0x0000009D ; call dword [0x00000010] ;  (1 found)
0x000c5534: and al, 0x04 ; mov eax, 0x000000A0 ; call dword [0x00000010] ;  (1 found)
0x000c5578: and al, 0x04 ; mov eax, 0x000000A1 ; call dword [0x00000010] ;  (1 found)
0x00129922: and al, 0x04 ; mov eax, dword [eax+0x50] ; ret  ;  (1 found)
0x00129932: and al, 0x04 ; mov eax, dword [eax+0x5C] ; ret  ;  (1 found)
0x0002692f: and al, 0x08 ; add esp, 0x0C ; ret  ;  (1 found)
0x0002696b: and al, 0x08 ; add esp, 0x0C ; ret  ;  (1 found)
0x0005564c: and al, 0x08 ; add esp, 0x0C ; ret  ;  (1 found)
0x0007877b: and al, 0x08 ; add esp, 0x0C ; ret  ;  (1 found)
0x000e6345: and al, 0x08 ; add esp, 0x0C ; ret  ;  (1 found)
0x00114575: and al, 0x08 ; add esp, 0x0C ; ret  ;  (1 found)
0x00119a39: and al, 0x08 ; add esp, 0x0C ; ret  ;  (1 found)
0x000c8052: and al, 0x08 ; call dword [ebp-0x78] ;  (1 found)
0x000c8449: and al, 0x08 ; call dword [ebp-0x78] ;  (1 found)
0x00106173: and al, 0x08 ; call dword [esp+0x48] ;  (1 found)
0x00079537: and al, 0x08 ; call eax ;  (1 found)
0x000f8423: and al, 0x08 ; call eax ;  (1 found)
0x0009983a: and al, 0x08 ; mov dword [esp], edi ; call esi ;  (1 found)
0x00104f6e: and al, 0x08 ; mov dword [esp], edx ; call dword [ebx+0x00002EC8] ;  (1 found)
0x00067c50: and al, 0x08 ; mov dword [esp], edx ; call eax ;  (1 found)
0x00056a5d: and al, 0x08 ; mov dword [esp], esi ; call dword [eax+0x1C] ;  (1 found)
0x00066a3c: and al, 0x08 ; mov dword [esp], esi ; call dword [eax+0x24] ;  (1 found)
0x000c543b: and al, 0x08 ; mov eax, 0x0000009C ; call dword [0x00000010] ;  (1 found)
0x00134e4a: and al, 0x08 ; pop ebx ; ret  ;  (1 found)
0x00134f3b: and al, 0x08 ; pop ebx ; ret  ;  (1 found)
0x00135063: and al, 0x08 ; pop ebx ; ret  ;  (1 found)
0x00135143: and al, 0x08 ; pop ebx ; ret  ;  (1 found)
0x00135177: and al, 0x08 ; pop ebx ; ret  ;  (1 found)
0x00135248: and al, 0x08 ; pop ebx ; ret  ;  (1 found)
0x0013526e: and al, 0x08 ; pop ebx ; ret  ;  (1 found)
0x00135355: and al, 0x08 ; pop ebx ; ret  ;  (1 found)
0x0013555f: and al, 0x08 ; pop ebx ; ret  ;  (1 found)
0x0013563a: and al, 0x08 ; pop ebx ; ret  ;  (1 found)
0x0013775a: and al, 0x08 ; pop ebx ; ret  ;  (1 found)
0x0013784b: and al, 0x08 ; pop ebx ; ret  ;  (1 found)
0x00137929: and al, 0x08 ; pop ebx ; ret  ;  (1 found)
0x00137973: and al, 0x08 ; pop ebx ; ret  ;  (1 found)
0x00137a53: and al, 0x08 ; pop ebx ; ret  ;  (1 found)
0x00137b24: and al, 0x08 ; pop ebx ; ret  ;  (1 found)
0x00137b58: and al, 0x08 ; pop ebx ; ret  ;  (1 found)
0x00137b7e: and al, 0x08 ; pop ebx ; ret  ;  (1 found)
0x00137c2f: and al, 0x08 ; pop ebx ; ret  ;  (1 found)
0x00137c65: and al, 0x08 ; pop ebx ; ret  ;  (1 found)
0x00137e22: and al, 0x08 ; pop ebx ; ret  ;  (1 found)
0x00137e6f: and al, 0x08 ; pop ebx ; ret  ;  (1 found)
0x00137f4a: and al, 0x08 ; pop ebx ; ret  ;  (1 found)
0x00138d44: and al, 0x08 ; pop ebx ; ret  ;  (1 found)
0x00138d5e: and al, 0x08 ; pop ebx ; ret  ;  (1 found)
0x00138e63: and al, 0x08 ; pop ebx ; ret  ;  (1 found)
0x00139059: and al, 0x08 ; pop ebx ; ret  ;  (1 found)
0x00019937: and al, 0x0C ; add esp, 0x1C ; ret  ;  (1 found)
0x000b7d2d: and al, 0x0C ; mov eax, 0x00000007 ; call dword [0x00000010] ;  (1 found)
0x00047356: and al, 0x0F ; test byte [eax], bh ; retn 0xFFFF ;  (1 found)
0x00066c7f: and al, 0x10 ; mov dword [esp+0x0C], 0x00000000 ; call dword [eax+0x24] ;  (1 found)
0x000e7e6f: and al, 0x10 ; mov eax, 0x0000008E ; call dword [0x00000010] ;  (1 found)
0x00109845: and al, 0x14 ; add esp, 0x1C ; ret  ;  (1 found)
0x00114527: and al, 0x14 ; add esp, 0x1C ; ret  ;  (1 found)
0x0012814f: and al, 0x14 ; mov dword [esp], eax ; call dword [esp+0x1C] ;  (1 found)
0x0012824b: and al, 0x14 ; mov dword [esp], eax ; call dword [esp+0x1C] ;  (1 found)
0x00049f65: and al, 0x18 ; add esp, 0x1C ; ret  ;  (1 found)
0x00064933: and al, 0x18 ; add esp, 0x1C ; ret  ;  (1 found)
0x00064f31: and al, 0x18 ; add esp, 0x1C ; ret  ;  (1 found)
0x00066755: and al, 0x18 ; add esp, 0x1C ; ret  ;  (1 found)
0x00068a52: and al, 0x18 ; add esp, 0x1C ; ret  ;  (1 found)
0x00077f55: and al, 0x18 ; add esp, 0x1C ; ret  ;  (1 found)
0x0009757c: and al, 0x18 ; add esp, 0x1C ; ret  ;  (1 found)
0x00097e37: and al, 0x18 ; add esp, 0x1C ; ret  ;  (1 found)
0x000b4b4c: and al, 0x18 ; add esp, 0x1C ; ret  ;  (1 found)
0x000d803c: and al, 0x18 ; add esp, 0x1C ; ret  ;  (1 found)
0x000d8554: and al, 0x18 ; add esp, 0x1C ; ret  ;  (1 found)
0x000d8671: and al, 0x18 ; add esp, 0x1C ; ret  ;  (1 found)
0x000e6450: and al, 0x18 ; add esp, 0x1C ; ret  ;  (1 found)
0x000e6476: and al, 0x18 ; add esp, 0x1C ; ret  ;  (1 found)
0x000e6e55: and al, 0x18 ; add esp, 0x1C ; ret  ;  (1 found)
0x000e8579: and al, 0x18 ; add esp, 0x1C ; ret  ;  (1 found)
0x000e864c: and al, 0x18 ; add esp, 0x1C ; ret  ;  (1 found)
0x000e962d: and al, 0x18 ; add esp, 0x1C ; ret  ;  (1 found)
0x000f6d23: and al, 0x18 ; add esp, 0x1C ; ret  ;  (1 found)
0x000f6f67: and al, 0x18 ; add esp, 0x1C ; ret  ;  (1 found)
0x000f706d: and al, 0x18 ; add esp, 0x1C ; ret  ;  (1 found)
0x000f8e25: and al, 0x18 ; add esp, 0x1C ; ret  ;  (1 found)
0x000f8e4f: and al, 0x18 ; add esp, 0x1C ; ret  ;  (1 found)
0x00109c62: and al, 0x18 ; add esp, 0x1C ; ret  ;  (1 found)
0x0011447e: and al, 0x18 ; add esp, 0x1C ; ret  ;  (1 found)
0x00114e53: and al, 0x18 ; add esp, 0x1C ; ret  ;  (1 found)
0x00114f33: and al, 0x18 ; add esp, 0x1C ; ret  ;  (1 found)
0x00114f75: and al, 0x18 ; add esp, 0x1C ; ret  ;  (1 found)
0x00115155: and al, 0x18 ; add esp, 0x1C ; ret  ;  (1 found)
0x00116d5b: and al, 0x18 ; add esp, 0x1C ; ret  ;  (1 found)
0x00124857: and al, 0x18 ; add esp, 0x1C ; ret  ;  (1 found)
0x00124871: and al, 0x18 ; add esp, 0x1C ; ret  ;  (1 found)
0x0012493f: and al, 0x18 ; add esp, 0x1C ; ret  ;  (1 found)
0x00124959: and al, 0x18 ; add esp, 0x1C ; ret  ;  (1 found)
0x00128a6e: and al, 0x18 ; add esp, 0x1C ; ret  ;  (1 found)
0x00129f42: and al, 0x18 ; add esp, 0x1C ; ret  ;  (1 found)
0x00079861: and al, 0x18 ; mov dword [esp+0x04], edx ; call eax ;  (1 found)
0x00074d67: and al, 0x18 ; mov dword [esp], 0x00000000 ; call dword [ecx] ;  (1 found)
0x00124824: and al, 0x18 ; mov esi, dword [esp+0x24] ; call dword [ebx-0x00001470] ;  (1 found)
0x00184b2c: and al, 0x1A ; jmp ebx ;  (1 found)
0x00097037: and al, 0x1C ; add dword [ebx+0x211C244C], ecx ; retn 0xD789 ;  (1 found)
0x00019f3d: and al, 0x1C ; add esp, 0x24 ; ret  ;  (1 found)
0x00114256: and al, 0x1C ; mov dword [esp], eax ; call dword [esi+0x20] ;  (1 found)
0x00169c20: and al, 0x1E ; int1  ; call dword [esp+ecx*2+0x01] ;  (1 found)
0x0012492e: and al, 0x20 ; mov dword [esp], eax ; call dword [ebx-0x00001464] ;  (1 found)
0x00115f36: and al, 0x24 ; add esp, 0x1C ; ret  ;  (1 found)
0x00116b2a: and al, 0x24 ; add esp, 0x1C ; ret  ;  (1 found)
0x00116b51: and al, 0x24 ; add esp, 0x1C ; ret  ;  (1 found)
0x00069474: and al, 0x24 ; add esp, 0x2C ; ret  ;  (1 found)
0x00124828: and al, 0x24 ; call dword [ebx-0x00001470] ;  (1 found)
0x0001986f: and al, 0x28 ; add esp, 0x2C ; ret  ;  (1 found)
0x00054d51: and al, 0x28 ; add esp, 0x2C ; ret  ;  (1 found)
0x00064524: and al, 0x28 ; add esp, 0x2C ; ret  ;  (1 found)
0x00064e61: and al, 0x28 ; add esp, 0x2C ; ret  ;  (1 found)
0x0006502e: and al, 0x28 ; add esp, 0x2C ; ret  ;  (1 found)
0x0006557f: and al, 0x28 ; add esp, 0x2C ; ret  ;  (1 found)
0x00068b2e: and al, 0x28 ; add esp, 0x2C ; ret  ;  (1 found)
0x00068d50: and al, 0x28 ; add esp, 0x2C ; ret  ;  (1 found)
0x00074b7f: and al, 0x28 ; add esp, 0x2C ; ret  ;  (1 found)
0x000a5b50: and al, 0x28 ; add esp, 0x2C ; ret  ;  (1 found)
0x000a617f: and al, 0x28 ; add esp, 0x2C ; ret  ;  (1 found)
0x000d8129: and al, 0x28 ; add esp, 0x2C ; ret  ;  (1 found)
0x000e5934: and al, 0x28 ; add esp, 0x2C ; ret  ;  (1 found)
0x000e664b: and al, 0x28 ; add esp, 0x2C ; ret  ;  (1 found)
0x000e673b: and al, 0x28 ; add esp, 0x2C ; ret  ;  (1 found)
0x000e6845: and al, 0x28 ; add esp, 0x2C ; ret  ;  (1 found)
0x000e695f: and al, 0x28 ; add esp, 0x2C ; ret  ;  (1 found)
0x000f6d75: and al, 0x28 ; add esp, 0x2C ; ret  ;  (1 found)
0x000f7e31: and al, 0x28 ; add esp, 0x2C ; ret  ;  (1 found)
0x00114722: and al, 0x28 ; add esp, 0x2C ; ret  ;  (1 found)
0x0011834e: and al, 0x28 ; add esp, 0x2C ; ret  ;  (1 found)
0x00126d3a: and al, 0x28 ; add esp, 0x2C ; ret  ;  (1 found)
0x0012755f: and al, 0x28 ; add esp, 0x2C ; retn 0x0004 ;  (1 found)
0x000d9c64: and al, 0x28 ; add esp, 0x2C ; retn 0x0008 ;  (1 found)
0x00076e27: and al, 0x28 ; call dword [ebp+0x00] ;  (1 found)
0x00076e48: and al, 0x28 ; mov dword [esp+0x2C], ecx ; call eax ;  (1 found)
0x00056164: and al, 0x29 ; retn 0x838D ;  (1 found)
0x0011465c: and al, 0x29 ; retn 0xD739 ;  (1 found)
0x00076e4c: and al, 0x2C ; call eax ;  (1 found)
0x0018526c: and al, 0x2C ; jmp dword [ebp+0x05] ;  (1 found)
0x0001985e: and al, 0x30 ; mov dword [esp], edx ; call eax ;  (1 found)
0x00127674: and al, 0x34 ; mov dword [esp], eax ; call dword [esp+0x38] ;  (1 found)
0x0012774c: and al, 0x34 ; mov dword [esp], eax ; call dword [esp+0x38] ;  (1 found)
0x00127771: and al, 0x34 ; mov dword [esp], eax ; call dword [esp+0x38] ;  (1 found)
0x00038936: and al, 0x38 ; add esp, 0x3C ; ret  ;  (1 found)
0x0006542e: and al, 0x38 ; add esp, 0x3C ; ret  ;  (1 found)
0x00074d2d: and al, 0x38 ; add esp, 0x3C ; ret  ;  (1 found)
0x00079c6c: and al, 0x38 ; add esp, 0x3C ; ret  ;  (1 found)
0x00079f23: and al, 0x38 ; add esp, 0x3C ; ret  ;  (1 found)
0x000b7e5a: and al, 0x38 ; add esp, 0x3C ; ret  ;  (1 found)
0x000b9579: and al, 0x38 ; add esp, 0x3C ; ret  ;  (1 found)
0x000d9b32: and al, 0x38 ; add esp, 0x3C ; ret  ;  (1 found)
0x000e4e57: and al, 0x38 ; add esp, 0x3C ; ret  ;  (1 found)
0x000e5b7d: and al, 0x38 ; add esp, 0x3C ; ret  ;  (1 found)
0x000e7b7d: and al, 0x38 ; add esp, 0x3C ; ret  ;  (1 found)
0x00104243: and al, 0x38 ; add esp, 0x3C ; ret  ;  (1 found)
0x0010463d: and al, 0x38 ; add esp, 0x3C ; ret  ;  (1 found)
0x00115058: and al, 0x38 ; add esp, 0x3C ; ret  ;  (1 found)
0x00115350: and al, 0x38 ; add esp, 0x3C ; ret  ;  (1 found)
0x00126331: and al, 0x38 ; add esp, 0x3C ; ret  ;  (1 found)
0x00126421: and al, 0x38 ; add esp, 0x3C ; ret  ;  (1 found)
0x000e625f: and al, 0x3C ; add esp, 0x40 ; ret  ;  (1 found)
0x00019e44: and al, 0x40 ; add esp, 0x44 ; ret  ;  (1 found)
0x00079b60: and al, 0x40 ; mov dword [esp+0x04], edx ; call eax ;  (1 found)
0x00065f5d: and al, 0x48 ; add esp, 0x4C ; ret  ;  (1 found)
0x00066a52: and al, 0x48 ; add esp, 0x4C ; ret  ;  (1 found)
0x00067e5f: and al, 0x48 ; add esp, 0x4C ; ret  ;  (1 found)
0x00074e7c: and al, 0x48 ; add esp, 0x4C ; ret  ;  (1 found)
0x000e5d52: and al, 0x48 ; add esp, 0x4C ; ret  ;  (1 found)
0x000e7632: and al, 0x48 ; add esp, 0x4C ; ret  ;  (1 found)
0x000f6464: and al, 0x48 ; add esp, 0x4C ; ret  ;  (1 found)
0x00116c29: and al, 0x48 ; add esp, 0x4C ; ret  ;  (1 found)
0x0011784a: and al, 0x48 ; add esp, 0x4C ; ret  ;  (1 found)
0x00129c5c: and al, 0x48 ; add esp, 0x4C ; ret  ;  (1 found)
0x000b6b56: and al, 0x58 ; add esp, 0x5C ; ret  ;  (1 found)
0x00118d5e: and al, 0x58 ; add esp, 0x5C ; ret  ;  (1 found)
0x0012443c: and al, 0x58 ; add esp, 0x5C ; ret  ;  (1 found)
0x000e8446: and al, 0x5B ; pop esi ; ret  ;  (1 found)
0x00127851: and al, 0x5E ; pop edi ; ret  ;  (1 found)
0x000b615c: and al, 0x60 ; mov dword [esp], eax ; call dword [esp+0x3C] ;  (1 found)
0x000f4a3c: and al, 0x60 ; mov dword [esp], eax ; call dword [esp+0x3C] ;  (1 found)
0x00106968: and al, 0x60 ; mov dword [esp], eax ; call dword [esp+0x3C] ;  (1 found)
0x0010743c: and al, 0x60 ; mov dword [esp], eax ; call dword [esp+0x3C] ;  (1 found)
0x00108d7c: and al, 0x60 ; mov dword [esp], eax ; call dword [esp+0x3C] ;  (1 found)
0x00108f5c: and al, 0x60 ; mov dword [esp], eax ; call dword [esp+0x3C] ;  (1 found)
0x00114b76: and al, 0x60 ; mov dword [esp], edx ; call eax ;  (1 found)
0x00168258: and al, 0x66 ; in al, dx ; call dword [eax-0x2BFFFF5F] ;  (1 found)
0x00066349: and al, 0x68 ; add esp, 0x6C ; ret  ;  (1 found)
0x00168820: and al, 0x6C ; in eax, dx ; jmp dword [eax] ;  (1 found)
0x000b4657: and al, 0x78 ; add esp, 0x7C ; ret  ;  (1 found)
0x000e6a27: and al, 0x78 ; add esp, 0x7C ; ret  ;  (1 found)
0x0010616f: and al, 0x78 ; mov dword [esp+0x08], eax ; call dword [esp+0x48] ;  (1 found)
0x0002607c: and al, 0x81 ; retn 0x0100 ;  (1 found)
0x000c5d2e: and al, 0x83 ; les ecx,  [eax] ; ret  ;  (1 found)
0x00024b29: and al, 0x83 ; retn 0x3B01 ;  (1 found)
0x000e606c: and al, 0x87 ; fistp qword [eax+0x00000036] ; call dword [0x00000010] ;  (1 found)
0x00117e44: and al, 0x89 ; retn 0xBC80 ;  (1 found)
0x00168528: and al, 0xAF ; in al, dx ; call dword [eax] ;  (1 found)
0x00129d75: and al, 0xC3 ; mov ecx, dword [esp] ; ret  ;  (1 found)
0x00129d79: and al, 0xC3 ; mov edx, dword [esp] ; ret  ;  (1 found)
0x0018865c: and al, 0xD8 ; jmp dword [esi] ;  (1 found)
0x0016666c: and al, 0xDA ; cld  ; call dword [edx+ebx*8-0x04] ;  (1 found)
0x000a5638: and al, 0xE8 ; mov byte [0x890004DB], al ; retn 0x068B ;  (1 found)
0x000d8842: and al, 0xE8 ; mov eax, 0x89FFFFFC ; retn 0x0CB8 ;  (1 found)
0x00045361: and al, 0xE8 ; mov ecx, 0x89FFFFCA ; retn 0x16EB ;  (1 found)
0x00126240: and al, 0xE8 ; or cl, byte [edx] ; call dword [eax-0x6F6F6F70] ;  (1 found)
0x000f4c77: and al, 0xE8 ; ret  ;  (1 found)
0x000f5648: and al, 0xE8 ; retn 0x0008 ;  (1 found)
0x00107e68: and al, 0xE8 ; retn 0xFF7F ;  (1 found)
0x0018655c: and al, 0xEB ; jmp dword [edi+0x03] ;  (1 found)
0x00005840: and al, byte [eax] ; or al, 0x00 ; ret  ;  (1 found)
0x00007140: and al, byte [eax] ; or al, 0x00 ; ret  ;  (1 found)
0x00158d29: and bh, byte [esi-0x05E0466E] ; xchg dword [esp+eax+0x6FA9CE9D], esp ; ret  ;  (1 found)
0x00166f20: and bl, byte [esi] ; std  ; call dword [edx-0x1D0002E2] ;  (1 found)
0x00177620: and byte [eax+eax-0x10EAE400], al ; jmp dword [eax] ;  (1 found)
0x00167028: and byte [eax], 0xFFFFFFFD ; call edx ;  (1 found)
0x000b9a39: and byte [eax], al ; add byte [eax], al ; ret  ;  (1 found)
0x00009542: and byte [eax], al ; ret  ;  (1 found)
0x00119444: and byte [ebp-0x6BC6FF8A], cl ; ret  ;  (1 found)
0x00199520: and byte [ebx+0x4FFC0002], ah ; clc  ; jmp dword [edx] ;  (1 found)
0x0010495b: and byte [ebx+0x5F5E10C4], al ; pop ebp ; ret  ;  (1 found)
0x000d646a: and byte [ebx-0x0001577D], cl ; jmp dword [ebp-0x75] ;  (1 found)
0x00199320: and byte [ecx+0x446C0002], ah ; clc  ; jmp dword [eax] ;  (1 found)
0x00047b35: and byte [ecx+0x5F5E5BF8], cl ; ret  ;  (1 found)
0x00047b6a: and byte [ecx+0x5F5E5BF8], cl ; ret  ;  (1 found)
0x0003466d: and byte [ecx+0x74402474], cl ; sbb byte [ebx-0x7CBFDBAC], cl ; retn 0x0F01 ;  (1 found)
0x0006896a: and byte [ecx-0x17EBDBA4], cl ; call dword [ebx] ;  (1 found)
0x00077b6a: and byte [ecx-0x17EBDBA4], cl ; jmp dword [ecx] ;  (1 found)
0x00124843: and byte [ecx-0x76FBDB8C], cl ; add al, 0x24 ; call dword [ebx-0x0000146C] ;  (1 found)
0x0016975d: and byte [ecx], al ; add byte [edi+edi*2-0x10], al ; call dword [eax+0x20] ;  (1 found)
0x000a565b: and byte [ecx], ch ; retn 0x895E ;  (1 found)
0x00096b38: and byte [ecx], ch ; retn 0xC083 ;  (1 found)
0x00148664: and byte [edi], cl ; test dword [ebp-0x7D000000], esp ; retn 0x0F0C ;  (1 found)
0x00148e4b: and byte [edi], cl ; test dword [edx-0x09FFFFFD], esi ; retn 0x0F40 ;  (1 found)
0x00148f6b: and byte [edi], cl ; test dword [esi-0x0A000000], ebp ; retn 0x0F40 ;  (1 found)
0x00187c20: and byte [edx+0x360C0001], cl ; call dword [ecx] ;  (1 found)
0x00199d40: and byte [esi-0x08], bl ; jmp dword [ebx] ;  (1 found)
0x0016704d: and ch, bh ; call eax ;  (1 found)
0x00167029: and ch, bh ; call edx ;  (1 found)
0x0016703d: and ch, bh ; call esi ;  (1 found)
0x00167075: and ch, bh ; jmp dword [eax-0x03] ;  (1 found)
0x000f717d: and cl, byte [ebx-0x00012F55] ; jmp dword [ebp-0x75] ;  (1 found)
0x00194445: and dh, bh ; call dword [eax] ;  (1 found)
0x00194475: and dh, bh ; call dword [eax] ;  (1 found)
0x00187a45: and dh, bl ; jmp dword [eax+0x03] ;  (1 found)
0x00177725: and dl, dl ; out dx, al ; jmp dword [edx] ;  (1 found)
0x00076a4d: and dword [eax-0x17000408], 0x19 ; fcos  ; call dword [eax+0x3C247439] ;  (1 found)
0x00158921: and dword [esi+ebp*2-0x7A], edi ; lahf  ; retn 0x871E ;  (1 found)
0x00026e2c: and eax, 0x00000200 ; ret  ;  (1 found)
0x00026f3c: and eax, 0x00001000 ; ret  ;  (1 found)
0x0002717f: and eax, 0x00002000 ; ret  ;  (1 found)
0x0002713f: and eax, 0x00004000 ; ret  ;  (1 found)
0x00026e5c: and eax, 0x00008000 ; ret  ;  (1 found)
0x00105044: and eax, 0x0000FFFF ; ror ax, 0x0008 ; ret  ;  (1 found)
0x0010505c: and eax, 0x00FFFFFF ; ret  ;  (1 found)
0x0002705f: and eax, 0x01 ; ret  ;  (1 found)
0x0002715f: and eax, 0x04 ; ret  ;  (1 found)
0x0002707f: and eax, 0x08 ; ret  ;  (1 found)
0x00124a4e: and eax, 0x0E ; add byte [eax], al ; call dword [eax+0x04] ;  (1 found)
0x00027034: and eax, 0x7F ; ret  ;  (1 found)
0x0011764a: and eax, 0x81000127 ; ret  ;  (1 found)
0x00169a25: and eax, 0xBAE20001 ; jmp eax ;  (1 found)
0x00169a2d: and eax, 0xBAEE0001 ; call dword [eax] ;  (1 found)
0x00168c40: and eax, 0xFFFFFFEE ; call dword [eax-0x70FFFF26] ;  (1 found)
0x000b955b: and eax, dword [edi+0x00D2B8DF] ; add byte [eax], al ; call dword [0x00000010] ;  (1 found)
0x000e9754: and eax, dword [edi+0x012BB8DF] ; add byte [eax], al ; call dword [0x00000010] ;  (1 found)
0x0016633c: and ebx, eax ; cld  ; jmp dword [ebx-0x28] ;  (1 found)
0x000e6034: and ecx, dword [eax-0x78D0DBBC] ; fistp qword [eax+0x00000036] ; call dword [0x00000010] ;  (1 found)
0x000e682c: and ecx, dword [ebx-0x0000F77D] ; jmp dword [ebp-0x39] ;  (1 found)
0x000b9a5e: and edx, dword [ecx+0x0000FFB8] ; add byte [ebp-0x2F], dh ; rep ret  ;  (1 found)
0x00165e4c: and edx, edx ; cld  ; jmp dword [ebx-0x2E] ;  (1 found)
0x00188d31: and esp, esi ; jmp dword [edi+0x00000000] ;  (1 found)
0x00166340: arpl ax, bx ; cld  ; call dword [ebx-0x2C000328] ;  (1 found)
0x00165e3c: arpl cx, dx ; cld  ; call dword [ebx-0x3C00032F] ;  (1 found)
0x00168c20: arpl di, bx ; out dx, al ; call esp ;  (1 found)
0x0016632c: arpl di, dx ; cld  ; call dword [ebx-0x3C000329] ;  (1 found)
0x00165e50: arpl dx, dx ; cld  ; call dword [ebx-0x3C00032E] ;  (1 found)
0x00167760: bound ebx, dword [ebp+edi*8-0x01] ; retn 0xFD5C ;  (1 found)
0x00185c24: bound ecx, dword [esi] ; add al, 0xC6 ; ret  ;  (1 found)
0x00095c70: bsf eax, eax ; lea eax, dword [eax+edx-0x10] ; ret  ;  (1 found)
0x00095c67: bsf eax, eax ; lea eax, dword [edx+eax+0x30] ; ret  ;  (1 found)
0x00095820: bsr eax, eax ; add eax, ecx ; ret  ;  (1 found)
0x00095830: bsr eax, eax ; lea eax, dword [eax+ecx+0x10] ; ret  ;  (1 found)
0x00095840: bsr eax, eax ; lea eax, dword [eax+ecx+0x20] ; ret  ;  (1 found)
0x00095850: bsr eax, eax ; lea eax, dword [eax+ecx+0x30] ; ret  ;  (1 found)
0x00105034: bswap eax ; ret  ;  (1 found)
0x00188c7b: call dword [0x00000000] ;  (1 found)
0x00198757: call dword [0x00000001] ;  (1 found)
0x00024f56: call dword [0x00000010] ;  (1 found)
0x00024f57: call dword [0x00000010] ;  (1 found)
0x00025775: call dword [0x00000010] ;  (1 found)
0x00025776: call dword [0x00000010] ;  (1 found)
0x0002586d: call dword [0x00000010] ;  (1 found)
0x0002586e: call dword [0x00000010] ;  (1 found)
0x00029472: call dword [0x00000010] ;  (1 found)
0x00029473: call dword [0x00000010] ;  (1 found)
0x00055570: call dword [0x00000010] ;  (1 found)
0x00055571: call dword [0x00000010] ;  (1 found)
0x000a844f: call dword [0x00000010] ;  (1 found)
0x000a8450: call dword [0x00000010] ;  (1 found)
0x000a846f: call dword [0x00000010] ;  (1 found)
0x000a8470: call dword [0x00000010] ;  (1 found)
0x000b7c6b: call dword [0x00000010] ;  (1 found)
0x000b7c6c: call dword [0x00000010] ;  (1 found)
0x000b7d34: call dword [0x00000010] ;  (1 found)
0x000b7d35: call dword [0x00000010] ;  (1 found)
0x000b7e36: call dword [0x00000010] ;  (1 found)
0x000b7e37: call dword [0x00000010] ;  (1 found)
0x000b8220: call dword [0x00000010] ;  (1 found)
0x000b9057: call dword [0x00000010] ;  (1 found)
0x000b9058: call dword [0x00000010] ;  (1 found)
0x000b9136: call dword [0x00000010] ;  (1 found)
0x000b9137: call dword [0x00000010] ;  (1 found)
0x000b9325: call dword [0x00000010] ;  (1 found)
0x000b9326: call dword [0x00000010] ;  (1 found)
0x000b936b: call dword [0x00000010] ;  (1 found)
0x000b936c: call dword [0x00000010] ;  (1 found)
0x000b9468: call dword [0x00000010] ;  (1 found)
0x000b9469: call dword [0x00000010] ;  (1 found)
0x000b9563: call dword [0x00000010] ;  (1 found)
0x000b9564: call dword [0x00000010] ;  (1 found)
0x000b9c66: call dword [0x00000010] ;  (1 found)
0x000b9c67: call dword [0x00000010] ;  (1 found)
0x000b9e55: call dword [0x00000010] ;  (1 found)
0x000b9e56: call dword [0x00000010] ;  (1 found)
0x000c5442: call dword [0x00000010] ;  (1 found)
0x000c5443: call dword [0x00000010] ;  (1 found)
0x000c547b: call dword [0x00000010] ;  (1 found)
0x000c547c: call dword [0x00000010] ;  (1 found)
0x000c553b: call dword [0x00000010] ;  (1 found)
0x000c553c: call dword [0x00000010] ;  (1 found)
0x000c557f: call dword [0x00000010] ;  (1 found)
0x000c5732: call dword [0x00000010] ;  (1 found)
0x000c5733: call dword [0x00000010] ;  (1 found)
0x000c584f: call dword [0x00000010] ;  (1 found)
0x000c5850: call dword [0x00000010] ;  (1 found)
0x000c592f: call dword [0x00000010] ;  (1 found)
0x000c5930: call dword [0x00000010] ;  (1 found)
0x000c5b3b: call dword [0x00000010] ;  (1 found)
0x000c5b3c: call dword [0x00000010] ;  (1 found)
0x000e4f21: call dword [0x00000010] ;  (1 found)
0x000e4f22: call dword [0x00000010] ;  (1 found)
0x000e6040: call dword [0x00000010] ;  (1 found)
0x000e6041: call dword [0x00000010] ;  (1 found)
0x000e6074: call dword [0x00000010] ;  (1 found)
0x000e6075: call dword [0x00000010] ;  (1 found)
0x000e6328: call dword [0x00000010] ;  (1 found)
0x000e6329: call dword [0x00000010] ;  (1 found)
0x000e6363: call dword [0x00000010] ;  (1 found)
0x000e6364: call dword [0x00000010] ;  (1 found)
0x000e6d77: call dword [0x00000010] ;  (1 found)
0x000e6d78: call dword [0x00000010] ;  (1 found)
0x000e6e37: call dword [0x00000010] ;  (1 found)
0x000e6e38: call dword [0x00000010] ;  (1 found)
0x000e6e79: call dword [0x00000010] ;  (1 found)
0x000e6e7a: call dword [0x00000010] ;  (1 found)
0x000e7144: call dword [0x00000010] ;  (1 found)
0x000e7145: call dword [0x00000010] ;  (1 found)
0x000e7377: call dword [0x00000010] ;  (1 found)
0x000e7378: call dword [0x00000010] ;  (1 found)
0x000e7927: call dword [0x00000010] ;  (1 found)
0x000e7928: call dword [0x00000010] ;  (1 found)
0x000e7b67: call dword [0x00000010] ;  (1 found)
0x000e7b68: call dword [0x00000010] ;  (1 found)
0x000e7d4f: call dword [0x00000010] ;  (1 found)
0x000e7d50: call dword [0x00000010] ;  (1 found)
0x000e7e20: call dword [0x00000010] ;  (1 found)
0x000e7e76: call dword [0x00000010] ;  (1 found)
0x000e7e77: call dword [0x00000010] ;  (1 found)
0x000e805b: call dword [0x00000010] ;  (1 found)
0x000e805c: call dword [0x00000010] ;  (1 found)
0x000e8155: call dword [0x00000010] ;  (1 found)
0x000e8156: call dword [0x00000010] ;  (1 found)
0x000e8178: call dword [0x00000010] ;  (1 found)
0x000e8179: call dword [0x00000010] ;  (1 found)
0x000e8430: call dword [0x00000010] ;  (1 found)
0x000e8431: call dword [0x00000010] ;  (1 found)
0x000e847b: call dword [0x00000010] ;  (1 found)
0x000e847c: call dword [0x00000010] ;  (1 found)
0x000e957b: call dword [0x00000010] ;  (1 found)
0x000e957c: call dword [0x00000010] ;  (1 found)
0x000e975c: call dword [0x00000010] ;  (1 found)
0x000e975d: call dword [0x00000010] ;  (1 found)
0x000e9848: call dword [0x00000010] ;  (1 found)
0x000e9849: call dword [0x00000010] ;  (1 found)
0x00125a71: call dword [0x00000010] ;  (1 found)
0x00125a72: call dword [0x00000010] ;  (1 found)
0x0016672b: call dword [0x45FFFCDA] ;  (1 found)
0x00019575: call dword [eax+0x00000194] ;  (1 found)
0x00126d2b: call dword [eax+0x000001AC] ;  (1 found)
0x0011916e: call dword [eax+0x0005B955] ;  (1 found)
0x000b9f2e: call dword [eax+0x001000BA] ;  (1 found)
0x0003607a: call dword [eax+0x0026748D] ;  (1 found)
0x00038f2a: call dword [eax+0x0026748D] ;  (1 found)
0x0004856a: call dword [eax+0x0026748D] ;  (1 found)
0x00049572: call dword [eax+0x0026748D] ;  (1 found)
0x0005465a: call dword [eax+0x0026748D] ;  (1 found)
0x00055e72: call dword [eax+0x0026748D] ;  (1 found)
0x0006483a: call dword [eax+0x0026748D] ;  (1 found)
0x00074322: call dword [eax+0x0026748D] ;  (1 found)
0x00077e62: call dword [eax+0x0026748D] ;  (1 found)
0x00078e7a: call dword [eax+0x0026748D] ;  (1 found)
0x00079272: call dword [eax+0x0026748D] ;  (1 found)
0x00096042: call dword [eax+0x0026748D] ;  (1 found)
0x000a6f7a: call dword [eax+0x0026748D] ;  (1 found)
0x000a703a: call dword [eax+0x0026748D] ;  (1 found)
0x000a914a: call dword [eax+0x0026748D] ;  (1 found)
0x000b522a: call dword [eax+0x0026748D] ;  (1 found)
0x000b6062: call dword [eax+0x0026748D] ;  (1 found)
0x000b622a: call dword [eax+0x0026748D] ;  (1 found)
0x000b694a: call dword [eax+0x0026748D] ;  (1 found)
0x000b737a: call dword [eax+0x0026748D] ;  (1 found)
0x000b7672: call dword [eax+0x0026748D] ;  (1 found)
0x000c4532: call dword [eax+0x0026748D] ;  (1 found)
0x000c9a72: call dword [eax+0x0026748D] ;  (1 found)
0x000e4672: call dword [eax+0x0026748D] ;  (1 found)
0x000f424a: call dword [eax+0x0026748D] ;  (1 found)
0x000f4b42: call dword [eax+0x0026748D] ;  (1 found)
0x000f8d72: call dword [eax+0x0026748D] ;  (1 found)
0x000f995a: call dword [eax+0x0026748D] ;  (1 found)
0x00105f5a: call dword [eax+0x0026748D] ;  (1 found)
0x00107542: call dword [eax+0x0026748D] ;  (1 found)
0x00109062: call dword [eax+0x0026748D] ;  (1 found)
0x00109f2a: call dword [eax+0x0026748D] ;  (1 found)
0x00117472: call dword [eax+0x0026748D] ;  (1 found)
0x00026c47: call dword [eax+0x0026B48D] ;  (1 found)
0x00078f37: call dword [eax+0x0026B48D] ;  (1 found)
0x00087347: call dword [eax+0x0026B48D] ;  (1 found)
0x000d7847: call dword [eax+0x0026B48D] ;  (1 found)
0x000e5857: call dword [eax+0x0026B48D] ;  (1 found)
0x000f8247: call dword [eax+0x0026B48D] ;  (1 found)
0x00117157: call dword [eax+0x0026B48D] ;  (1 found)
0x00129567: call dword [eax+0x0026B48D] ;  (1 found)
0x00144137: call dword [eax+0x0026B48D] ;  (1 found)
0x0012402e: call dword [eax+0x0070BA55] ;  (1 found)
0x00116126: call dword [eax+0x00A0828B] ;  (1 found)
0x00035f76: call dword [eax+0x00E28D0F] ;  (1 found)
0x00188132: call dword [eax+0x00] ;  (1 found)
0x00188133: call dword [eax+0x00] ;  (1 found)
0x00188156: call dword [eax+0x00] ;  (1 found)
0x00188157: call dword [eax+0x00] ;  (1 found)
0x0018817a: call dword [eax+0x00] ;  (1 found)
0x0018817b: call dword [eax+0x00] ;  (1 found)
0x00198a47: call dword [eax+0x00] ;  (1 found)
0x00199c5b: call dword [eax+0x00] ;  (1 found)
0x00169322: call dword [eax+0x03] ;  (1 found)
0x00169323: call dword [eax+0x03] ;  (1 found)
0x00167f43: call dword [eax+0x04000092] ;  (1 found)
0x000f8646: call dword [eax+0x04244C89] ;  (1 found)
0x000e4a76: call dword [eax+0x042845F6] ;  (1 found)
0x000e4b5e: call dword [eax+0x042845F6] ;  (1 found)
0x00114135: call dword [eax+0x04] ;  (1 found)
0x0011414a: call dword [eax+0x04] ;  (1 found)
0x00124a53: call dword [eax+0x04] ;  (1 found)
0x00126f3d: call dword [eax+0x04] ;  (1 found)
0x00166e53: call dword [eax+0x07] ;  (1 found)
0x000d913e: call dword [eax+0x082444C7] ;  (1 found)
0x00126f7f: call dword [eax+0x08] ;  (1 found)
0x0010473d: call dword [eax+0x0CEC8390] ;  (1 found)
0x00116264: call dword [eax+0x0C] ;  (1 found)
0x0003663e: call dword [eax+0x0F02708D] ;  (1 found)
0x000a6d7e: call dword [eax+0x0F6F0FF3] ;  (1 found)
0x000a6e6e: call dword [eax+0x0F6F0FF3] ;  (1 found)
0x00064a70: call dword [eax+0x10] ;  (1 found)
0x00065534: call dword [eax+0x10] ;  (1 found)
0x00067467: call dword [eax+0x10] ;  (1 found)
0x00067663: call dword [eax+0x10] ;  (1 found)
0x00116941: call dword [eax+0x10] ;  (1 found)
0x00118f3f: call dword [eax+0x10] ;  (1 found)
0x00126476: call dword [eax+0x1424448B] ;  (1 found)
0x00169562: call dword [eax+0x15] ;  (1 found)
0x00169563: call dword [eax+0x15] ;  (1 found)
0x0003606e: call dword [eax+0x18247C83] ;  (1 found)
0x00118563: call dword [eax+0x18] ;  (1 found)
0x0006487d: call dword [eax+0x1CEC8390] ;  (1 found)
0x00114d3d: call dword [eax+0x1CEC8390] ;  (1 found)
0x00044129: call dword [eax+0x1C] ;  (1 found)
0x00044227: call dword [eax+0x1C] ;  (1 found)
0x00044731: call dword [eax+0x1C] ;  (1 found)
0x00044776: call dword [eax+0x1C] ;  (1 found)
0x00045f4a: call dword [eax+0x1C] ;  (1 found)
0x00046048: call dword [eax+0x1C] ;  (1 found)
0x00056a62: call dword [eax+0x1C] ;  (1 found)
0x00059267: call dword [eax+0x1C] ;  (1 found)
0x00065272: call dword [eax+0x1C] ;  (1 found)
0x0006606e: call dword [eax+0x1C] ;  (1 found)
0x00169722: call dword [eax+0x1E] ;  (1 found)
0x00169723: call dword [eax+0x1E] ;  (1 found)
0x000a9f4e: call dword [eax+0x1F93B60F] ;  (1 found)
0x000d457e: call dword [eax+0x20248C8B] ;  (1 found)
0x00166947: call dword [eax+0x20FFFCE1] ;  (1 found)
0x00166e23: call dword [eax+0x20FFFD00] ;  (1 found)
0x00169762: call dword [eax+0x20] ;  (1 found)
0x00169763: call dword [eax+0x20] ;  (1 found)
0x0011826e: call dword [eax+0x24448B53] ;  (1 found)
0x00066a41: call dword [eax+0x24] ;  (1 found)
0x0011862b: call dword [eax+0x24] ;  (1 found)
0x00066e79: call dword [eax+0x2C] ;  (1 found)
0x00067050: call dword [eax+0x2C] ;  (1 found)
0x000b8a3d: call dword [eax+0x2DE85390] ;  (1 found)
0x0016735f: call dword [eax+0x2E] ;  (1 found)
0x00097b46: call dword [eax+0x30E8B60F] ;  (1 found)
0x0009766e: call dword [eax+0x31CAB60F] ;  (1 found)
0x00168f43: call dword [eax+0x330000ED] ;  (1 found)
0x00167373: call dword [eax+0x33] ;  (1 found)
0x00168b4b: call dword [eax+0x340000D5] ;  (1 found)
0x000a863e: call dword [eax+0x3BFA8356] ;  (1 found)
0x0016735b: call dword [eax+0x3B] ;  (1 found)
0x000b626e: call dword [eax+0x3C24448D] ;  (1 found)
0x00107f46: call dword [eax+0x3C24448D] ;  (1 found)
0x00076a56: call dword [eax+0x3C247439] ;  (1 found)
0x00167453: call dword [eax+0x3C] ;  (1 found)
0x00067e41: call dword [eax+0x40] ;  (1 found)
0x0007597e: call dword [eax+0x4424448B] ;  (1 found)
0x00064146: call dword [eax+0x4424548B] ;  (1 found)
0x00066526: call dword [eax+0x4C244C8B] ;  (1 found)
0x0007905e: call dword [eax+0x53565755] ;  (1 found)
0x00167e2b: call dword [eax+0x5400008E] ;  (1 found)
0x0016814b: call dword [eax+0x5400009D] ;  (1 found)
0x000d706e: call dword [eax+0x57E58955] ;  (1 found)
0x00169a72: call dword [eax+0x6A000127] ;  (1 found)
0x00169a73: call dword [eax+0x6A000127] ;  (1 found)
0x00055f3e: call dword [eax+0x6E6C838D] ;  (1 found)
0x00169e6b: call dword [eax+eax*2+0x31AD0001] ;  (1 found)
0x00175e23: call dword [eax+eax+0x00] ;  (1 found)
0x00197b73: call dword [eax+eax+0x00] ;  (1 found)
0x00198b7b: call dword [eax+eax+0x00] ;  (1 found)
0x000a9f35: call dword [eax+eax] ;  (1 found)
0x00167d73: call dword [eax+ecx*4+0x00] ;  (1 found)
0x000b485e: call dword [eax-0x00000042] ;  (1 found)
0x000b4a5e: call dword [eax-0x00000042] ;  (1 found)
0x000c9b7e: call dword [eax-0x00FF427D] ;  (1 found)
0x00166b77: call dword [eax-0x05] ;  (1 found)
0x0016917a: call dword [eax-0x06] ;  (1 found)
0x0016917b: call dword [eax-0x06] ;  (1 found)
0x00129a45: call dword [eax-0x098A3F7B] ;  (1 found)
0x00129a46: call dword [eax-0x098A3F7B] ;  (1 found)
0x0011863e: call dword [eax-0x137CA9A9] ;  (1 found)
0x00126c3c: call dword [eax-0x17AC6F70] ;  (1 found)
0x000d4e3e: call dword [eax-0x17DB5375] ;  (1 found)
0x000e932e: call dword [eax-0x17DBCB77] ;  (1 found)
0x00168e73: call dword [eax-0x17] ;  (1 found)
0x00166937: call dword [eax-0x21] ;  (1 found)
0x0016825b: call dword [eax-0x2BFFFF5F] ;  (1 found)
0x000b9e66: call dword [eax-0x2FDB4B73] ;  (1 found)
0x00125a66: call dword [eax-0x34780E77] ;  (1 found)
0x00116166: call dword [eax-0x37F0F875] ;  (1 found)
0x000e947e: call dword [eax-0x39A3FF3A] ;  (1 found)
0x00166273: call dword [eax-0x3F00032C] ;  (1 found)
0x00024646: call dword [eax-0x41C26C73] ;  (1 found)
0x000b625e: call dword [eax-0x447F778C] ;  (1 found)
0x00107f36: call dword [eax-0x447F7F8C] ;  (1 found)
0x00105f36: call dword [eax-0x497236CF] ;  (1 found)
0x00168c6b: call dword [eax-0x4BFFFF25] ;  (1 found)
0x00056256: call dword [eax-0x55E67C73] ;  (1 found)
0x0016806b: call dword [eax-0x68] ;  (1 found)
0x00168e53: call dword [eax-0x6AFFFF18] ;  (1 found)
0x00099046: call dword [eax-0x6BDB6B75] ;  (1 found)
0x0016796f: call dword [eax-0x6E] ;  (1 found)
0x00019024: call dword [eax-0x6F6F6F70] ;  (1 found)
0x00024471: call dword [eax-0x6F6F6F70] ;  (1 found)
0x00026d30: call dword [eax-0x6F6F6F70] ;  (1 found)
0x00026d66: call dword [eax-0x6F6F6F70] ;  (1 found)
0x00029174: call dword [eax-0x6F6F6F70] ;  (1 found)
0x00054a39: call dword [eax-0x6F6F6F70] ;  (1 found)
0x00064235: call dword [eax-0x6F6F6F70] ;  (1 found)
0x00065e2a: call dword [eax-0x6F6F6F70] ;  (1 found)
0x00069325: call dword [eax-0x6F6F6F70] ;  (1 found)
0x00098771: call dword [eax-0x6F6F6F70] ;  (1 found)
0x00099564: call dword [eax-0x6F6F6F70] ;  (1 found)
0x000a7b6a: call dword [eax-0x6F6F6F70] ;  (1 found)
0x000b7435: call dword [eax-0x6F6F6F70] ;  (1 found)
0x000b8564: call dword [eax-0x6F6F6F70] ;  (1 found)
0x000b9023: call dword [eax-0x6F6F6F70] ;  (1 found)
0x000b9334: call dword [eax-0x6F6F6F70] ;  (1 found)
0x000e7c38: call dword [eax-0x6F6F6F70] ;  (1 found)
0x000e7c39: call dword [eax-0x6F6F6F70] ;  (1 found)
0x000e7c3a: call dword [eax-0x6F6F6F70] ;  (1 found)
0x000e9551: call dword [eax-0x6F6F6F70] ;  (1 found)
0x000f4132: call dword [eax-0x6F6F6F70] ;  (1 found)
0x000f4b65: call dword [eax-0x6F6F6F70] ;  (1 found)
0x00104668: call dword [eax-0x6F6F6F70] ;  (1 found)
0x00104770: call dword [eax-0x6F6F6F70] ;  (1 found)
0x0010483a: call dword [eax-0x6F6F6F70] ;  (1 found)
0x00104a3a: call dword [eax-0x6F6F6F70] ;  (1 found)
0x00104c4a: call dword [eax-0x6F6F6F70] ;  (1 found)
0x00104d32: call dword [eax-0x6F6F6F70] ;  (1 found)
0x00107222: call dword [eax-0x6F6F6F70] ;  (1 found)
0x00107565: call dword [eax-0x6F6F6F70] ;  (1 found)
0x0010937a: call dword [eax-0x6F6F6F70] ;  (1 found)
0x00117540: call dword [eax-0x6F6F6F70] ;  (1 found)
0x00119426: call dword [eax-0x6F6F6F70] ;  (1 found)
0x00126244: call dword [eax-0x6F6F6F70] ;  (1 found)
0x00126245: call dword [eax-0x6F6F6F70] ;  (1 found)
0x00168c43: call dword [eax-0x70FFFF26] ;  (1 found)
0x0012945e: call dword [eax-0x722BAA75] ;  (1 found)
0x000c9f46: call dword [eax-0x762FBA75] ;  (1 found)
0x0005627e: call dword [eax-0x76C3137D] ;  (1 found)
0x00079b6e: call dword [eax-0x76C3137D] ;  (1 found)
0x000c9936: call dword [eax-0x76FBA973] ;  (1 found)
0x00048346: call dword [eax-0x7A73B275] ;  (1 found)
0x00166d4b: call dword [eax-0x7F0002F4] ;  (1 found)
0x00045562: call dword [eax] ;  (1 found)
0x00045e3a: call dword [eax] ;  (1 found)
0x00076f5d: call dword [eax] ;  (1 found)
0x00114165: call dword [eax] ;  (1 found)
0x00114179: call dword [eax] ;  (1 found)
0x0014434d: call dword [eax] ;  (1 found)
0x0016676b: call dword [eax] ;  (1 found)
0x00166853: call dword [eax] ;  (1 found)
0x00166927: call dword [eax] ;  (1 found)
0x00166b7b: call dword [eax] ;  (1 found)
0x00166b7f: call dword [eax] ;  (1 found)
0x00166e43: call dword [eax] ;  (1 found)
0x00166f4f: call dword [eax] ;  (1 found)
0x00167073: call dword [eax] ;  (1 found)
0x00167363: call dword [eax] ;  (1 found)
0x00167473: call dword [eax] ;  (1 found)
0x00167a23: call dword [eax] ;  (1 found)
0x00167b53: call dword [eax] ;  (1 found)
0x00168173: call dword [eax] ;  (1 found)
0x0016835b: call dword [eax] ;  (1 found)
0x0016852b: call dword [eax] ;  (1 found)
0x0016885b: call dword [eax] ;  (1 found)
0x00168d2b: call dword [eax] ;  (1 found)
0x0016926a: call dword [eax] ;  (1 found)
0x0016926b: call dword [eax] ;  (1 found)
0x00169a32: call dword [eax] ;  (1 found)
0x00169a33: call dword [eax] ;  (1 found)
0x00174347: call dword [eax] ;  (1 found)
0x00174a7f: call dword [eax] ;  (1 found)
0x0017662b: call dword [eax] ;  (1 found)
0x0017665b: call dword [eax] ;  (1 found)
0x0017814b: call dword [eax] ;  (1 found)
0x0017817b: call dword [eax] ;  (1 found)
0x0018534e: call dword [eax] ;  (1 found)
0x0018534f: call dword [eax] ;  (1 found)
0x0018537e: call dword [eax] ;  (1 found)
0x0018537f: call dword [eax] ;  (1 found)
0x0018543e: call dword [eax] ;  (1 found)
0x0018543f: call dword [eax] ;  (1 found)
0x0018647e: call dword [eax] ;  (1 found)
0x0018647f: call dword [eax] ;  (1 found)
0x00186751: call dword [eax] ;  (1 found)
0x00186752: call dword [eax] ;  (1 found)
0x00186753: call dword [eax] ;  (1 found)
0x0018693a: call dword [eax] ;  (1 found)
0x0018693b: call dword [eax] ;  (1 found)
0x0018696a: call dword [eax] ;  (1 found)
0x0018696b: call dword [eax] ;  (1 found)
0x00186c36: call dword [eax] ;  (1 found)
0x00186c37: call dword [eax] ;  (1 found)
0x00186e6a: call dword [eax] ;  (1 found)
0x00186e6b: call dword [eax] ;  (1 found)
0x0018703a: call dword [eax] ;  (1 found)
0x0018703b: call dword [eax] ;  (1 found)
0x0018706a: call dword [eax] ;  (1 found)
0x0018706b: call dword [eax] ;  (1 found)
0x00188543: call dword [eax] ;  (1 found)
0x0018887f: call dword [eax] ;  (1 found)
0x00194143: call dword [eax] ;  (1 found)
0x00194447: call dword [eax] ;  (1 found)
0x00194477: call dword [eax] ;  (1 found)
0x0019473b: call dword [eax] ;  (1 found)
0x00194867: call dword [eax] ;  (1 found)
0x00194927: call dword [eax] ;  (1 found)
0x00194c5f: call dword [eax] ;  (1 found)
0x00194f23: call dword [eax] ;  (1 found)
0x00195047: call dword [eax] ;  (1 found)
0x00195227: call dword [eax] ;  (1 found)
0x00195257: call dword [eax] ;  (1 found)
0x0019542f: call dword [eax] ;  (1 found)
0x0019556f: call dword [eax] ;  (1 found)
0x0019562f: call dword [eax] ;  (1 found)
0x00195a2b: call dword [eax] ;  (1 found)
0x00195a5b: call dword [eax] ;  (1 found)
0x0019653f: call dword [eax] ;  (1 found)
0x0019656f: call dword [eax] ;  (1 found)
0x00196777: call dword [eax] ;  (1 found)
0x00198963: call dword [eax] ;  (1 found)
0x00184e5d: call dword [ebp+0x00000000] ;  (1 found)
0x00184e5e: call dword [ebp+0x00000000] ;  (1 found)
0x00184e5f: call dword [ebp+0x00000000] ;  (1 found)
0x00197337: call dword [ebp+0x00000000] ;  (1 found)
0x00126870: call dword [ebp+0x000007F8] ;  (1 found)
0x00076e29: call dword [ebp+0x00] ;  (1 found)
0x0009643f: call dword [ebp+0x57] ;  (1 found)
0x0016754b: call dword [ebp+ecx*2-0x03] ;  (1 found)
0x00166c53: call dword [ebp+edi*8-0x01CB0004] ;  (1 found)
0x00166c3f: call dword [ebp+edi*8-0x04] ;  (1 found)
0x0016674b: call dword [ebp-0x2A000325] ;  (1 found)
0x00166233: call dword [ebp-0x3A00032C] ;  (1 found)
0x000b4f5f: call dword [ebp-0x48] ;  (1 found)
0x00166523: call dword [ebp-0x4A000328] ;  (1 found)
0x000c8054: call dword [ebp-0x78] ;  (1 found)
0x000c844b: call dword [ebp-0x78] ;  (1 found)
0x00104f73: call dword [ebx+0x00002EC8] ;  (1 found)
0x0017496f: call dword [ebx+0x01] ;  (1 found)
0x00044636: call dword [ebx+0x0F] ;  (1 found)
0x0016667f: call dword [ebx+ebx*8] ;  (1 found)
0x00124933: call dword [ebx-0x00001464] ;  (1 found)
0x0012484b: call dword [ebx-0x0000146C] ;  (1 found)
0x0012482a: call dword [ebx-0x00001470] ;  (1 found)
0x0012496f: call dword [ebx-0x00001470] ;  (1 found)
0x0016634f: call dword [ebx-0x27] ;  (1 found)
0x00166353: call dword [ebx-0x2C000327] ;  (1 found)
0x00166343: call dword [ebx-0x2C000328] ;  (1 found)
0x0016632f: call dword [ebx-0x3C000329] ;  (1 found)
0x00165e53: call dword [ebx-0x3C00032E] ;  (1 found)
0x00165e3f: call dword [ebx-0x3C00032F] ;  (1 found)
0x00068970: call dword [ebx] ;  (1 found)
0x000a9f45: call dword [ebx] ;  (1 found)
0x0016634b: call dword [ebx] ;  (1 found)
0x0016635b: call dword [ebx] ;  (1 found)
0x00176923: call dword [ebx] ;  (1 found)
0x00184437: call dword [ebx] ;  (1 found)
0x00186e3e: call dword [ecx+0x00000000] ;  (1 found)
0x00186e3f: call dword [ecx+0x00000000] ;  (1 found)
0x00194c33: call dword [ecx+0x00000000] ;  (1 found)
0x0019674b: call dword [ecx+0x00000000] ;  (1 found)
0x0018757e: call dword [ecx+0x00] ;  (1 found)
0x0018757f: call dword [ecx+0x00] ;  (1 found)
0x0016665f: call dword [ecx+ebx*8-0x263B0004] ;  (1 found)
0x0016915a: call dword [ecx+edi*8+0x0D670000] ;  (1 found)
0x0016915b: call dword [ecx+edi*8+0x0D670000] ;  (1 found)
0x00169d2b: call dword [ecx+edi] ;  (1 found)
0x00068b70: call dword [ecx] ;  (1 found)
0x00074d4b: call dword [ecx] ;  (1 found)
0x00074d70: call dword [ecx] ;  (1 found)
0x0017547b: call dword [ecx] ;  (1 found)
0x00187c25: call dword [ecx] ;  (1 found)
0x00187c26: call dword [ecx] ;  (1 found)
0x00187c27: call dword [ecx] ;  (1 found)
0x00199b67: call dword [ecx] ;  (1 found)
0x00184656: call dword [edi+0x00] ;  (1 found)
0x00184657: call dword [edi+0x00] ;  (1 found)
0x00016f6f: call dword [edi+0x56] ;  (1 found)
0x00166f7b: call dword [edi+ebx] ;  (1 found)
0x0016924a: call dword [edi+edi*8+0x00] ;  (1 found)
0x0016924b: call dword [edi+edi*8+0x00] ;  (1 found)
0x00169e2b: call dword [edi+edi] ;  (1 found)
0x0016804b: call dword [edi+edx*4] ;  (1 found)
0x00045935: call dword [edi-0x77] ;  (1 found)
0x0012682b: call dword [edx+0x000001B4] ;  (1 found)
0x00119e2a: call dword [edx+0x0C] ;  (1 found)
0x00167633: call dword [edx+0x12FFFD4E] ;  (1 found)
0x00166a23: call dword [edx+0x22FFFCF9] ;  (1 found)
0x00166e77: call dword [edx+0x22FFFD10] ;  (1 found)
0x0016763b: call dword [edx+0x48FFFD4F] ;  (1 found)
0x00167627: call dword [edx+0x4F] ;  (1 found)
0x00167863: call dword [edx+0x5E] ;  (1 found)
0x0016666f: call dword [edx+ebx*8-0x04] ;  (1 found)
0x0016966a: call dword [edx+ebx+0x71340001] ;  (1 found)
0x0016966b: call dword [edx+ebx+0x71340001] ;  (1 found)
0x00169d6b: call dword [edx+edi+0x2FED0001] ;  (1 found)
0x00167f2b: call dword [edx+edx*4+0x00] ;  (1 found)
0x00166f23: call dword [edx-0x1D0002E2] ;  (1 found)
0x00166533: call dword [edx-0x4D000328] ;  (1 found)
0x00074f49: call dword [edx] ;  (1 found)
0x00074f73: call dword [edx] ;  (1 found)
0x0016697b: call dword [edx] ;  (1 found)
0x0016715f: call dword [edx] ;  (1 found)
0x0016716b: call dword [edx] ;  (1 found)
0x00167263: call dword [edx] ;  (1 found)
0x00167327: call dword [edx] ;  (1 found)
0x0016762f: call dword [edx] ;  (1 found)
0x00167637: call dword [edx] ;  (1 found)
0x00167767: call dword [edx] ;  (1 found)
0x0016827b: call dword [edx] ;  (1 found)
0x00189c23: call dword [edx] ;  (1 found)
0x00189d2f: call dword [edx] ;  (1 found)
0x0019753b: call dword [esi+0x00000000] ;  (1 found)
0x00126e21: call dword [esi+0x00000198] ;  (1 found)
0x00127279: call dword [esi+0x00000198] ;  (1 found)
0x00127446: call dword [esi+0x0000019C] ;  (1 found)
0x00178a73: call dword [esi+0x00] ;  (1 found)
0x00186376: call dword [esi+0x00] ;  (1 found)
0x00186377: call dword [esi+0x00] ;  (1 found)
0x0019824f: call dword [esi+0x00] ;  (1 found)
0x00187156: call dword [esi+0x02] ;  (1 found)
0x00187157: call dword [esi+0x02] ;  (1 found)
0x0011425b: call dword [esi+0x20] ;  (1 found)
0x0011496e: call dword [esi+0x20] ;  (1 found)
0x0016734b: call dword [esi+0x3B] ;  (1 found)
0x00167443: call dword [esi+0x3C] ;  (1 found)
0x0016777f: call dword [esi+0x5C] ;  (1 found)
0x00169b42: call dword [esi+eax*2] ;  (1 found)
0x00169b43: call dword [esi+eax*2] ;  (1 found)
0x0016782f: call dword [esi+ebx*2] ;  (1 found)
0x00096843: call dword [esi-0x42] ;  (1 found)
0x00166073: call dword [esi-0x4900032F] ;  (1 found)
0x000f8e62: call dword [esi-0x77] ;  (1 found)
0x00095d63: call dword [esi-0x7D] ;  (1 found)
0x0004873a: call dword [esi] ;  (1 found)
0x00166f3f: call dword [esi] ;  (1 found)
0x00187b32: call dword [esi] ;  (1 found)
0x00187b33: call dword [esi] ;  (1 found)
0x0019797f: call dword [esi] ;  (1 found)
0x00119f2c: call dword [esp+0x00000090] ;  (1 found)
0x000a7d21: call dword [esp+0x1C] ;  (1 found)
0x00128154: call dword [esp+0x1C] ;  (1 found)
0x00128250: call dword [esp+0x1C] ;  (1 found)
0x00115f34: call dword [esp+0x24] ;  (1 found)
0x00116b28: call dword [esp+0x24] ;  (1 found)
0x00116b4f: call dword [esp+0x24] ;  (1 found)
0x00127679: call dword [esp+0x38] ;  (1 found)
0x00127751: call dword [esp+0x38] ;  (1 found)
0x00127776: call dword [esp+0x38] ;  (1 found)
0x000b6161: call dword [esp+0x3C] ;  (1 found)
0x000f4a41: call dword [esp+0x3C] ;  (1 found)
0x0010696d: call dword [esp+0x3C] ;  (1 found)
0x00107441: call dword [esp+0x3C] ;  (1 found)
0x00107e29: call dword [esp+0x3C] ;  (1 found)
0x00108f61: call dword [esp+0x3C] ;  (1 found)
0x00106175: call dword [esp+0x48] ;  (1 found)
0x0016935a: call dword [esp+eax+0x01] ;  (1 found)
0x0016935b: call dword [esp+eax+0x01] ;  (1 found)
0x00167b2b: call dword [esp+eax+0x02] ;  (1 found)
0x00169c23: call dword [esp+ecx*2+0x01] ;  (1 found)
0x00167547: call dword [esp+ecx*2+0x4D54FFFD] ;  (1 found)
0x00166167: call dword [esp+edx*8] ;  (1 found)
0x00169c7b: call dword [esp+esi+0x2E360001] ;  (1 found)
0x00019532: call eax ;  (1 found)
0x00019863: call eax ;  (1 found)
0x00024039: call eax ;  (1 found)
0x0002417f: call eax ;  (1 found)
0x0002422b: call eax ;  (1 found)
0x00026759: call eax ;  (1 found)
0x00026831: call eax ;  (1 found)
0x00026851: call eax ;  (1 found)
0x0002743e: call eax ;  (1 found)
0x00027f60: call eax ;  (1 found)
0x00028520: call eax ;  (1 found)
0x00028951: call eax ;  (1 found)
0x0002897a: call eax ;  (1 found)
0x00028d3c: call eax ;  (1 found)
0x00028f69: call eax ;  (1 found)
0x0002912b: call eax ;  (1 found)
0x00047932: call eax ;  (1 found)
0x00048e7a: call eax ;  (1 found)
0x00056525: call eax ;  (1 found)
0x00064221: call eax ;  (1 found)
0x00064f22: call eax ;  (1 found)
0x00064f7a: call eax ;  (1 found)
0x0006623f: call eax ;  (1 found)
0x00066271: call eax ;  (1 found)
0x00067c55: call eax ;  (1 found)
0x00076e4e: call eax ;  (1 found)
0x0007832a: call eax ;  (1 found)
0x00079539: call eax ;  (1 found)
0x00079867: call eax ;  (1 found)
0x00079b66: call eax ;  (1 found)
0x000b855e: call eax ;  (1 found)
0x000b916e: call eax ;  (1 found)
0x000e7a54: call eax ;  (1 found)
0x000f8425: call eax ;  (1 found)
0x0010997c: call eax ;  (1 found)
0x00114b7b: call eax ;  (1 found)
0x0011695a: call eax ;  (1 found)
0x00126c6a: call eax ;  (1 found)
0x00127454: call eax ;  (1 found)
0x00129e3b: call eax ;  (1 found)
0x00166263: call eax ;  (1 found)
0x0016677b: call eax ;  (1 found)
0x00166957: call eax ;  (1 found)
0x00166e33: call eax ;  (1 found)
0x00166f57: call eax ;  (1 found)
0x0016704f: call eax ;  (1 found)
0x0016797b: call eax ;  (1 found)
0x00167b4b: call eax ;  (1 found)
0x00167d63: call eax ;  (1 found)
0x0016815b: call eax ;  (1 found)
0x0016846b: call eax ;  (1 found)
0x0016854b: call eax ;  (1 found)
0x0016887b: call eax ;  (1 found)
0x00168e33: call eax ;  (1 found)
0x00169a52: call eax ;  (1 found)
0x00169a53: call eax ;  (1 found)
0x00169f53: call eax ;  (1 found)
0x00188a6f: call eax ;  (1 found)
0x00196e2b: call eax ;  (1 found)
0x00166223: call ebp ;  (1 found)
0x0016652b: call ebp ;  (1 found)
0x0016673b: call ebp ;  (1 found)
0x0016674f: call ebp ;  (1 found)
0x00049538: call ebx ;  (1 found)
0x00165e2f: call ebx ;  (1 found)
0x00166347: call ebx ;  (1 found)
0x00166357: call ebx ;  (1 found)
0x0019535f: call ebx ;  (1 found)
0x00186a41: call ecx ;  (1 found)
0x00186a42: call ecx ;  (1 found)
0x00186a43: call ecx ;  (1 found)
0x00067b78: call edi ;  (1 found)
0x0009867b: call edi ;  (1 found)
0x00098d39: call edi ;  (1 found)
0x00184543: call edi ;  (1 found)
0x0018746e: call edi ;  (1 found)
0x0018746f: call edi ;  (1 found)
0x000b8421: call edx ;  (1 found)
0x0016653b: call edx ;  (1 found)
0x00166967: call edx ;  (1 found)
0x00166a37: call edx ;  (1 found)
0x0016702b: call edx ;  (1 found)
0x0016726b: call edx ;  (1 found)
0x00177f2b: call edx ;  (1 found)
0x0009872e: call esi ;  (1 found)
0x00098f6f: call esi ;  (1 found)
0x0009983f: call esi ;  (1 found)
0x000b4843: call esi ;  (1 found)
0x000b4a43: call esi ;  (1 found)
0x0016607b: call esi ;  (1 found)
0x00166f47: call esi ;  (1 found)
0x0016703f: call esi ;  (1 found)
0x00194b5b: call esi ;  (1 found)
0x00166177: call esp ;  (1 found)
0x00166a7f: call esp ;  (1 found)
0x00166c5b: call esp ;  (1 found)
0x00167137: call esp ;  (1 found)
0x0016722f: call esp ;  (1 found)
0x00167733: call esp ;  (1 found)
0x00168c23: call esp ;  (1 found)
0x00169d4b: call esp ;  (1 found)
0x00169e4b: call esp ;  (1 found)
0x00176f5f: call esp ;  (1 found)
0x00186968: cdq  ; hlt  ; call dword [eax] ;  (1 found)
0x0009492f: cdq  ; jmp ecx ;  (1 found)
0x0009495c: cdq  ; jmp ecx ;  (1 found)
0x00094979: cdq  ; jmp ecx ;  (1 found)
0x00198960: cdq  ; xor bh, al ; call dword [eax] ;  (1 found)
0x00184728: clc  ; adc dl, dh ; jmp dword [eax] ;  (1 found)
0x00007969: clc  ; adc dword [eax], eax ; ret  ;  (1 found)
0x000e5854: clc  ; adc esi, esp ; call dword [eax+0x0026B48D] ;  (1 found)
0x00056a6e: clc  ; add bh, byte [ecx] ; retn 0x1974 ;  (1 found)
0x00198756: clc  ; call dword [0x00000001] ;  (1 found)
0x00198a46: clc  ; call dword [eax+0x00] ;  (1 found)
0x00199c5a: clc  ; call dword [eax+0x00] ;  (1 found)
0x00198b7a: clc  ; call dword [eax+eax+0x00] ;  (1 found)
0x00099045: clc  ; call dword [eax-0x6BDB6B75] ;  (1 found)
0x00099563: clc  ; call dword [eax-0x6F6F6F70] ;  (1 found)
0x00198962: clc  ; call dword [eax] ;  (1 found)
0x00199b66: clc  ; call dword [ecx] ;  (1 found)
0x0019824e: clc  ; call dword [esi+0x00] ;  (1 found)
0x00166a20: clc  ; cld  ; call dword [edx+0x22FFFCF9] ;  (1 found)
0x00166a21: clc  ; cld  ; call dword [edx+0x22FFFCF9] ;  (1 found)
0x00199062: clc  ; jmp dword [eax+0x00000000] ;  (1 found)
0x00198c36: clc  ; jmp dword [eax+eax+0x00] ;  (1 found)
0x00198e6e: clc  ; jmp dword [eax] ;  (1 found)
0x00199135: clc  ; jmp dword [eax] ;  (1 found)
0x00199136: clc  ; jmp dword [eax] ;  (1 found)
0x00199326: clc  ; jmp dword [eax] ;  (1 found)
0x0019946e: clc  ; jmp dword [ebx] ;  (1 found)
0x00199d42: clc  ; jmp dword [ebx] ;  (1 found)
0x00199d7a: clc  ; jmp dword [ebx] ;  (1 found)
0x00198646: clc  ; jmp dword [edi] ;  (1 found)
0x0019914d: clc  ; jmp dword [edi] ;  (1 found)
0x0019914e: clc  ; jmp dword [edi] ;  (1 found)
0x0019933e: clc  ; jmp dword [edi] ;  (1 found)
0x00199526: clc  ; jmp dword [edx] ;  (1 found)
0x0009756c: clc  ; jmp dword [esi-0x70] ;  (1 found)
0x00085639: clc  ; pop edi ; ret  ;  (1 found)
0x00085645: clc  ; pop edi ; ret  ;  (1 found)
0x00085657: clc  ; pop edi ; ret  ;  (1 found)
0x0008566d: clc  ; pop edi ; ret  ;  (1 found)
0x0008567b: clc  ; pop edi ; ret  ;  (1 found)
0x00085733: clc  ; pop edi ; ret  ;  (1 found)
0x00085753: clc  ; pop edi ; ret  ;  (1 found)
0x00095129: clc  ; pop edi ; ret  ;  (1 found)
0x00095574: clc  ; pop edi ; ret  ;  (1 found)
0x00095928: clc  ; pop edi ; ret  ;  (1 found)
0x00147e31: clc  ; pop edi ; ret  ;  (1 found)
0x00149c37: clc  ; pop edi ; ret  ;  (1 found)
0x00149c42: clc  ; pop edi ; ret  ;  (1 found)
0x000b462e: clc  ; push dword [ebx+ebp-0x77] ; retn 0xE283 ;  (1 found)
0x0016672a: cld  ; call dword [0x45FFFCDA] ;  (1 found)
0x00166946: cld  ; call dword [eax+0x20FFFCE1] ;  (1 found)
0x00166e22: cld  ; call dword [eax+0x20FFFD00] ;  (1 found)
0x00166b76: cld  ; call dword [eax-0x05] ;  (1 found)
0x00166936: cld  ; call dword [eax-0x21] ;  (1 found)
0x00166272: cld  ; call dword [eax-0x3F00032C] ;  (1 found)
0x0016796e: cld  ; call dword [eax-0x6E] ;  (1 found)
0x0016676a: cld  ; call dword [eax] ;  (1 found)
0x00166852: cld  ; call dword [eax] ;  (1 found)
0x00166926: cld  ; call dword [eax] ;  (1 found)
0x00166b7a: cld  ; call dword [eax] ;  (1 found)
0x00166b7e: cld  ; call dword [eax] ;  (1 found)
0x00167a22: cld  ; call dword [eax] ;  (1 found)
0x00166c52: cld  ; call dword [ebp+edi*8-0x01CB0004] ;  (1 found)
0x00166c3e: cld  ; call dword [ebp+edi*8-0x04] ;  (1 found)
0x0016674a: cld  ; call dword [ebp-0x2A000325] ;  (1 found)
0x00166232: cld  ; call dword [ebp-0x3A00032C] ;  (1 found)
0x00166522: cld  ; call dword [ebp-0x4A000328] ;  (1 found)
0x0016667e: cld  ; call dword [ebx+ebx*8] ;  (1 found)
0x0016634e: cld  ; call dword [ebx-0x27] ;  (1 found)
0x00166352: cld  ; call dword [ebx-0x2C000327] ;  (1 found)
0x00166342: cld  ; call dword [ebx-0x2C000328] ;  (1 found)
0x0016632e: cld  ; call dword [ebx-0x3C000329] ;  (1 found)
0x00165e52: cld  ; call dword [ebx-0x3C00032E] ;  (1 found)
0x00165e3e: cld  ; call dword [ebx-0x3C00032F] ;  (1 found)
0x0016634a: cld  ; call dword [ebx] ;  (1 found)
0x0016635a: cld  ; call dword [ebx] ;  (1 found)
0x0016665e: cld  ; call dword [ecx+ebx*8-0x263B0004] ;  (1 found)
0x00166a22: cld  ; call dword [edx+0x22FFFCF9] ;  (1 found)
0x0016666e: cld  ; call dword [edx+ebx*8-0x04] ;  (1 found)
0x00166532: cld  ; call dword [edx-0x4D000328] ;  (1 found)
0x0016697a: cld  ; call dword [edx] ;  (1 found)
0x00166072: cld  ; call dword [esi-0x4900032F] ;  (1 found)
0x00166166: cld  ; call dword [esp+edx*8] ;  (1 found)
0x00166262: cld  ; call eax ;  (1 found)
0x0016677a: cld  ; call eax ;  (1 found)
0x00166956: cld  ; call eax ;  (1 found)
0x0016797a: cld  ; call eax ;  (1 found)
0x00166222: cld  ; call ebp ;  (1 found)
0x0016652a: cld  ; call ebp ;  (1 found)
0x0016673a: cld  ; call ebp ;  (1 found)
0x0016674e: cld  ; call ebp ;  (1 found)
0x00165e2e: cld  ; call ebx ;  (1 found)
0x00166346: cld  ; call ebx ;  (1 found)
0x00166356: cld  ; call ebx ;  (1 found)
0x0016653a: cld  ; call edx ;  (1 found)
0x00166966: cld  ; call edx ;  (1 found)
0x00166a36: cld  ; call edx ;  (1 found)
0x0016607a: cld  ; call esi ;  (1 found)
0x00166176: cld  ; call esp ;  (1 found)
0x00166a7e: cld  ; call esp ;  (1 found)
0x00166c5a: cld  ; call esp ;  (1 found)
0x00166b7d: cld  ; cld  ; call dword [eax] ;  (1 found)
0x00166b71: cld  ; cld  ; jmp dword [eax+0x50FFFCFA] ;  (1 found)
0x00166b6d: cld  ; cld  ; jmp eax ;  (1 found)
0x0018887c: cld  ; hlt  ; call dword [eax] ;  (1 found)
0x0018887d: cld  ; hlt  ; call dword [eax] ;  (1 found)
0x0016624e: cld  ; jmp dword [0x65FFFCD6] ;  (1 found)
0x0016692a: cld  ; jmp dword [eax+0x30FFFCDD] ;  (1 found)
0x00166856: cld  ; jmp dword [eax+0x30FFFCE7] ;  (1 found)
0x0016796a: cld  ; jmp dword [eax+0x50FFFC91] ;  (1 found)
0x00166b72: cld  ; jmp dword [eax+0x50FFFCFA] ;  (1 found)
0x0016687e: cld  ; jmp dword [eax+ebp*8] ;  (1 found)
0x00166872: cld  ; jmp dword [eax-0x18] ;  (1 found)
0x00166842: cld  ; jmp dword [eax-0x19] ;  (1 found)
0x0016695a: cld  ; jmp dword [eax-0x1C] ;  (1 found)
0x0016626e: cld  ; jmp dword [eax-0x2C] ;  (1 found)
0x00166776: cld  ; jmp dword [eax-0x2F000326] ;  (1 found)
0x0016625e: cld  ; jmp dword [eax-0x2F00032D] ;  (1 found)
0x0016694a: cld  ; jmp dword [eax] ;  (1 found)
0x00166256: cld  ; jmp dword [ebp-0x1A00032A] ;  (1 found)
0x00166246: cld  ; jmp dword [ebp-0x1A00032B] ;  (1 found)
0x00166746: cld  ; jmp dword [ebp-0x25] ;  (1 found)
0x00166736: cld  ; jmp dword [ebp-0x2A000326] ;  (1 found)
0x00166252: cld  ; jmp dword [ebp-0x2A] ;  (1 found)
0x00166242: cld  ; jmp dword [ebp-0x2B] ;  (1 found)
0x0016622e: cld  ; jmp dword [ebp-0x2C] ;  (1 found)
0x00166022: cld  ; jmp dword [ebp-0x3A00032F] ;  (1 found)
0x0016633e: cld  ; jmp dword [ebx-0x28] ;  (1 found)
0x0016657e: cld  ; jmp dword [ebx-0x28] ;  (1 found)
0x0016632a: cld  ; jmp dword [ebx-0x29] ;  (1 found)
0x00165e2a: cld  ; jmp dword [ebx-0x2C000330] ;  (1 found)
0x00165e4e: cld  ; jmp dword [ebx-0x2E] ;  (1 found)
0x00165e3a: cld  ; jmp dword [ebx-0x2F] ;  (1 found)
0x00165e4a: cld  ; jmp dword [ebx] ;  (1 found)
0x0016633a: cld  ; jmp dword [ebx] ;  (1 found)
0x0016666a: cld  ; jmp dword [edx+ebx*8] ;  (1 found)
0x00166a3a: cld  ; jmp dword [edx-0x06] ;  (1 found)
0x0016696a: cld  ; jmp dword [edx-0x13] ;  (1 found)
0x00166032: cld  ; jmp dword [edx-0x3D00032F] ;  (1 found)
0x00166a26: cld  ; jmp dword [edx] ;  (1 found)
0x0014402b: cld  ; jmp dword [esi+0x0F] ;  (1 found)
0x00144037: cld  ; jmp dword [esi+0x0F] ;  (1 found)
0x0014424b: cld  ; jmp dword [esi+0x0F] ;  (1 found)
0x00144253: cld  ; jmp dword [esi+0x0F] ;  (1 found)
0x0014425b: cld  ; jmp dword [esi+0x0F] ;  (1 found)
0x0014426b: cld  ; jmp dword [esi+0x0F] ;  (1 found)
0x0014427b: cld  ; jmp dword [esi+0x0F] ;  (1 found)
0x00144323: cld  ; jmp dword [esi+0x0F] ;  (1 found)
0x00144537: cld  ; jmp dword [esi+0x0F] ;  (1 found)
0x0014453f: cld  ; jmp dword [esi+0x0F] ;  (1 found)
0x00144547: cld  ; jmp dword [esi+0x0F] ;  (1 found)
0x00144557: cld  ; jmp dword [esi+0x0F] ;  (1 found)
0x00144567: cld  ; jmp dword [esi+0x0F] ;  (1 found)
0x00144573: cld  ; jmp dword [esi+0x0F] ;  (1 found)
0x00144628: cld  ; jmp dword [esi+0x0F] ;  (1 found)
0x00144630: cld  ; jmp dword [esi+0x0F] ;  (1 found)
0x00144638: cld  ; jmp dword [esi+0x0F] ;  (1 found)
0x00144648: cld  ; jmp dword [esi+0x0F] ;  (1 found)
0x00144658: cld  ; jmp dword [esi+0x0F] ;  (1 found)
0x00144664: cld  ; jmp dword [esi+0x0F] ;  (1 found)
0x00144727: cld  ; jmp dword [esi+0x0F] ;  (1 found)
0x00144878: cld  ; jmp dword [esi+0x0F] ;  (1 found)
0x0014493b: cld  ; jmp dword [esi+0x0F] ;  (1 found)
0x00144943: cld  ; jmp dword [esi+0x0F] ;  (1 found)
0x0014494b: cld  ; jmp dword [esi+0x0F] ;  (1 found)
0x0014495b: cld  ; jmp dword [esi+0x0F] ;  (1 found)
0x0014496b: cld  ; jmp dword [esi+0x0F] ;  (1 found)
0x00144977: cld  ; jmp dword [esi+0x0F] ;  (1 found)
0x00144c27: cld  ; jmp dword [esi+0x0F] ;  (1 found)
0x00144c2f: cld  ; jmp dword [esi+0x0F] ;  (1 found)
0x00144c37: cld  ; jmp dword [esi+0x0F] ;  (1 found)
0x00144c47: cld  ; jmp dword [esi+0x0F] ;  (1 found)
0x00144c57: cld  ; jmp dword [esi+0x0F] ;  (1 found)
0x00144c63: cld  ; jmp dword [esi+0x0F] ;  (1 found)
0x00144d20: cld  ; jmp dword [esi+0x0F] ;  (1 found)
0x00144d28: cld  ; jmp dword [esi+0x0F] ;  (1 found)
0x00144d38: cld  ; jmp dword [esi+0x0F] ;  (1 found)
0x00144d48: cld  ; jmp dword [esi+0x0F] ;  (1 found)
0x00144d54: cld  ; jmp dword [esi+0x0F] ;  (1 found)
0x00144e77: cld  ; jmp dword [esi+0x0F] ;  (1 found)
0x00144e7f: cld  ; jmp dword [esi+0x0F] ;  (1 found)
0x00144f68: cld  ; jmp dword [esi+0x0F] ;  (1 found)
0x00144f70: cld  ; jmp dword [esi+0x0F] ;  (1 found)
0x00144f78: cld  ; jmp dword [esi+0x0F] ;  (1 found)
0x0014502b: cld  ; jmp dword [esi+0x0F] ;  (1 found)
0x00145033: cld  ; jmp dword [esi+0x0F] ;  (1 found)
0x0014503b: cld  ; jmp dword [esi+0x0F] ;  (1 found)
0x0014504b: cld  ; jmp dword [esi+0x0F] ;  (1 found)
0x0014505b: cld  ; jmp dword [esi+0x0F] ;  (1 found)
0x00145067: cld  ; jmp dword [esi+0x0F] ;  (1 found)
0x0016656e: cld  ; jmp dword [esi-0x28] ;  (1 found)
0x00166576: cld  ; jmp dword [esi-0x39000328] ;  (1 found)
0x0013425c: cld  ; jmp dword [esi-0x70] ;  (1 found)
0x00136b5c: cld  ; jmp dword [esi-0x70] ;  (1 found)
0x0013813c: cld  ; jmp dword [esi-0x70] ;  (1 found)
0x00166172: cld  ; jmp dword [esp+edx*8-0x2B2B0004] ;  (1 found)
0x00166766: cld  ; jmp eax ;  (1 found)
0x0016693a: cld  ; jmp eax ;  (1 found)
0x00166b6e: cld  ; jmp eax ;  (1 found)
0x0016602a: cld  ; jmp ebp ;  (1 found)
0x0016624a: cld  ; jmp ebp ;  (1 found)
0x0016625a: cld  ; jmp ebp ;  (1 found)
0x00166726: cld  ; jmp ebp ;  (1 found)
0x0016603a: cld  ; jmp edx ;  (1 found)
0x00166162: cld  ; jmp esp ;  (1 found)
0x0016667a: cld  ; jmp esp ;  (1 found)
0x00166c42: cld  ; jmp esp ;  (1 found)
0x00149c52: cld  ; pop edi ; ret  ;  (1 found)
0x0016616e: cld  ; push dword [esp+edx*8-0x04] ; jmp dword [esp+edx*8-0x2B2B0004] ;  (1 found)
0x0015884a: cld  ; ret  ;  (1 found)
0x000a8535: cli  ; adc ch, byte [ecx] ; retn 0x018B ;  (1 found)
0x000a8873: cli  ; add al, byte [ecx] ; retn 0x3C8D ;  (1 found)
0x000d934a: cli  ; add dh, byte [esi+0x02] ; rep ret  ;  (1 found)
0x000a7f32: cli  ; add eax, 0x291FF8C1 ; retn 0x01B8 ;  (1 found)
0x00166b75: cli  ; cld  ; call dword [eax-0x05] ;  (1 found)
0x00166a7d: cli  ; cld  ; call esp ;  (1 found)
0x00177c21: cli  ; fldz  ; jmp dword [edx] ;  (1 found)
0x000d8740: cli  ; inc dword [ebp+0x74C289C0] ; ret  ;  (1 found)
0x0017804f: cli  ; jmp dword [edx] ;  (1 found)
0x0017807f: cli  ; jmp dword [edx] ;  (1 found)
0x0017816b: cli  ; jmp dword [edx] ;  (1 found)
0x00178333: cli  ; jmp dword [edx] ;  (1 found)
0x00178363: cli  ; jmp dword [edx] ;  (1 found)
0x00178427: cli  ; jmp dword [edx] ;  (1 found)
0x00178543: cli  ; jmp dword [edx] ;  (1 found)
0x00178573: cli  ; jmp dword [edx] ;  (1 found)
0x000e997a: cli  ; or dh, byte [edx-0x77] ; retn 0xB60F ;  (1 found)
0x000a766e: cli  ; or ebp, dword [ecx] ; retn 0x5589 ;  (1 found)
0x00147922: cli  ; pop edi ; ret  ;  (1 found)
0x00158d2e: cli  ; xchg dword [esp+eax+0x6FA9CE9D], esp ; ret  ;  (1 found)
0x00104a37: cmc  ; fcos  ; call dword [eax-0x6F6F6F70] ;  (1 found)
0x00184435: cmc  ; int1  ; call dword [ebx] ;  (1 found)
0x00098422: cmove eax, ecx ; ret  ;  (1 found)
0x000f7235: cmove eax, edx ; ret  ;  (1 found)
0x000b9945: cmovne eax, edx ; ret  ;  (1 found)
0x0010507f: cmovne eax, edx ; ret  ;  (1 found)
0x00166b6c: cmp ah, 0xFFFFFFFC ; jmp eax ;  (1 found)
0x00186645: cmp ah, byte [edi-0x0E] ; jmp dword [edx] ;  (1 found)
0x00114850: cmp al, 0x01 ; retn 0x4689 ;  (1 found)
0x00055247: cmp al, 0x0C ; retn 0x4489 ;  (1 found)
0x00118561: cmp al, 0x24 ; call dword [eax+0x18] ;  (1 found)
0x00118629: cmp al, 0x24 ; call dword [eax+0x24] ;  (1 found)
0x00127444: cmp al, 0x24 ; call dword [esi+0x0000019C] ;  (1 found)
0x00098f6d: cmp al, 0x24 ; call esi ;  (1 found)
0x0009983d: cmp al, 0x24 ; call esi ;  (1 found)
0x000b4841: cmp al, 0x24 ; call esi ;  (1 found)
0x000b4a41: cmp al, 0x24 ; call esi ;  (1 found)
0x00119f26: cmp al, 0x24 ; mov dword [esp+0x04], eax ; call dword [esp+0x00000090] ;  (1 found)
0x0011625e: cmp al, 0x24 ; mov dword [esp+0x04], edx ; call dword [eax+0x0C] ;  (1 found)
0x00186071: cmp al, 0x5B ; jmp dword [edx] ;  (1 found)
0x00127c76: cmp al, 0x85 ; retn 0x1574 ;  (1 found)
0x000e7458: cmp al, 0xE8 ; adc eax, 0x81000429 ; ret  ;  (1 found)
0x00077360: cmp al, 0xE8 ; or eax, 0x81000B2A ; ret  ;  (1 found)
0x00169459: cmp al, 0xF0 ; jmp dword [eax] ;  (1 found)
0x00194f42: cmp al, 0xF6 ; jmp dword [edx] ;  (1 found)
0x00167451: cmp al, 0xFD ; call dword [eax+0x3C] ;  (1 found)
0x00167441: cmp al, 0xFD ; call dword [esi+0x3C] ;  (1 found)
0x00167455: cmp al, 0xFD ; jmp dword [eax-0x0F0002C4] ;  (1 found)
0x00167421: cmp al, 0xFD ; jmp dword [edx+0x3C] ;  (1 found)
0x00167445: cmp al, 0xFD ; jmp dword [esi-0x090002C4] ;  (1 found)
0x00107d69: cmp al, byte [eax] ; add byte [ebx-0x71F0FF08], al ; ret  ;  (1 found)
0x00108139: cmp al, byte [eax] ; add byte [ebx-0x71F0FF08], al ; ret  ;  (1 found)
0x00095565: cmp al, dh ; pop edi ; ret  ;  (1 found)
0x00176649: cmp al, dl ; out dx, al ; jmp dword [edx] ;  (1 found)
0x00184540: cmp bh, 0xFFFFFFF1 ; call edi ;  (1 found)
0x00167325: cmp bh, ch ; call dword [edx] ;  (1 found)
0x00129b3d: cmp bl, byte [esi+0x5F] ; ret  ;  (1 found)
0x000e5328: cmp byte [eax+eax], al ; add byte [ecx], cl ; retn 0x850F ;  (1 found)
0x00095975: cmp byte [eax], dl ; pop edi ; ret  ;  (1 found)
0x00017f22: cmp byte [ebp+0x0F], bl ; xchg eax, esp ; retn 0x348D ;  (1 found)
0x00068128: cmp byte [ebp-0x0CFC8740], al ; ret  ;  (1 found)
0x000b6959: cmp byte [ebx-0x0000F775], cl ; jmp dword [ebp-0x75] ;  (1 found)
0x000f4259: cmp byte [ebx-0x0000F775], cl ; jmp dword [ebp-0x75] ;  (1 found)
0x000d503f: cmp byte [ebx-0x7CCBDB8C], cl ; retn 0x8B01 ;  (1 found)
0x00199338: cmp byte [ecx+0x44740002], ah ; clc  ; jmp dword [edi] ;  (1 found)
0x00175741: cmp byte [ecx], dh ; out dx, al ; jmp dword [edx] ;  (1 found)
0x0007646b: cmp byte [edi], cl ; xchg eax, ebp ; retn 0xB60F ;  (1 found)
0x00036f3d: cmp byte [edi], cl ; xchg eax, edx ; retn 0xD789 ;  (1 found)
0x0010556b: cmp byte [edi], cl ; xchg eax, esp ; retn 0xD285 ;  (1 found)
0x0016836c: cmp byte [esi+0x74640000], ah ; in al, dx ; jmp dword [eax-0x5A] ;  (1 found)
0x00194976: cmp dh, dh ; jmp dword [edx] ;  (1 found)
0x00194c7e: cmp dh, dh ; jmp dword [edx] ;  (1 found)
0x00146867: cmp dh, dh ; retn 0x7504 ;  (1 found)
0x0007963a: cmp dword [eax-0x02], 0xFFFFFFFF ; jmp dword [ebp-0x75] ;  (1 found)
0x00074c5a: cmp dword [eax-0x02], 0xFFFFFFFF ; jmp dword [ebp-0x77] ;  (1 found)
0x00077f3d: cmp dword [eax-0x02], 0xFFFFFFFF ; jmp dword [ebp-0x77] ;  (1 found)
0x00078f5b: cmp dword [eax-0x02], 0xFFFFFFFF ; jmp dword [ebp-0x7D] ;  (1 found)
0x00129a43: cmp dword [eax-0x10], edi ; call dword [eax-0x098A3F7B] ;  (1 found)
0x00097e6d: cmp dword [edx+eax*2-0x10], 0xFFFFFFFF ; pop ebx ; ret  ;  (1 found)
0x00195a58: cmp dword [edx-0x09], ecx ; call dword [eax] ;  (1 found)
0x00194f3b: cmp eax, 0x0D1CFFF6 ; sar byte [esi+esi*8], 1  ; jmp dword [edx] ;  (1 found)
0x00194f3c: cmp eax, 0x0D1CFFF6 ; sar byte [esi+esi*8], 1  ; jmp dword [edx] ;  (1 found)
0x00087850: cmp eax, 0x5BFFFFFF ; ret  ;  (1 found)
0x000e8057: cmp eax, 0x65000000 ; call dword [0x00000010] ;  (1 found)
0x00126532: cmp eax, 0x81000038 ; ret  ;  (1 found)
0x00124c32: cmp eax, 0x81000051 ; ret  ;  (1 found)
0x000f5d32: cmp eax, 0x81000340 ; ret  ;  (1 found)
0x00105079: cmp ecx, 0x80000000 ; cmovne eax, edx ; ret  ;  (1 found)
0x0016735d: cmp edi, ebp ; call dword [eax+0x2E] ;  (1 found)
0x00167359: cmp edi, ebp ; call dword [eax+0x3B] ;  (1 found)
0x00167349: cmp edi, ebp ; call dword [esi+0x3B] ;  (1 found)
0x00167329: cmp edi, ebp ; jmp dword [edx+0x3B] ;  (1 found)
0x00045932: cmp edx, dword [edi] ; std  ; call dword [edi-0x77] ;  (1 found)
0x00169f51: cmp esi, ecx ; call eax ;  (1 found)
0x00194c22: cmp esi, esi ; jmp dword [edx] ;  (1 found)
0x00194d3e: cmp esi, esi ; jmp dword [edx] ;  (1 found)
0x00194d6e: cmp esi, esi ; jmp dword [edx] ;  (1 found)
0x00194e2a: cmp esi, esi ; jmp dword [edx] ;  (1 found)
0x00194e5a: cmp esi, esi ; jmp dword [edx] ;  (1 found)
0x00095c44: cmp esp, dword [esi+0x0F] ; xlatb  ; retn 0xC085 ;  (1 found)
0x00189a59: cmpsb  ; hlt  ; jmp dword [edi] ;  (1 found)
0x00174336: cmpsd  ; in al, dx ; jmp dword [edx] ;  (1 found)
0x000e476d: daa  ; jmp dword [esi-0x7D] ;  (1 found)
0x00198b79: das  ; clc  ; call dword [eax+eax+0x00] ;  (1 found)
0x00169d29: das  ; int1  ; call dword [ecx+edi] ;  (1 found)
0x00169d69: das  ; int1  ; call dword [edx+edi+0x2FED0001] ;  (1 found)
0x00169d49: das  ; int1  ; call esp ;  (1 found)
0x00169d41: das  ; int1  ; jmp dword [ecx+edi+0x2FA10001] ;  (1 found)
0x00169d61: das  ; int1  ; jmp dword [edx+edi+0x01] ;  (1 found)
0x00169d21: das  ; int1  ; jmp esp ;  (1 found)
0x0014442b: dec byte [ebp-0x7AF00587] ; ret  ;  (1 found)
0x00134f7f: dec byte [ebx+0x5B082444] ; ret  ;  (1 found)
0x00135245: dec byte [ebx+0x5B082444] ; ret  ;  (1 found)
0x0013526b: dec byte [ebx+0x5B082444] ; ret  ;  (1 found)
0x00137b21: dec byte [ebx+0x5B082444] ; ret  ;  (1 found)
0x00137b55: dec byte [ebx+0x5B082444] ; ret  ;  (1 found)
0x00137b7b: dec byte [ebx+0x5B082444] ; ret  ;  (1 found)
0x0016717b: dec dword [0x2C06FFFD+ebp] ; std  ; jmp dword [esi+0x2C] ;  (1 found)
0x00167777: dec dword [0x5D5CFFFD+ebx*2] ; std  ; call dword [esi+0x5C] ;  (1 found)
0x00168a6b: dec dword [eax+edx*8+0x3D740000] ; out dx, al ; jmp dword [ecx+edx*8+0x00] ;  (1 found)
0x0013636b: dec dword [eax-0x2F7600B6] ; pop ebx ; ret  ;  (1 found)
0x00136577: dec dword [eax-0x2F7600B6] ; pop ebx ; ret  ;  (1 found)
0x00166e63: dec dword [eax] ; adc ch, bh ; jmp edx ;  (1 found)
0x00079a71: dec dword [ebp+0x000000B6] ; add al, ch ; ret  ;  (1 found)
0x00095972: dec dword [ebp+0x5F103844] ; ret  ;  (1 found)
0x00168043: dec dword [ebp+edx*4+0x12F40000] ; in al, dx ; call dword [edi+edx*4] ;  (1 found)
0x000c6c40: dec dword [ebx+0x39142454] ; retn 0x850F ;  (1 found)
0x00049727: dec dword [ebx+0x440F8845] ; retn 0x4589 ;  (1 found)
0x00134f38: dec dword [ebx+0x5B082444] ; ret  ;  (1 found)
0x00135060: dec dword [ebx+0x5B082444] ; ret  ;  (1 found)
0x00135140: dec dword [ebx+0x5B082444] ; ret  ;  (1 found)
0x00135174: dec dword [ebx+0x5B082444] ; ret  ;  (1 found)
0x00135352: dec dword [ebx+0x5B082444] ; ret  ;  (1 found)
0x00137848: dec dword [ebx+0x5B082444] ; ret  ;  (1 found)
0x00137926: dec dword [ebx+0x5B082444] ; ret  ;  (1 found)
0x00137970: dec dword [ebx+0x5B082444] ; ret  ;  (1 found)
0x00137a50: dec dword [ebx+0x5B082444] ; ret  ;  (1 found)
0x00137c2c: dec dword [ebx+0x5B082444] ; ret  ;  (1 found)
0x00137c62: dec dword [ebx+0x5B082444] ; ret  ;  (1 found)
0x00138e60: dec dword [ebx+0x5B082444] ; ret  ;  (1 found)
0x000d7735: dec dword [ebx+0x5B0A8902] ; ret  ;  (1 found)
0x000c9054: dec dword [ebx-0x0000134D] ; dec dword [ebx-0x00009F6B] ; jmp dword [ebp-0x39] ;  (1 found)
0x000c8157: dec dword [ebx-0x0000134D] ; dec dword [ebx-0x00009F6B] ; jmp dword [ebp-0x75] ;  (1 found)
0x000c925e: dec dword [ebx-0x0000134D] ; dec dword [ebx-0x00009F6B] ; jmp dword [ebp-0x75] ;  (1 found)
0x0009687a: dec dword [ebx-0x00008F6D] ; jmp dword [ebp-0x75] ;  (1 found)
0x000c905a: dec dword [ebx-0x00009F6B] ; jmp dword [ebp-0x39] ;  (1 found)
0x000c815d: dec dword [ebx-0x00009F6B] ; jmp dword [ebp-0x75] ;  (1 found)
0x000c9264: dec dword [ebx-0x00009F6B] ; jmp dword [ebp-0x75] ;  (1 found)
0x000c6522: dec dword [ebx-0x0000F745] ; jmp dword [ebp-0x39] ;  (1 found)
0x00106569: dec dword [ebx-0x0000F76D] ; jmp dword [ebp-0x75] ;  (1 found)
0x00106651: dec dword [ebx-0x0000F76D] ; jmp dword [ebp-0x75] ;  (1 found)
0x00106e59: dec dword [ebx-0x0000F76D] ; jmp dword [ebp-0x75] ;  (1 found)
0x00106f41: dec dword [ebx-0x0000F76D] ; jmp dword [ebp-0x75] ;  (1 found)
0x00107749: dec dword [ebx-0x0000F76D] ; jmp dword [ebp-0x75] ;  (1 found)
0x00107828: dec dword [ebx-0x0000F76D] ; jmp dword [ebp-0x75] ;  (1 found)
0x00108569: dec dword [ebx-0x0000F76D] ; jmp dword [ebp-0x75] ;  (1 found)
0x00108648: dec dword [ebx-0x0000F76D] ; jmp dword [ebp-0x75] ;  (1 found)
0x00108736: dec dword [ebx-0x0000F76D] ; jmp dword [ebp-0x75] ;  (1 found)
0x00108b69: dec dword [ebx-0x0000F76D] ; jmp dword [ebp-0x75] ;  (1 found)
0x00108c48: dec dword [ebx-0x0000F76D] ; jmp dword [ebp-0x75] ;  (1 found)
0x00024632: dec dword [ebx-0x0000F77D] ; jmp dword [ebp-0x39] ;  (1 found)
0x00115577: dec dword [ebx-0x0000F77D] ; jmp dword [ebp-0x39] ;  (1 found)
0x000e4322: dec dword [ebx-0x0000F77D] ; jmp dword [esi-0x39] ;  (1 found)
0x000f4d55: dec dword [ebx-0x00012F6D] ; jmp dword [ebp-0x75] ;  (1 found)
0x00027e68: dec dword [ebx-0x0001577D] ; jmp dword [ebp-0x75] ;  (1 found)
0x00129d72: dec dword [ebx-0x743CDBE4] ; or al, 0x24 ; ret  ;  (1 found)
0x00105567: dec dword [ecx+0x0F382444] ; xchg eax, esp ; retn 0xD285 ;  (1 found)
0x00105d37: dec dword [ecx+0x0F442444] ; xchg eax, esp ; retn 0xD285 ;  (1 found)
0x00076e21: dec dword [ecx+0x54892414] ; and al, 0x28 ; call dword [ebp+0x00] ;  (1 found)
0x00026a57: dec dword [ecx+0x5F5E5B10] ; ret  ;  (1 found)
0x0004956c: dec dword [ecx-0x0000A34B] ; call dword [eax+0x0026748D] ;  (1 found)
0x00109975: dec dword [ecx-0x72CBDBAC] ; xchg eax, ebx ; call eax ;  (1 found)
0x0005925f: dec dword [ecx-0x76FBDBB4] ; xor al, 0x24 ; call dword [eax+0x1C] ;  (1 found)
0x00118841: dec dword [ecx-0x7CF57406] ; retn 0x8D04 ;  (1 found)
0x000b9831: dec dword [ecx] ; retn 0x850F ;  (1 found)
0x00097b70: dec dword [edi] ; inc ebp ; retn 0x748D ;  (1 found)
0x000b9944: dec dword [edi] ; inc ebp ; retn 0x8DC3 ;  (1 found)
0x000a7925: dec dword [edi] ; inc ebp ; retn 0xA5EB ;  (1 found)
0x00046629: dec dword [edi] ; inc ebp ; retn 0xBD89 ;  (1 found)
0x00145729: dec dword [edi] ; inc esi ; retn 0x5D5E ;  (1 found)
0x0009682b: dec dword [edi] ; inc esp ; retn 0xC483 ;  (1 found)
0x000c5c6a: dec dword [edi] ; inc esp ; retn 0xC483 ;  (1 found)
0x000c5c6b: dec dword [edi] ; inc esp ; retn 0xC483 ;  (1 found)
0x00038348: dec dword [edi] ; mov fs, word [ebp-0x76000002] ; retn 0x18E9 ;  (1 found)
0x00037f6c: dec dword [edi] ; movsb  ; retn 0xC102 ;  (1 found)
0x00167227: dec dword [edx-0x150002D2] ; std  ; call esp ;  (1 found)
0x00168b7b: dec dword [esi+edx*8-0x26FC0000] ; out dx, al ; call eax ;  (1 found)
0x00166a7b: dec dword [esi-0x06] ; cld  ; call esp ;  (1 found)
0x0016905b: dec dword [esp+esi*8+0x00] ; add byte [esi+edi*8-0x11], al ; jmp dword [eax-0x0C] ;  (1 found)
0x00065f5e: dec eax ; add esp, 0x4C ; ret  ;  (1 found)
0x00066a53: dec eax ; add esp, 0x4C ; ret  ;  (1 found)
0x00067e60: dec eax ; add esp, 0x4C ; ret  ;  (1 found)
0x00074e7d: dec eax ; add esp, 0x4C ; ret  ;  (1 found)
0x000e5d53: dec eax ; add esp, 0x4C ; ret  ;  (1 found)
0x000e7633: dec eax ; add esp, 0x4C ; ret  ;  (1 found)
0x000f6465: dec eax ; add esp, 0x4C ; ret  ;  (1 found)
0x00116c2a: dec eax ; add esp, 0x4C ; ret  ;  (1 found)
0x0011784b: dec eax ; add esp, 0x4C ; ret  ;  (1 found)
0x00129c5d: dec eax ; add esp, 0x4C ; ret  ;  (1 found)
0x00177b35: dec eax ; fsubr st0, st6 ; jmp dword [edx] ;  (1 found)
0x00168e28: dec eax ; fucomi st0, st7 ; jmp eax ;  (1 found)
0x0018543c: dec eax ; inc edx ; call dword [eax] ;  (1 found)
0x00197138: dec eax ; mov cl, 0xF7 ; jmp dword [esi] ;  (1 found)
0x00177f28: dec eax ; sub bh, ch ; call edx ;  (1 found)
0x0019946d: dec ebp ; clc  ; jmp dword [ebx] ;  (1 found)
0x00169528: dec ebp ; jmp dword [eax] ;  (1 found)
0x00169529: dec ebp ; jmp dword [eax] ;  (1 found)
0x000a5165: dec ebp ; mov esp, 0x8301C083 ; retn 0x3901 ;  (1 found)
0x000a7e60: dec ebp ; retn 0xC483 ;  (1 found)
0x000a5420: dec ebp ; shr byte [ecx], 1  ; retn 0x048B ;  (1 found)
0x00167531: dec ebp ; std  ; jmp dword [eax+0x4B] ;  (1 found)
0x00167545: dec ebx ; std  ; call dword [esp+ecx*2+0x4D54FFFD] ;  (1 found)
0x00167541: dec ebx ; std  ; jmp esp ;  (1 found)
0x0016656b: dec ecx ; fdivr st0, st4 ; jmp dword [esi-0x28] ;  (1 found)
0x00084b47: dec ecx ; imul dword [ecx] ; retn 0x280F ;  (1 found)
0x0008656b: dec ecx ; imul dword [ecx] ; retn 0xC301 ;  (1 found)
0x00187840: dec ecx ; ret  ;  (1 found)
0x0005894f: dec ecx ; retn 0x8589 ;  (1 found)
0x00167471: dec ecx ; std  ; call dword [eax] ;  (1 found)
0x00199525: dec edi ; clc  ; jmp dword [edx] ;  (1 found)
0x00167639: dec edi ; std  ; call dword [edx+0x48FFFD4F] ;  (1 found)
0x0016762d: dec edi ; std  ; call dword [edx] ;  (1 found)
0x00167629: dec edi ; std  ; jmp edx ;  (1 found)
0x00134f7e: dec edx ; dec byte [ebx+0x5B082444] ; ret  ;  (1 found)
0x00135244: dec edx ; dec byte [ebx+0x5B082444] ; ret  ;  (1 found)
0x0013526a: dec edx ; dec byte [ebx+0x5B082444] ; ret  ;  (1 found)
0x00137b20: dec edx ; dec byte [ebx+0x5B082444] ; ret  ;  (1 found)
0x00137b54: dec edx ; dec byte [ebx+0x5B082444] ; ret  ;  (1 found)
0x00137b7a: dec edx ; dec byte [ebx+0x5B082444] ; ret  ;  (1 found)
0x00134f37: dec edx ; dec dword [ebx+0x5B082444] ; ret  ;  (1 found)
0x0013513f: dec edx ; dec dword [ebx+0x5B082444] ; ret  ;  (1 found)
0x00135173: dec edx ; dec dword [ebx+0x5B082444] ; ret  ;  (1 found)
0x00137847: dec edx ; dec dword [ebx+0x5B082444] ; ret  ;  (1 found)
0x00137a4f: dec edx ; dec dword [ebx+0x5B082444] ; ret  ;  (1 found)
0x00097c64: dec edx ; or al, 0x83 ; retn 0x8310 ;  (1 found)
0x00167461: dec edx ; std  ; jmp dword [edx+0x32FFFD4A] ;  (1 found)
0x00167475: dec edx ; std  ; jmp edx ;  (1 found)
0x000d9a69: dec esi ; add al, 0x01 ; retn 0x0689 ;  (1 found)
0x00196237: dec esi ; ret  ;  (1 found)
0x0006974e: dec esi ; sar bh, cl ; jmp dword [ecx] ;  (1 found)
0x00167631: dec esi ; std  ; call dword [edx+0x12FFFD4E] ;  (1 found)
0x00167625: dec esi ; std  ; call dword [edx+0x4F] ;  (1 found)
0x00167635: dec esi ; std  ; call dword [edx] ;  (1 found)
0x000e5a6b: dec esi ; xor al, 0xF6 ; retn 0x7420 ;  (1 found)
0x00126f3a: dec esp ; and al, 0x04 ; call dword [eax+0x04] ;  (1 found)
0x000c8051: dec esp ; and al, 0x08 ; call dword [ebp-0x78] ;  (1 found)
0x000c8448: dec esp ; and al, 0x08 ; call dword [ebp-0x78] ;  (1 found)
0x00076e4b: dec esp ; and al, 0x2C ; call eax ;  (1 found)
0x0016703b: dec esp ; and ch, bh ; call esi ;  (1 found)
0x00065f61: dec esp ; ret  ;  (1 found)
0x00066a56: dec esp ; ret  ;  (1 found)
0x00067e63: dec esp ; ret  ;  (1 found)
0x000e5d56: dec esp ; ret  ;  (1 found)
0x000e7636: dec esp ; ret  ;  (1 found)
0x000f6468: dec esp ; ret  ;  (1 found)
0x00116c2d: dec esp ; ret  ;  (1 found)
0x0011784e: dec esp ; ret  ;  (1 found)
0x00129c60: dec esp ; ret  ;  (1 found)
0x00167549: dec esp ; std  ; call dword [ebp+ecx*2-0x03] ;  (1 found)
0x00167559: dec esp ; std  ; jmp esp ;  (1 found)
0x0009852a: div byte [ebx+esi-0x7D] ; retn 0x8310 ;  (1 found)
0x00186c35: div dl ; call dword [eax] ;  (1 found)
0x000c6e62: enter 0x5E01, 0x5F ; pop ebp ; ret  ;  (1 found)
0x000d9820: enter 0x5E5B, 0x5F ; pop ebp ; ret  ;  (1 found)
0x000f7b52: enter 0x5E5B, 0x5F ; pop ebp ; ret  ;  (1 found)
0x000f7b71: enter 0x5F5E, 0x5D ; ret  ;  (1 found)
0x00019529: enter 0x6509, 0x33 ; add eax, 0x00000018 ; call eax ;  (1 found)
0x00024030: enter 0x6509, 0x33 ; add eax, 0x00000018 ; call eax ;  (1 found)
0x00024176: enter 0x6509, 0x33 ; add eax, 0x00000018 ; call eax ;  (1 found)
0x00024222: enter 0x6509, 0x33 ; add eax, 0x00000018 ; call eax ;  (1 found)
0x0002657d: enter 0x6509, 0x33 ; add eax, 0x00000018 ; call eax ;  (1 found)
0x00026750: enter 0x6509, 0x33 ; add eax, 0x00000018 ; call eax ;  (1 found)
0x00026828: enter 0x6509, 0x33 ; add eax, 0x00000018 ; call eax ;  (1 found)
0x00026848: enter 0x6509, 0x33 ; add eax, 0x00000018 ; call eax ;  (1 found)
0x00027435: enter 0x6509, 0x33 ; add eax, 0x00000018 ; call eax ;  (1 found)
0x00027478: enter 0x6509, 0x33 ; add eax, 0x00000018 ; call eax ;  (1 found)
0x00027f57: enter 0x6509, 0x33 ; add eax, 0x00000018 ; call eax ;  (1 found)
0x00028948: enter 0x6509, 0x33 ; add eax, 0x00000018 ; call eax ;  (1 found)
0x00028971: enter 0x6509, 0x33 ; add eax, 0x00000018 ; call eax ;  (1 found)
0x00028b7a: enter 0x6509, 0x33 ; add eax, 0x00000018 ; call eax ;  (1 found)
0x00028d33: enter 0x6509, 0x33 ; add eax, 0x00000018 ; call eax ;  (1 found)
0x00028f60: enter 0x6509, 0x33 ; add eax, 0x00000018 ; call eax ;  (1 found)
0x00029122: enter 0x6509, 0x33 ; add eax, 0x00000018 ; call eax ;  (1 found)
0x00074f6d: enter 0xC629, 0x89 ; xor al, 0x24 ; call dword [edx] ;  (1 found)
0x00145448: fadd dword [ebx+0x5B5D04C4] ; ret  ;  (1 found)
0x00188178: fcom st0, st0 ; call dword [eax+0x00] ;  (1 found)
0x00138064: fcomi st0, st7 ; retn 0x0001 ;  (1 found)
0x00189d2d: fcomip st0, st4 ; call dword [edx] ;  (1 found)
0x00149738: fcomp dword [edi+0x5E] ; pop ebx ; ret  ;  (1 found)
0x00076a54: fcos  ; call dword [eax+0x3C247439] ;  (1 found)
0x00104a38: fcos  ; call dword [eax-0x6F6F6F70] ;  (1 found)
0x00099044: fdiv st0, st0 ; call dword [eax-0x6BDB6B75] ;  (1 found)
0x0018865d: fdiv st0, st3 ; jmp dword [esi] ;  (1 found)
0x00178332: fdiv st2, st0 ; jmp dword [edx] ;  (1 found)
0x00178362: fdiv st2, st0 ; jmp dword [edx] ;  (1 found)
0x00178425: fdiv st2, st0 ; jmp dword [edx] ;  (1 found)
0x00178426: fdiv st2, st0 ; jmp dword [edx] ;  (1 found)
0x00178542: fdiv st2, st0 ; jmp dword [edx] ;  (1 found)
0x00178571: fdiv st2, st0 ; jmp dword [edx] ;  (1 found)
0x00178572: fdiv st2, st0 ; jmp dword [edx] ;  (1 found)
0x00166925: fdiv st4, st0 ; call dword [eax] ;  (1 found)
0x0016665d: fdiv st4, st0 ; call dword [ecx+ebx*8-0x263B0004] ;  (1 found)
0x0010473a: fdiv st7, st0 ; call dword [eax+0x0CEC8390] ;  (1 found)
0x0010473b: fdiv st7, st0 ; call dword [eax+0x0CEC8390] ;  (1 found)
0x0010476e: fdiv st7, st0 ; call dword [eax-0x6F6F6F70] ;  (1 found)
0x00166935: fdivp st4, st0 ; call dword [eax-0x21] ;  (1 found)
0x00166c3c: fdivp st6, st0 ; cld  ; call dword [ebp+edi*8-0x04] ;  (1 found)
0x0017804e: fdivr st0, st2 ; jmp dword [edx] ;  (1 found)
0x0017807e: fdivr st0, st2 ; jmp dword [edx] ;  (1 found)
0x00166521: fdivr st0, st4 ; call dword [ebp-0x4A000328] ;  (1 found)
0x00166341: fdivr st0, st4 ; call dword [ebx-0x2C000328] ;  (1 found)
0x00166349: fdivr st0, st4 ; call dword [ebx] ;  (1 found)
0x00166531: fdivr st0, st4 ; call dword [edx-0x4D000328] ;  (1 found)
0x00166529: fdivr st0, st4 ; call ebp ;  (1 found)
0x00166345: fdivr st0, st4 ; call ebx ;  (1 found)
0x00166539: fdivr st0, st4 ; call edx ;  (1 found)
0x0016633d: fdivr st0, st4 ; jmp dword [ebx-0x28] ;  (1 found)
0x0016657d: fdivr st0, st4 ; jmp dword [ebx-0x28] ;  (1 found)
0x0016656d: fdivr st0, st4 ; jmp dword [esi-0x28] ;  (1 found)
0x00166575: fdivr st0, st4 ; jmp dword [esi-0x39000328] ;  (1 found)
0x00185c61: fdivr st2, st0 ; jmp dword [eax+eax+0x00] ;  (1 found)
0x00184434: fdivr st5, st0 ; int1  ; call dword [ebx] ;  (1 found)
0x00185f65: fdivrp st2, st0 ; jmp dword [ecx+0x00000000] ;  (1 found)
0x00086644: fiadd dword [ebx-0x79F0EF15] ; retn 0x0015 ;  (1 found)
0x000c5b37: fild dword [eax] ; add byte [eax], al ; call dword [0x00000010] ;  (1 found)
0x000e8051: fimul dword [ebx-0x47FBDBA4] ; cmp eax, 0x65000000 ; call dword [0x00000010] ;  (1 found)
0x000c5531: fimul dword [ebx-0x47FBDBA4] ; mov al, byte [0x65000000] ; call dword [0x00000010] ;  (1 found)
0x00105133: fimul word [ecx] ; add byte [ecx-0x76D7DB8C], cl ; retn 0xEAC1 ;  (1 found)
0x000e603a: fistp qword [eax+0x00000036] ; call dword [0x00000010] ;  (1 found)
0x000e606e: fistp qword [eax+0x00000036] ; call dword [0x00000010] ;  (1 found)
0x000e6322: fistp qword [eax+0x00000036] ; call dword [0x00000010] ;  (1 found)
0x000e635d: fistp qword [eax+0x00000036] ; call dword [0x00000010] ;  (1 found)
0x000b7c65: fistp qword [eax+0x00000072] ; call dword [0x00000010] ;  (1 found)
0x000e6d71: fistp qword [eax+0x00000091] ; call dword [0x00000010] ;  (1 found)
0x000e6e31: fistp qword [eax+0x00000092] ; call dword [0x00000010] ;  (1 found)
0x000e6e73: fistp qword [eax+0x00000092] ; call dword [0x00000010] ;  (1 found)
0x000e9842: fistp qword [eax+0x000000C1] ; call dword [0x00000010] ;  (1 found)
0x000b955d: fistp qword [eax+0x000000D2] ; call dword [0x00000010] ;  (1 found)
0x000e7b61: fistp qword [eax+0x000000D2] ; call dword [0x00000010] ;  (1 found)
0x000b9462: fistp qword [eax+0x000000D3] ; call dword [0x00000010] ;  (1 found)
0x000c5b35: fistp qword [eax+0x000000DB] ; call dword [0x00000010] ;  (1 found)
0x000c572c: fistp qword [eax+0x000000F2] ; call dword [0x00000010] ;  (1 found)
0x000e9756: fistp qword [eax+0x0000012B] ; call dword [0x00000010] ;  (1 found)
0x0005556a: fistp qword [eax+0x0000012E] ; call dword [0x00000010] ;  (1 found)
0x000b4671: fisttp dword [ebx-0x0000F77D] ; jmp dword [ebp-0x39] ;  (1 found)
0x0009862c: fisttp qword [ebx-0x0001577D] ; jmp dword [ebp-0x75] ;  (1 found)
0x00167128: fisubr dword [0xFD2D2AFF+edi*8] ; jmp dword [esp+ebp] ;  (1 found)
0x000d436c: fldcw word [ebx] ; mov word [ebx-0x000CEC7C], ss ; jmp ecx ;  (1 found)
0x0018892d: fldenv  [eax-0x0C] ; jmp dword [edx] ;  (1 found)
0x0009567b: fldenv  [esi+0x0F] ; xlatb  ; ret  ;  (1 found)
0x00095b71: fldenv  [esi+0x0F] ; xlatb  ; ret  ;  (1 found)
0x0014817a: fldenv  [esi+0x0F] ; xlatb  ; ret  ;  (1 found)
0x000a7572: fldpi  ; ret  ;  (1 found)
0x00177b66: fldz  ; jmp dword [edx] ;  (1 found)
0x00177c22: fldz  ; jmp dword [edx] ;  (1 found)
0x00149e4c: fmul dword [ebp+0x0F664049] ; xlatb  ; ret  ;  (1 found)
0x000b4e7e: fmul dword [ecx+0x5489240C] ; and al, 0x04 ; call dword [ebp-0x34] ;  (1 found)
0x00105338: fmul qword [ecx] ; add byte [ebx-0x0000FF7F], cl ; jmp dword [ebp+0x03] ;  (1 found)
0x00185b65: fptan  ; jmp dword [ecx+eax+0x00] ;  (1 found)
0x00166729: frndint  ; call dword [0x45FFFCDA] ;  (1 found)
0x00166769: frndint  ; call dword [eax] ;  (1 found)
0x0016634d: frndint  ; call dword [ebx-0x27] ;  (1 found)
0x00166351: frndint  ; call dword [ebx-0x2C000327] ;  (1 found)
0x00166359: frndint  ; call dword [ebx] ;  (1 found)
0x00166355: frndint  ; call ebx ;  (1 found)
0x00166669: frndint  ; jmp dword [edx+ebx*8] ;  (1 found)
0x00166765: frndint  ; jmp eax ;  (1 found)
0x00166725: frndint  ; jmp ebp ;  (1 found)
0x0017816a: fsqrt  ; jmp dword [edx] ;  (1 found)
0x00108733: fstcw word [ecx-0x01] ; dec dword [ebx-0x0000F76D] ; jmp dword [ebp-0x75] ;  (1 found)
0x00144357: fsub st1, st0 ; ret  ;  (1 found)
0x00144a47: fsub st1, st0 ; ret  ;  (1 found)
0x00145137: fsub st1, st0 ; ret  ;  (1 found)
0x0017813a: fsubp st6, st0 ; jmp dword [edx] ;  (1 found)
0x00168e71: fsubp st7, st0 ; call dword [eax-0x17] ;  (1 found)
0x00168e69: fsubp st7, st0 ; jmp dword [eax-0x18] ;  (1 found)
0x000b9d69: fsubr dword [ebx] ; test byte [ebx-0x000E9280], dh ; jmp eax ;  (1 found)
0x00174645: fsubr st0, st4 ; jmp dword [edi] ;  (1 found)
0x00177b36: fsubr st0, st6 ; jmp dword [edx] ;  (1 found)
0x00168e31: fucomi st0, st7 ; call eax ;  (1 found)
0x00168e29: fucomi st0, st7 ; jmp eax ;  (1 found)
0x00168c21: fucomip st0, st6 ; call esp ;  (1 found)
0x00168c39: fucomip st0, st6 ; jmp dword [eax] ;  (1 found)
0x00168e51: fucomp st7 ; call dword [eax-0x6AFFFF18] ;  (1 found)
0x00168e49: fucomp st7 ; jmp dword [eax+0x140000E7] ;  (1 found)
0x00148732: haddps xmm1,  [ebx] ; lea eax, dword [ecx+0x0F] ; ret  ;  (1 found)
0x00168048: hlt  ; adc ch, ah ; call dword [edi+edx*4] ;  (1 found)
0x00188c7a: hlt  ; call dword [0x00000000] ;  (1 found)
0x000e5856: hlt  ; call dword [eax+0x0026B48D] ;  (1 found)
0x00129566: hlt  ; call dword [eax+0x0026B48D] ;  (1 found)
0x00186939: hlt  ; call dword [eax] ;  (1 found)
0x00186969: hlt  ; call dword [eax] ;  (1 found)
0x00188542: hlt  ; call dword [eax] ;  (1 found)
0x0018887e: hlt  ; call dword [eax] ;  (1 found)
0x00189c22: hlt  ; call dword [edx] ;  (1 found)
0x00189d2e: hlt  ; call dword [edx] ;  (1 found)
0x00188a6e: hlt  ; call eax ;  (1 found)
0x00166668: hlt  ; frndint  ; jmp dword [edx+ebx*8] ;  (1 found)
0x00188b2e: hlt  ; jmp dword [ebx+0x00] ;  (1 found)
0x00189422: hlt  ; jmp dword [ebx+0x01] ;  (1 found)
0x00188d32: hlt  ; jmp dword [edi+0x00000000] ;  (1 found)
0x00189a5a: hlt  ; jmp dword [edi] ;  (1 found)
0x0018892f: hlt  ; jmp dword [edx] ;  (1 found)
0x00189f5a: hlt  ; jmp dword [esi+0x00] ;  (1 found)
0x00188f52: hlt  ; jmp dword [esi] ;  (1 found)
0x0014785a: hlt  ; pop edi ; ret  ;  (1 found)
0x00149c22: hlt  ; pop edi ; ret  ;  (1 found)
0x00188a6c: hlt  ; sbb esp, esi ; call eax ;  (1 found)
0x00169c68: hlt  ; sub al, 0xF1 ; jmp esp ;  (1 found)
0x0009756b: idiv al ; jmp dword [esi-0x70] ;  (1 found)
0x000a6f78: idiv bh ; call dword [eax+0x0026748D] ;  (1 found)
0x0011753e: idiv bh ; call dword [eax-0x6F6F6F70] ;  (1 found)
0x00088356: idiv bh ; jmp dword [esi+0x0F] ;  (1 found)
0x000d6d64: idiv bh ; jmp dword [esi-0x39] ;  (1 found)
0x0016744c: idiv byte [0xFD3C00FF+edi*8] ; call dword [eax+0x3C] ;  (1 found)
0x00129a4b: idiv byte [eax+0x00000004] ; add esp, 0x0C ; ret  ;  (1 found)
0x000f7a61: idiv byte [ecx] ; retn 0x1E7E ;  (1 found)
0x000c9f44: idiv edi ; call dword [eax-0x762FBA75] ;  (1 found)
0x00119a47: idiv edi ; jmp esi ;  (1 found)
0x00195b56: idiv edi ; ret  ;  (1 found)
0x00167f49: imul bl ; jmp dword [edx+edx*4-0x09DC0000] ;  (1 found)
0x00167f60: imul bl ; jmp eax ;  (1 found)
0x00167f61: imul bl ; jmp eax ;  (1 found)
0x00084b48: imul dword [ecx] ; retn 0x280F ;  (1 found)
0x0008656c: imul dword [ecx] ; retn 0xC301 ;  (1 found)
0x00184741: imul eax, dword [ecx], 0x0A ; ret  ;  (1 found)
0x00185b61: imul eax, dword [ecx], 0xF2D96C00 ; jmp dword [ecx+eax+0x00] ;  (1 found)
0x00195d41: imul eax, dword [edx], 0x00 ; mov word [edi-0x09], es ; jmp dword [esi] ;  (1 found)
0x000a7b43: imul eax, edx ; ret  ;  (1 found)
0x00174f55: imul ebp ; jmp dword [ebx] ;  (1 found)
0x0017804d: imul ebx, eax, 0xFA ; jmp dword [edx] ;  (1 found)
0x000b9331: imul edi, edi, 0xFF ; call dword [eax-0x6F6F6F70] ;  (1 found)
0x00177575: imul edx, ecx, 0xEE ; jmp dword [edx] ;  (1 found)
0x00148229: in al, 0x0F ; test dword [eax-0x77FFFFFF], esi ; retn 0xE280 ;  (1 found)
0x00148354: in al, 0x0F ; test dword [ebp-0x78000000], eax ; retn 0xE280 ;  (1 found)
0x00169240: in al, 0x1B ; jmp dword [esi+edi*8+0x1C040000] ;  (1 found)
0x00169320: in al, 0x25 ; call dword [eax+0x03] ;  (1 found)
0x0017496c: in al, 0x30 ; in eax, dx ; call dword [ebx+0x01] ;  (1 found)
0x00167544: in al, 0x4B ; std  ; call dword [esp+ecx*2+0x4D54FFFD] ;  (1 found)
0x00168828: in al, 0x6C ; in eax, dx ; jmp dword [eax-0x3F] ;  (1 found)
0x00169948: in al, 0xB3 ; jmp eax ;  (1 found)
0x00169950: in al, 0xB5 ; jmp dword [eax] ;  (1 found)
0x00166164: in al, 0xD3 ; cld  ; call dword [esp+edx*8] ;  (1 found)
0x0016667c: in al, 0xDA ; cld  ; call dword [ebx+ebx*8] ;  (1 found)
0x00167e29: in al, 0xEB ; call dword [eax+0x5400008E] ;  (1 found)
0x0016814a: in al, dx ; call dword [eax+0x5400009D] ;  (1 found)
0x00168259: in al, dx ; call dword [eax-0x2BFFFF5F] ;  (1 found)
0x0016825a: in al, dx ; call dword [eax-0x2BFFFF5F] ;  (1 found)
0x0016806a: in al, dx ; call dword [eax-0x68] ;  (1 found)
0x00168172: in al, dx ; call dword [eax] ;  (1 found)
0x0016835a: in al, dx ; call dword [eax] ;  (1 found)
0x0016852a: in al, dx ; call dword [eax] ;  (1 found)
0x00174346: in al, dx ; call dword [eax] ;  (1 found)
0x0016804a: in al, dx ; call dword [edi+edx*4] ;  (1 found)
0x0016827a: in al, dx ; call dword [edx] ;  (1 found)
0x0016815a: in al, dx ; call eax ;  (1 found)
0x0016846a: in al, dx ; call eax ;  (1 found)
0x0016854a: in al, dx ; call eax ;  (1 found)
0x00166979: in al, dx ; cld  ; call dword [edx] ;  (1 found)
0x00166969: in al, dx ; cld  ; jmp dword [edx-0x13] ;  (1 found)
0x00168542: in al, dx ; jmp dword [eax+0x640000B0] ;  (1 found)
0x00168372: in al, dx ; jmp dword [eax-0x5A] ;  (1 found)
0x0016807a: in al, dx ; jmp dword [eax] ;  (1 found)
0x0016855a: in al, dx ; jmp dword [eax] ;  (1 found)
0x00168152: in al, dx ; jmp dword [ebp+ebx*4+0x59D40000] ;  (1 found)
0x00174646: in al, dx ; jmp dword [edi] ;  (1 found)
0x00174337: in al, dx ; jmp dword [edx] ;  (1 found)
0x00174367: in al, dx ; jmp dword [edx] ;  (1 found)
0x0017477f: in al, dx ; jmp dword [edx] ;  (1 found)
0x0016817a: in al, dx ; jmp dword [esi+ebx*4] ;  (1 found)
0x00168362: in al, dx ; jmp dword [esi] ;  (1 found)
0x00168442: in al, dx ; jmp eax ;  (1 found)
0x00168522: in al, dx ; jmp eax ;  (1 found)
0x000b9051: in al, dx ; mov eax, 0x00000014 ; call dword [0x00000010] ;  (1 found)
0x000e8c20: in al, dx ; pop ebp ; ret  ;  (1 found)
0x00185367: in al, dx ; retn 0xFFF1 ;  (1 found)
0x00035a5d: in al, dx ; sbb byte [ebx-0x0001577D], cl ; jmp dword [ebp-0x75] ;  (1 found)
0x00035b5d: in al, dx ; sbb byte [ebx-0x0001577D], cl ; jmp dword [ebp-0x75] ;  (1 found)
0x00099c4d: in al, dx ; sbb byte [ebx-0x0001577D], cl ; jmp dword [ebp-0x75] ;  (1 found)
0x00099d4d: in al, dx ; sbb byte [ebx-0x0001577D], cl ; jmp dword [ebp-0x75] ;  (1 found)
0x0003404d: in al, dx ; sub byte [ebx-0x0001577D], cl ; jmp dword [ebp-0x75] ;  (1 found)
0x00099a6d: in al, dx ; sub byte [ebx-0x0001577D], cl ; jmp dword [ebp-0x75] ;  (1 found)
0x00099b5d: in al, dx ; sub byte [ebx-0x0001577D], cl ; jmp dword [ebp-0x75] ;  (1 found)
0x00194555: in al, dx ; xor al, 0xF6 ; jmp dword [edx] ;  (1 found)
0x00198c34: in al, dx ; xor bh, al ; jmp dword [eax+eax+0x00] ;  (1 found)
0x0017477d: in eax, 0xB6 ; in al, dx ; jmp dword [edx] ;  (1 found)
0x0018536d: in eax, 0xBF ; int1  ; jmp dword [edx] ;  (1 found)
0x0016624c: in eax, 0xD5 ; cld  ; jmp dword [0x65FFFCD6] ;  (1 found)
0x0016625c: in eax, 0xD6 ; cld  ; jmp dword [eax-0x2F00032D] ;  (1 found)
0x00166728: in eax, 0xD9 ; cld  ; call dword [0x45FFFCDA] ;  (1 found)
0x0016885a: in eax, dx ; call dword [eax] ;  (1 found)
0x00174a7e: in eax, dx ; call dword [eax] ;  (1 found)
0x0017496e: in eax, dx ; call dword [ebx+0x01] ;  (1 found)
0x0016887a: in eax, dx ; call eax ;  (1 found)
0x00175122: in eax, dx ; jmp dword [eax+0x01] ;  (1 found)
0x00168832: in eax, dx ; jmp dword [eax+0x740000C1] ;  (1 found)
0x00168872: in eax, dx ; jmp dword [eax-0x1EFFFF3E] ;  (1 found)
0x0016883a: in eax, dx ; jmp dword [eax-0x3D] ;  (1 found)
0x0016882a: in eax, dx ; jmp dword [eax-0x3F] ;  (1 found)
0x00168822: in eax, dx ; jmp dword [eax] ;  (1 found)
0x0016897a: in eax, dx ; jmp dword [eax] ;  (1 found)
0x00168842: in eax, dx ; jmp dword [ebx+eax*8+0x74040000] ;  (1 found)
0x00174f56: in eax, dx ; jmp dword [ebx] ;  (1 found)
0x00174d33: in eax, dx ; jmp dword [edx] ;  (1 found)
0x00174d63: in eax, dx ; jmp dword [edx] ;  (1 found)
0x0017527f: in eax, dx ; jmp dword [edx] ;  (1 found)
0x0017534b: in eax, dx ; jmp dword [edx] ;  (1 found)
0x0017537b: in eax, dx ; jmp dword [edx] ;  (1 found)
0x0017543b: in eax, dx ; jmp dword [edx] ;  (1 found)
0x0017546b: in eax, dx ; jmp dword [edx] ;  (1 found)
0x0017552b: in eax, dx ; jmp dword [edx] ;  (1 found)
0x00168852: in eax, dx ; jmp eax ;  (1 found)
0x0007926f: in eax, dx ; retn 0xFFFF ;  (1 found)
0x00169245: inc byte [eax] ; add byte [esp+ebx], al ; call dword [edi+edi*8+0x00] ;  (1 found)
0x00166227: inc dword [0x35FFFCD4] ; aam 0xFC ; jmp dword [ebp-0x2C] ;  (1 found)
0x00166e2f: inc dword [eax+0x02] ; std  ; call eax ;  (1 found)
0x00169c53: inc dword [eax+0x4400014D] ; sub al, 0xF1 ; jmp dword [ebp+ecx*2+0x2C540001] ;  (1 found)
0x0016684b: inc dword [eax+0x70FFFCE8] ; out 0xFC, al ; call dword [eax] ;  (1 found)
0x00049e51: inc dword [eax-0x0000B443] ; jmp dword [edi+0x0F] ;  (1 found)
0x00045e64: inc dword [eax-0x00050743] ; jmp dword [eax] ;  (1 found)
0x00044043: inc dword [eax-0x00053F43] ; jmp dword [eax] ;  (1 found)
0x00166c7f: inc dword [eax-0x03] ; cld  ; call eax ;  (1 found)
0x00166953: inc dword [eax-0x1D] ; cld  ; call eax ;  (1 found)
0x0016675f: inc dword [eax-0x4F000327] ; frndint  ; jmp eax ;  (1 found)
0x00167977: inc dword [eax-0x6D] ; cld  ; call eax ;  (1 found)
0x0016744f: inc dword [eax] ; cmp al, 0xFD ; call dword [eax+0x3C] ;  (1 found)
0x00167357: inc dword [eax] ; cmp edi, ebp ; call dword [eax+0x3B] ;  (1 found)
0x00166d47: inc dword [eax] ; or al, 0xFD ; call dword [eax-0x7F0002F4] ;  (1 found)
0x0010505f: inc dword [eax] ; ret  ;  (1 found)
0x000d8741: inc dword [ebp+0x74C289C0] ; ret  ;  (1 found)
0x000f7324: inc dword [ebx+0x5E5B10C4] ; pop edi ; ret  ;  (1 found)
0x00167553: inc dword [ebx+ecx*2+0x4C34FFFD] ; std  ; jmp esp ;  (1 found)
0x0001896c: inc dword [ebx-0x0000B77B] ; jmp dword [eax] ;  (1 found)
0x0011975d: inc dword [ebx] ; xchg eax, esp ; ret  ;  (1 found)
0x00055c41: inc dword [ecx+0x0000C4C4] ; add byte [ebx+0x5E], bl ; ret  ;  (1 found)
0x0002576d: inc dword [edi+0x0006B8CB] ; add byte [eax], al ; call dword [0x00000010] ;  (1 found)
0x00025865: inc dword [edi+0x0006B8CB] ; add byte [eax], al ; call dword [0x00000010] ;  (1 found)
0x00166e6f: inc dword [edx+0x02FFFD0F] ; adc ch, bh ; call dword [edx+0x22FFFD10] ;  (1 found)
0x00166673: inc dword [edx+ebx*8-0x254B0004] ; cld  ; jmp esp ;  (1 found)
0x00166e73: inc dword [edx] ; adc ch, bh ; call dword [edx+0x22FFFD10] ;  (1 found)
0x00166e5f: inc dword [esi+0x08FFFD0F] ; adc ch, bh ; jmp edx ;  (1 found)
0x00169973: inc dword [esi+ebp-0x489BFFFF] ; push dword [esi+ebp-0x485BFFFF] ; call esp ;  (1 found)
0x0016923b: inc dword [esi+edi*8+0x1BE40000] ; jmp dword [esi+edi*8+0x1C040000] ;  (1 found)
0x0016743f: inc dword [esi] ; cmp al, 0xFD ; call dword [esi+0x3C] ;  (1 found)
0x00167347: inc dword [esi] ; cmp edi, ebp ; call dword [esi+0x3B] ;  (1 found)
0x0016717f: inc dword [esi] ; sub al, 0xFD ; jmp dword [esi+0x2C] ;  (1 found)
0x00167133: inc dword [esp+ebp+0x2CD4FFFD] ; std  ; jmp dword [0x2C1EFFFD+ebp] ;  (1 found)
0x0016616b: inc dword [esp+edx*8-0x04] ; push dword [esp+edx*8-0x04] ; jmp dword [esp+edx*8-0x2B2B0004] ;  (1 found)
0x00166e30: inc eax ; add bh, ch ; call eax ;  (1 found)
0x00027141: inc eax ; add byte [eax], al ; ret  ;  (1 found)
0x0019907f: inc eax ; add dl, byte [esi+ecx+0x100E4114] ; ret  ;  (1 found)
0x00019e45: inc eax ; add esp, 0x44 ; ret  ;  (1 found)
0x000f7234: inc eax ; cmove eax, edx ; ret  ;  (1 found)
0x00068127: inc eax ; cmp byte [ebp-0x0CFC8740], al ; ret  ;  (1 found)
0x00166933: inc eax ; fdivp st4, st0 ; call dword [eax-0x21] ;  (1 found)
0x00135058: inc eax ; jmp dword [esi-0x77] ;  (1 found)
0x0013534a: inc eax ; jmp dword [esi-0x77] ;  (1 found)
0x00136744: inc eax ; jmp dword [esi-0x77] ;  (1 found)
0x0013677a: inc eax ; jmp dword [esi-0x77] ;  (1 found)
0x00137968: inc eax ; jmp dword [esi-0x77] ;  (1 found)
0x00137c24: inc eax ; jmp dword [esi-0x77] ;  (1 found)
0x00137c5a: inc eax ; jmp dword [esi-0x77] ;  (1 found)
0x00138e58: inc eax ; jmp dword [esi-0x77] ;  (1 found)
0x00139e28: inc eax ; jmp dword [esi-0x77] ;  (1 found)
0x00079b61: inc eax ; mov dword [esp+0x04], edx ; call eax ;  (1 found)
0x00149076: inc eax ; or al, 0x5F ; ret  ;  (1 found)
0x00129935: inc eax ; pop esp ; ret  ;  (1 found)
0x00129925: inc eax ; push eax ; ret  ;  (1 found) USING
0x000e6263: inc eax ; ret  ;  (1 found)
0x00168864: inc eax ; retn 0x0000 ;  (1 found)
0x000c9641: inc eax ; sbb al, 0x83 ; retn 0x8501 ;  (1 found)
0x00169942: inc eax ; sub eax, 0xB3E40001 ; jmp eax ;  (1 found)
0x00169943: inc eax ; sub eax, 0xB3E40001 ; jmp eax ;  (1 found)
0x00194c30: inc eax ; sub edi, esi ; call dword [ecx+0x00000000] ;  (1 found)
0x0016736f: inc eax ; xor bh, ch ; call dword [eax+0x33] ;  (1 found)
0x000f7a5c: inc ebp ; adc al, 0x39 ; retn 0xF67C ;  (1 found)
0x00018068: inc ebp ; adc al, 0x83 ; retn 0x0108 ;  (1 found)
0x00174d32: inc ebp ; in eax, dx ; jmp dword [edx] ;  (1 found)
0x00174d62: inc ebp ; in eax, dx ; jmp dword [edx] ;  (1 found)
0x00049358: inc ebp ; mov ah, 0xE9 ; ret  ;  (1 found)
0x00048a64: inc ebp ; mov esp, 0x8904C683 ; retn 0xFAC1 ;  (1 found)
0x00174234: inc ebp ; or esi, dword [esi+0x0A] ; ret  ;  (1 found)
0x00097b72: inc ebp ; retn 0x748D ;  (1 found)
0x00059879: inc ebp ; retn 0x8589 ;  (1 found)
0x000b9946: inc ebp ; retn 0x8DC3 ;  (1 found)
0x000a7927: inc ebp ; retn 0xA5EB ;  (1 found)
0x0004662b: inc ebp ; retn 0xBD89 ;  (1 found)
0x00166027: inc ebp ; sar esp, 1  ; jmp ebp ;  (1 found)
0x00177755: inc ebp ; shr dh, cl ; jmp dword [edx] ;  (1 found)
0x00174420: inc ebx ; ret  ;  (1 found)
0x00174444: inc ebx ; ret  ;  (1 found)
0x00174740: inc ebx ; ret  ;  (1 found)
0x00174c73: inc ebx ; ret  ;  (1 found)
0x0017735f: inc ebx ; ret  ;  (1 found)
0x00186c72: inc ebx ; ret  ;  (1 found)
0x00187b6b: inc ebx ; ret  ;  (1 found)
0x00189b74: inc ebx ; ret  ;  (1 found)
0x00194359: inc ebx ; ret  ;  (1 found)
0x00195d2a: inc ebx ; ret  ;  (1 found)
0x00196457: inc ebx ; ret  ;  (1 found)
0x0019646f: inc ebx ; ret  ;  (1 found)
0x00198065: inc ebx ; ret  ;  (1 found)
0x0019807c: inc ebx ; ret  ;  (1 found)
0x00199450: inc ebx ; ret  ;  (1 found)
0x00087c53: inc ecx ; jmp dword [esi+0x0F] ;  (1 found)
0x000f7a74: inc ecx ; or al, 0x39 ; retn 0x1474 ;  (1 found)
0x00184566: inc ecx ; or ebp, dword [esi+0x0A] ; ret  ;  (1 found)
0x00199759: inc ecx ; or ebx, dword [eax+0x0A] ; ret  ;  (1 found)
0x00188331: inc ecx ; or edx, dword [esi+0x0A] ; ret  ;  (1 found)
0x00148726: inc ecx ; push cs ; ret  ;  (1 found)
0x00148471: inc ecx ; push es ; ret  ;  (1 found)
0x00175a26: inc ecx ; ret  ;  (1 found)
0x00176724: inc ecx ; ret  ;  (1 found)
0x00178873: inc ecx ; ret  ;  (1 found)
0x00178d4e: inc ecx ; ret  ;  (1 found)
0x00179f49: inc ecx ; ret  ;  (1 found)
0x00184073: inc ecx ; ret  ;  (1 found)
0x00184231: inc ecx ; ret  ;  (1 found)
0x0018446e: inc ecx ; ret  ;  (1 found)
0x00185723: inc ecx ; ret  ;  (1 found)
0x00187341: inc ecx ; ret  ;  (1 found)
0x00188754: inc ecx ; ret  ;  (1 found)
0x00188c63: inc ecx ; ret  ;  (1 found)
0x00189137: inc ecx ; ret  ;  (1 found)
0x0018963b: inc ecx ; ret  ;  (1 found)
0x0018984e: inc ecx ; ret  ;  (1 found)
0x0018995f: inc ecx ; ret  ;  (1 found)
0x00189976: inc ecx ; ret  ;  (1 found)
0x00194a58: inc ecx ; ret  ;  (1 found)
0x00195863: inc ecx ; ret  ;  (1 found)
0x00196e6b: inc ecx ; ret  ;  (1 found)
0x00197d4e: inc ecx ; ret  ;  (1 found)
0x00197e3d: inc ecx ; ret  ;  (1 found)
0x0019855a: inc ecx ; ret  ;  (1 found)
0x00199045: inc ecx ; ret  ;  (1 found)
0x00147441: inc edi ; add al, 0x5F ; ret  ;  (1 found)
0x00147e61: inc edi ; add al, 0x5F ; ret  ;  (1 found)
0x000d6469: inc edi ; and byte [ebx-0x0001577D], cl ; jmp dword [ebp-0x75] ;  (1 found)
0x00148056: inc edi ; or al, 0x5F ; ret  ;  (1 found)
0x000d6963: inc edi ; or byte [ecx], bh ; retn 0xD772 ;  (1 found)
0x00147834: inc edi ; pop edi ; ret  ;  (1 found)
0x00149b6e: inc edi ; pop edi ; ret  ;  (1 found)
0x00178b77: inc edi ; ret  ;  (1 found)
0x00196e74: inc edi ; ret  ;  (1 found)
0x00089a4b: inc edx ; add al, 0x5F ; ret  ;  (1 found)
0x00187f3c: inc edx ; add dword [0x5D030486], 0x06 ; ret  ;  (1 found)
0x00186530: inc edx ; add dword [0x7C020486], 0x0A ; ret  ;  (1 found)
0x00038a61: inc edx ; add dword [ecx], edi ; retn 0x0689 ;  (1 found)
0x00095d34: inc edx ; add esi, dword [eax+edx-0x7D] ; retn 0x3904 ;  (1 found)
0x0018534d: inc edx ; call dword [eax] ;  (1 found)
0x0018537d: inc edx ; call dword [eax] ;  (1 found)
0x0018543d: inc edx ; call dword [eax] ;  (1 found)
0x00167323: inc edx ; cmp bh, ch ; call dword [edx] ;  (1 found)
0x0013505f: inc edx ; dec dword [ebx+0x5B082444] ; ret  ;  (1 found)
0x00135351: inc edx ; dec dword [ebx+0x5B082444] ; ret  ;  (1 found)
0x00137925: inc edx ; dec dword [ebx+0x5B082444] ; ret  ;  (1 found)
0x0013796f: inc edx ; dec dword [ebx+0x5B082444] ; ret  ;  (1 found)
0x00137c2b: inc edx ; dec dword [ebx+0x5B082444] ; ret  ;  (1 found)
0x00137c61: inc edx ; dec dword [ebx+0x5B082444] ; ret  ;  (1 found)
0x00138e5f: inc edx ; dec dword [ebx+0x5B082444] ; ret  ;  (1 found)
0x00178331: inc edx ; fdiv st2, st0 ; jmp dword [edx] ;  (1 found)
0x0015912f: inc edx ; jmp dword [edx-0x71] ;  (1 found)
0x0017422c: inc edx ; or esi, dword [ebx+0x0A] ; ret  ;  (1 found)
0x00148a29: inc edx ; pop es ; ret  ;  (1 found)
0x00148b31: inc edx ; push cs ; ret  ;  (1 found)
0x00064130: inc edx ; retn 0x4589 ;  (1 found)
0x00166037: inc edx ; sar esp, 1  ; jmp edx ;  (1 found)
0x00177665: inc edx ; shr dh, cl ; jmp dword [edx] ;  (1 found)
0x000a7b22: inc edx ; str word [ebx-0x76DFDBA4] ; retn 0x7C8B ;  (1 found)
0x00167167: inc edx ; sub al, 0xFD ; call dword [edx] ;  (1 found)
0x000e4d7a: inc edx ; xor eax, eax ; ret  ;  (1 found)
0x0016704b: inc esi ; and ch, bh ; call eax ;  (1 found)
0x0016657b: inc esi ; fdivr st0, st4 ; jmp dword [ebx-0x28] ;  (1 found)
0x00109176: inc esi ; int 0x80 ;  (1 found)
0x00069573: inc esi ; or al, 0x89 ; retn 0x562B ;  (1 found)
0x0006952c: inc esi ; or byte [ecx+0x29CD29D5], cl ; retn 0x0E75 ;  (1 found)
0x0017416f: inc esi ; ret  ;  (1 found)
0x0014572b: inc esi ; retn 0x5D5E ;  (1 found)
0x000e802d: inc esi ; sbb eax, 0xC1810004 ; ret  ;  (1 found)
0x0010994c: inc esi ; sub byte [ecx-0x76CFDBBC], cl ; retn 0x448D ;  (1 found)
0x00095c74: inc esp ; adc al, dh ; ret  ;  (1 found)
0x000b9b71: inc esp ; add bh, bh ; ret  ;  (1 found)
0x00095c6b: inc esp ; add dh, byte [eax] ; ret  ;  (1 found)
0x0009587b: inc esp ; add dword [eax], edx ; ret  ;  (1 found)
0x00119f29: inc esp ; and al, 0x04 ; call dword [esp+0x00000090] ;  (1 found)
0x00107e26: inc esp ; and al, 0x04 ; call dword [esp+0x3C] ;  (1 found)
0x00106172: inc esp ; and al, 0x08 ; call dword [esp+0x48] ;  (1 found)
0x00199325: inc esp ; clc  ; jmp dword [eax] ;  (1 found)
0x0019933d: inc esp ; clc  ; jmp dword [edi] ;  (1 found)
0x00095844: inc esp ; or byte [eax], ah ; ret  ;  (1 found)
0x00095854: inc esp ; or byte [eax], dh ; ret  ;  (1 found)
0x00095834: inc esp ; or byte [eax], dl ; ret  ;  (1 found)
0x00175836: inc esp ; or ebx, dword [edx+0x0A] ; ret  ;  (1 found)
0x00196a35: inc esp ; or edx, dword [ecx+0x0A] ; ret  ;  (1 found)
0x00169668: inc esp ; outsd  ; call dword [edx+ebx+0x71340001] ;  (1 found)
0x00019e48: inc esp ; ret  ;  (1 found)
0x00174041: inc esp ; ret  ;  (1 found)
0x00098963: inc esp ; retn 0x4489 ;  (1 found)
0x000f4341: inc esp ; retn 0x4489 ;  (1 found)
0x0004972c: inc esp ; retn 0x4589 ;  (1 found)
0x000f976b: inc esp ; retn 0x568D ;  (1 found)
0x00124247: inc esp ; retn 0x8965 ;  (1 found)
0x000f7236: inc esp ; retn 0x8DC3 ;  (1 found)
0x0009682d: inc esp ; retn 0xC483 ;  (1 found)
0x000c5c6d: inc esp ; retn 0xC483 ;  (1 found)
0x00169c58: inc esp ; sub al, 0xF1 ; jmp dword [ebp+ecx*2+0x2C540001] ;  (1 found)
0x0017892c: inc esp ; sub ch, bh ; jmp dword [ebx] ;  (1 found)
0x0019535c: inc esp ; xor dh, bh ; call ebx ;  (1 found)
0x00185b64: insb  ; fptan  ; jmp dword [ecx+eax+0x00] ;  (1 found)
0x000c9f43: insb  ; idiv edi ; call dword [eax-0x762FBA75] ;  (1 found)
0x00168829: insb  ; in eax, dx ; jmp dword [eax-0x3F] ;  (1 found)
0x00168821: insb  ; in eax, dx ; jmp dword [eax] ;  (1 found)
0x00169631: insb  ; jmp dword [eax] ;  (1 found)
0x0006634d: insb  ; ret  ;  (1 found)
0x00117120: insb  ; ret  ;  (1 found)
0x00198754: insb  ; sbb al, bh ; call dword [0x00000001] ;  (1 found)
0x00168831: insd  ; in eax, dx ; jmp dword [eax+0x740000C1] ;  (1 found)
0x00169e48: insd  ; xor ecx, esi ; call esp ;  (1 found)
0x00069531: int 0x29 ; retn 0x0E75 ;  (1 found)
0x00169d60: int 0x2F ; int1  ; jmp dword [edx+edi+0x01] ;  (1 found)
0x00109177: int 0x80 ;  (1 found)
0x00168d21: int 0xEF ; jmp dword [eax-0x4AFFFF1F] ;  (1 found)
0x00177e75: int1  ; add dword [edx], ecx ; ret  ;  (1 found)
0x0011916d: int1  ; call dword [eax+0x0005B955] ;  (1 found)
0x00117156: int1  ; call dword [eax+0x0026B48D] ;  (1 found)
0x00169e6a: int1  ; call dword [eax+eax*2+0x31AD0001] ;  (1 found)
0x00184436: int1  ; call dword [ebx] ;  (1 found)
0x00169d2a: int1  ; call dword [ecx+edi] ;  (1 found)
0x00169e2a: int1  ; call dword [edi+edi] ;  (1 found)
0x00169d6a: int1  ; call dword [edx+edi+0x2FED0001] ;  (1 found)
0x00169c22: int1  ; call dword [esp+ecx*2+0x01] ;  (1 found)
0x00169c79: int1  ; call dword [esp+esi+0x2E360001] ;  (1 found)
0x00169c7a: int1  ; call dword [esp+esi+0x2E360001] ;  (1 found)
0x00169f52: int1  ; call eax ;  (1 found)
0x00184542: int1  ; call edi ;  (1 found)
0x00169d4a: int1  ; call esp ;  (1 found)
0x00169e4a: int1  ; call esp ;  (1 found)
0x00169f6a: int1  ; jmp dword [eax+0x24000151] ;  (1 found)
0x00169e62: int1  ; jmp dword [eax+eax*2+0x01] ;  (1 found)
0x00008852: int1  ; jmp dword [ebp+0x56] ;  (1 found)
0x00169c5a: int1  ; jmp dword [ebp+ecx*2+0x2C540001] ;  (1 found)
0x00169d42: int1  ; jmp dword [ecx+edi+0x2FA10001] ;  (1 found)
0x00169f32: int1  ; jmp dword [edi+ecx*2] ;  (1 found)
0x00169e42: int1  ; jmp dword [edi+edi+0x316D0001] ;  (1 found)
0x00169d62: int1  ; jmp dword [edx+edi+0x01] ;  (1 found)
0x00184857: int1  ; jmp dword [edx] ;  (1 found)
0x00184947: int1  ; jmp dword [edx] ;  (1 found)
0x00184977: int1  ; jmp dword [edx] ;  (1 found)
0x00184a37: int1  ; jmp dword [edx] ;  (1 found)
0x0018536f: int1  ; jmp dword [edx] ;  (1 found)
0x0018542f: int1  ; jmp dword [edx] ;  (1 found)
0x0018545f: int1  ; jmp dword [edx] ;  (1 found)
0x00169c71: int1  ; jmp dword [esp+esi+0x01] ;  (1 found)
0x00169c72: int1  ; jmp dword [esp+esi+0x01] ;  (1 found)
0x00008422: int1  ; jmp edi ;  (1 found)
0x00169c6a: int1  ; jmp esp ;  (1 found)
0x00169d22: int1  ; jmp esp ;  (1 found)
0x00169e22: int1  ; jmp esp ;  (1 found)
0x00168f41: int1  ; out dx, eax ; call dword [eax+0x330000ED] ;  (1 found)
0x000c5c36: int1  ; pop esi ; ret  ;  (1 found)
0x0016703c: int3  ; and ch, bh ; call esi ;  (1 found)
0x00194161: int3  ; sub al, 0xF6 ; jmp dword [edx] ;  (1 found)
0x00049e44: into  ; jmp dword [ebp-0x39] ;  (1 found)
0x00168d29: into  ; out dx, eax ; call dword [eax] ;  (1 found)
0x00178178: into  ; sti  ; call dword [eax] ;  (1 found)
0x00124572: jmp dword [0x00000FFF] ;  (1 found)
0x0016713b: jmp dword [0x2C1EFFFD+ebp] ;  (1 found)
0x0016955a: jmp dword [0x5C340001+edx] ;  (1 found)
0x0016955b: jmp dword [0x5C340001+edx] ;  (1 found)
0x00167737: jmp dword [0x5D74FFFD+ebx*2] ;  (1 found)
0x0016624f: jmp dword [0x65FFFCD6] ;  (1 found)
0x00167d3b: jmp dword [0x8FD40000+eax*4] ;  (1 found)
0x00186646: jmp dword [bp+si] ;  (1 found)
0x00186676: jmp dword [bp+si] ;  (1 found)
0x00186772: jmp dword [bp+si] ;  (1 found)
0x00199063: jmp dword [eax+0x00000000] ;  (1 found)
0x00175123: jmp dword [eax+0x01] ;  (1 found)
0x00166e37: jmp dword [eax+0x03] ;  (1 found)
0x00187a46: jmp dword [eax+0x03] ;  (1 found)
0x00187a47: jmp dword [eax+0x03] ;  (1 found)
0x00168e4b: jmp dword [eax+0x140000E7] ;  (1 found)
0x00169732: jmp dword [eax+0x1F] ;  (1 found)
0x00169733: jmp dword [eax+0x1F] ;  (1 found)
0x00169f6b: jmp dword [eax+0x24000151] ;  (1 found)
0x00169a4a: jmp dword [eax+0x26000126] ;  (1 found)
0x00169a4b: jmp dword [eax+0x26000126] ;  (1 found)
0x00169a6a: jmp dword [eax+0x27] ;  (1 found)
0x00169a6b: jmp dword [eax+0x27] ;  (1 found)
0x0016692b: jmp dword [eax+0x30FFFCDD] ;  (1 found)
0x00166857: jmp dword [eax+0x30FFFCE7] ;  (1 found)
0x00166e47: jmp dword [eax+0x30FFFD05] ;  (1 found)
0x00167367: jmp dword [eax+0x30FFFD31] ;  (1 found)
0x00167533: jmp dword [eax+0x4B] ;  (1 found)
0x0016796b: jmp dword [eax+0x50FFFC91] ;  (1 found)
0x00166b73: jmp dword [eax+0x50FFFCFA] ;  (1 found)
0x00169b2a: jmp dword [eax+0x54000145] ;  (1 found)
0x00169b2b: jmp dword [eax+0x54000145] ;  (1 found)
0x00168543: jmp dword [eax+0x640000B0] ;  (1 found)
0x00168833: jmp dword [eax+0x740000C1] ;  (1 found)
0x00167c53: jmp dword [eax+0x7E] ;  (1 found)
0x00169e63: jmp dword [eax+eax*2+0x01] ;  (1 found)
0x00179c63: jmp dword [eax+eax+0x00] ;  (1 found)
0x00185c62: jmp dword [eax+eax+0x00] ;  (1 found)
0x00185c63: jmp dword [eax+eax+0x00] ;  (1 found)
0x00198c37: jmp dword [eax+eax+0x00] ;  (1 found)
0x0016687f: jmp dword [eax+ebp*8] ;  (1 found)
0x00167e73: jmp dword [eax+edx*4+0x00] ;  (1 found)
0x00167077: jmp dword [eax-0x03] ;  (1 found)
0x00169063: jmp dword [eax-0x0C] ;  (1 found)
0x00167457: jmp dword [eax-0x0F0002C4] ;  (1 found)
0x00166873: jmp dword [eax-0x18] ;  (1 found)
0x00168e6b: jmp dword [eax-0x18] ;  (1 found)
0x00166843: jmp dword [eax-0x19] ;  (1 found)
0x0016695b: jmp dword [eax-0x1C] ;  (1 found)
0x00168873: jmp dword [eax-0x1EFFFF3E] ;  (1 found)
0x0016626f: jmp dword [eax-0x2C] ;  (1 found)
0x00166777: jmp dword [eax-0x2F000326] ;  (1 found)
0x0016625f: jmp dword [eax-0x2F00032D] ;  (1 found)
0x0016883b: jmp dword [eax-0x3D] ;  (1 found)
0x0016882b: jmp dword [eax-0x3F] ;  (1 found)
0x00168d23: jmp dword [eax-0x4AFFFF1F] ;  (1 found)
0x00168373: jmp dword [eax-0x5A] ;  (1 found)
0x00018972: jmp dword [eax] ;  (1 found)
0x00044049: jmp dword [eax] ;  (1 found)
0x0004432c: jmp dword [eax] ;  (1 found)
0x00045d3a: jmp dword [eax] ;  (1 found)
0x00045e6a: jmp dword [eax] ;  (1 found)
0x00046651: jmp dword [eax] ;  (1 found)
0x00047240: jmp dword [eax] ;  (1 found)
0x0004757a: jmp dword [eax] ;  (1 found)
0x000d7326: jmp dword [eax] ;  (1 found)
0x000d8c33: jmp dword [eax] ;  (1 found)
0x0016694b: jmp dword [eax] ;  (1 found)
0x00166d53: jmp dword [eax] ;  (1 found)
0x00166e27: jmp dword [eax] ;  (1 found)
0x00166f5b: jmp dword [eax] ;  (1 found)
0x00167053: jmp dword [eax] ;  (1 found)
0x00167d4b: jmp dword [eax] ;  (1 found)
0x0016807b: jmp dword [eax] ;  (1 found)
0x0016855b: jmp dword [eax] ;  (1 found)
0x00168823: jmp dword [eax] ;  (1 found)
0x0016897b: jmp dword [eax] ;  (1 found)
0x00168c3b: jmp dword [eax] ;  (1 found)
0x00168f33: jmp dword [eax] ;  (1 found)
0x00169172: jmp dword [eax] ;  (1 found)
0x00169173: jmp dword [eax] ;  (1 found)
0x0016945a: jmp dword [eax] ;  (1 found)
0x0016945b: jmp dword [eax] ;  (1 found)
0x0016952a: jmp dword [eax] ;  (1 found)
0x0016952b: jmp dword [eax] ;  (1 found)
0x00169632: jmp dword [eax] ;  (1 found)
0x00169633: jmp dword [eax] ;  (1 found)
0x0016975a: jmp dword [eax] ;  (1 found)
0x0016975b: jmp dword [eax] ;  (1 found)
0x00169952: jmp dword [eax] ;  (1 found)
0x00169953: jmp dword [eax] ;  (1 found)
0x00177627: jmp dword [eax] ;  (1 found)
0x0017826f: jmp dword [eax] ;  (1 found)
0x0018472a: jmp dword [eax] ;  (1 found)
0x0018472b: jmp dword [eax] ;  (1 found)
0x0018806e: jmp dword [eax] ;  (1 found)
0x0018806f: jmp dword [eax] ;  (1 found)
0x0019606f: jmp dword [eax] ;  (1 found)
0x00197e6f: jmp dword [eax] ;  (1 found)
0x00198e6f: jmp dword [eax] ;  (1 found)
0x00199137: jmp dword [eax] ;  (1 found)
0x00199327: jmp dword [eax] ;  (1 found)
0x0019665f: jmp dword [ebp+0x00000000] ;  (1 found)
0x00019b60: jmp dword [ebp+0x03] ;  (1 found)
0x00027230: jmp dword [ebp+0x03] ;  (1 found)
0x00027250: jmp dword [ebp+0x03] ;  (1 found)
0x00027270: jmp dword [ebp+0x03] ;  (1 found)
0x000b4e32: jmp dword [ebp+0x03] ;  (1 found)
0x000b515a: jmp dword [ebp+0x03] ;  (1 found)
0x000b7a46: jmp dword [ebp+0x03] ;  (1 found)
0x000f6475: jmp dword [ebp+0x03] ;  (1 found)
0x00105340: jmp dword [ebp+0x03] ;  (1 found)
0x00109f63: jmp dword [ebp+0x03] ;  (1 found)
0x0018526e: jmp dword [ebp+0x05] ;  (1 found)
0x0018526f: jmp dword [ebp+0x05] ;  (1 found)
0x000b606c: jmp dword [ebp+0x33] ;  (1 found)
0x000b767c: jmp dword [ebp+0x33] ;  (1 found)
0x000f4b4c: jmp dword [ebp+0x33] ;  (1 found)
0x00106343: jmp dword [ebp+0x33] ;  (1 found)
0x0010715d: jmp dword [ebp+0x33] ;  (1 found)
0x0010754c: jmp dword [ebp+0x33] ;  (1 found)
0x00108374: jmp dword [ebp+0x33] ;  (1 found)
0x0010906c: jmp dword [ebp+0x33] ;  (1 found)
0x00008853: jmp dword [ebp+0x56] ;  (1 found)
0x00168153: jmp dword [ebp+ebx*4+0x59D40000] ;  (1 found)
0x00169c5b: jmp dword [ebp+ecx*2+0x2C540001] ;  (1 found)
0x000b8056: jmp dword [ebp+ecx*8+0x1D] ;  (1 found)
0x00168b43: jmp dword [ebp+edx*8+0x00] ;  (1 found)
0x00166257: jmp dword [ebp-0x1A00032A] ;  (1 found)
0x00166247: jmp dword [ebp-0x1A00032B] ;  (1 found)
0x00166747: jmp dword [ebp-0x25] ;  (1 found)
0x00166737: jmp dword [ebp-0x2A000326] ;  (1 found)
0x00166253: jmp dword [ebp-0x2A] ;  (1 found)
0x00166243: jmp dword [ebp-0x2B] ;  (1 found)
0x0016622f: jmp dword [ebp-0x2C] ;  (1 found)
0x00024638: jmp dword [ebp-0x39] ;  (1 found)
0x00034d60: jmp dword [ebp-0x39] ;  (1 found)
0x00035c6d: jmp dword [ebp-0x39] ;  (1 found)
0x0003655e: jmp dword [ebp-0x39] ;  (1 found)
0x00039442: jmp dword [ebp-0x39] ;  (1 found)
0x00049e45: jmp dword [ebp-0x39] ;  (1 found)
0x00055362: jmp dword [ebp-0x39] ;  (1 found)
0x00056754: jmp dword [ebp-0x39] ;  (1 found)
0x00056770: jmp dword [ebp-0x39] ;  (1 found)
0x00057729: jmp dword [ebp-0x39] ;  (1 found)
0x00058c59: jmp dword [ebp-0x39] ;  (1 found)
0x0006463a: jmp dword [ebp-0x39] ;  (1 found)
0x00064b32: jmp dword [ebp-0x39] ;  (1 found)
0x00065772: jmp dword [ebp-0x39] ;  (1 found)
0x00068135: jmp dword [ebp-0x39] ;  (1 found)
0x00069942: jmp dword [ebp-0x39] ;  (1 found)
0x0007755f: jmp dword [ebp-0x39] ;  (1 found)
0x00077e25: jmp dword [ebp-0x39] ;  (1 found)
0x00098224: jmp dword [ebp-0x39] ;  (1 found)
0x00098b38: jmp dword [ebp-0x39] ;  (1 found)
0x00099365: jmp dword [ebp-0x39] ;  (1 found)
0x000a862a: jmp dword [ebp-0x39] ;  (1 found)
0x000b4666: jmp dword [ebp-0x39] ;  (1 found)
0x000b4677: jmp dword [ebp-0x39] ;  (1 found)
0x000b484a: jmp dword [ebp-0x39] ;  (1 found)
0x000b4a4a: jmp dword [ebp-0x39] ;  (1 found)
0x000b5b5b: jmp dword [ebp-0x39] ;  (1 found)
0x000b6776: jmp dword [ebp-0x39] ;  (1 found)
0x000b7b5e: jmp dword [ebp-0x39] ;  (1 found)
0x000b8155: jmp dword [ebp-0x39] ;  (1 found)
0x000b8c45: jmp dword [ebp-0x39] ;  (1 found)
0x000b8e4a: jmp dword [ebp-0x39] ;  (1 found)
0x000b9f6a: jmp dword [ebp-0x39] ;  (1 found)
0x000c6528: jmp dword [ebp-0x39] ;  (1 found)
0x000c9060: jmp dword [ebp-0x39] ;  (1 found)
0x000e467d: jmp dword [ebp-0x39] ;  (1 found)
0x000e5052: jmp dword [ebp-0x39] ;  (1 found)
0x000e5e25: jmp dword [ebp-0x39] ;  (1 found)
0x000e617c: jmp dword [ebp-0x39] ;  (1 found)
0x000e6832: jmp dword [ebp-0x39] ;  (1 found)
0x000e696d: jmp dword [ebp-0x39] ;  (1 found)
0x000e7545: jmp dword [ebp-0x39] ;  (1 found)
0x000e7d32: jmp dword [ebp-0x39] ;  (1 found)
0x000e8455: jmp dword [ebp-0x39] ;  (1 found)
0x000e8725: jmp dword [ebp-0x39] ;  (1 found)
0x000e8845: jmp dword [ebp-0x39] ;  (1 found)
0x000e9645: jmp dword [ebp-0x39] ;  (1 found)
0x000f5172: jmp dword [ebp-0x39] ;  (1 found)
0x000f6652: jmp dword [ebp-0x39] ;  (1 found)
0x0011557d: jmp dword [ebp-0x39] ;  (1 found)
0x00124022: jmp dword [ebp-0x39] ;  (1 found)
0x00124351: jmp dword [ebp-0x39] ;  (1 found)
0x00124d4a: jmp dword [ebp-0x39] ;  (1 found)
0x00166023: jmp dword [ebp-0x3A00032F] ;  (1 found)
0x000b8140: jmp dword [ebp-0x5F] ;  (1 found)
0x00026e24: jmp dword [ebp-0x75] ;  (1 found)
0x00026e54: jmp dword [ebp-0x75] ;  (1 found)
0x00026f34: jmp dword [ebp-0x75] ;  (1 found)
0x00026f72: jmp dword [ebp-0x75] ;  (1 found)
0x00027e6e: jmp dword [ebp-0x75] ;  (1 found)
0x00034054: jmp dword [ebp-0x75] ;  (1 found)
0x00035a24: jmp dword [ebp-0x75] ;  (1 found)
0x00035a64: jmp dword [ebp-0x75] ;  (1 found)
0x00035b24: jmp dword [ebp-0x75] ;  (1 found)
0x00035b64: jmp dword [ebp-0x75] ;  (1 found)
0x00047124: jmp dword [ebp-0x75] ;  (1 found)
0x00054835: jmp dword [ebp-0x75] ;  (1 found)
0x00065732: jmp dword [ebp-0x75] ;  (1 found)
0x00078d77: jmp dword [ebp-0x75] ;  (1 found)
0x0007963e: jmp dword [ebp-0x75] ;  (1 found)
0x0007994b: jmp dword [ebp-0x75] ;  (1 found)
0x00079e63: jmp dword [ebp-0x75] ;  (1 found)
0x00096c35: jmp dword [ebp-0x75] ;  (1 found)
0x00096e2f: jmp dword [ebp-0x75] ;  (1 found)
0x00098632: jmp dword [ebp-0x75] ;  (1 found)
0x0009926e: jmp dword [ebp-0x75] ;  (1 found)
0x00099a24: jmp dword [ebp-0x75] ;  (1 found)
0x00099a74: jmp dword [ebp-0x75] ;  (1 found)
0x00099b64: jmp dword [ebp-0x75] ;  (1 found)
0x00099c54: jmp dword [ebp-0x75] ;  (1 found)
0x00099d54: jmp dword [ebp-0x75] ;  (1 found)
0x000a5a60: jmp dword [ebp-0x75] ;  (1 found)
0x000b445d: jmp dword [ebp-0x75] ;  (1 found)
0x000b4d37: jmp dword [ebp-0x75] ;  (1 found)
0x000b567c: jmp dword [ebp-0x75] ;  (1 found)
0x000b5c21: jmp dword [ebp-0x75] ;  (1 found)
0x000b6921: jmp dword [ebp-0x75] ;  (1 found)
0x000b695f: jmp dword [ebp-0x75] ;  (1 found)
0x000b6c4c: jmp dword [ebp-0x75] ;  (1 found)
0x000b707f: jmp dword [ebp-0x75] ;  (1 found)
0x000b715c: jmp dword [ebp-0x75] ;  (1 found)
0x000c8163: jmp dword [ebp-0x75] ;  (1 found)
0x000c9067: jmp dword [ebp-0x75] ;  (1 found)
0x000c926a: jmp dword [ebp-0x75] ;  (1 found)
0x000d4051: jmp dword [ebp-0x75] ;  (1 found)
0x000d6470: jmp dword [ebp-0x75] ;  (1 found)
0x000d7161: jmp dword [ebp-0x75] ;  (1 found)
0x000d8e35: jmp dword [ebp-0x75] ;  (1 found)
0x000d963d: jmp dword [ebp-0x75] ;  (1 found)
0x000e414d: jmp dword [ebp-0x75] ;  (1 found)
0x000f4070: jmp dword [ebp-0x75] ;  (1 found)
0x000f4221: jmp dword [ebp-0x75] ;  (1 found)
0x000f425f: jmp dword [ebp-0x75] ;  (1 found)
0x000f482f: jmp dword [ebp-0x75] ;  (1 found)
0x000f4d5b: jmp dword [ebp-0x75] ;  (1 found)
0x000f5071: jmp dword [ebp-0x75] ;  (1 found)
0x000f6246: jmp dword [ebp-0x75] ;  (1 found)
0x000f6326: jmp dword [ebp-0x75] ;  (1 found)
0x000f6551: jmp dword [ebp-0x75] ;  (1 found)
0x0010656f: jmp dword [ebp-0x75] ;  (1 found)
0x00106657: jmp dword [ebp-0x75] ;  (1 found)
0x00106e5f: jmp dword [ebp-0x75] ;  (1 found)
0x00106f47: jmp dword [ebp-0x75] ;  (1 found)
0x0010774f: jmp dword [ebp-0x75] ;  (1 found)
0x0010782e: jmp dword [ebp-0x75] ;  (1 found)
0x0010856f: jmp dword [ebp-0x75] ;  (1 found)
0x0010864e: jmp dword [ebp-0x75] ;  (1 found)
0x0010873c: jmp dword [ebp-0x75] ;  (1 found)
0x00108b6f: jmp dword [ebp-0x75] ;  (1 found)
0x00108c4e: jmp dword [ebp-0x75] ;  (1 found)
0x00116649: jmp dword [ebp-0x75] ;  (1 found)
0x00026a65: jmp dword [ebp-0x77] ;  (1 found)
0x00026a6e: jmp dword [ebp-0x77] ;  (1 found)
0x00026a77: jmp dword [ebp-0x77] ;  (1 found)
0x00055375: jmp dword [ebp-0x77] ;  (1 found)
0x00074c5e: jmp dword [ebp-0x77] ;  (1 found)
0x00077f41: jmp dword [ebp-0x77] ;  (1 found)
0x000b482c: jmp dword [ebp-0x77] ;  (1 found)
0x000b4a2c: jmp dword [ebp-0x77] ;  (1 found)
0x000b8456: jmp dword [ebp-0x77] ;  (1 found)
0x000e4821: jmp dword [ebp-0x77] ;  (1 found)
0x000e6140: jmp dword [ebp-0x77] ;  (1 found)
0x00105479: jmp dword [ebp-0x77] ;  (1 found)
0x0002816d: jmp dword [ebp-0x7D] ;  (1 found)
0x0002945a: jmp dword [ebp-0x7D] ;  (1 found)
0x00055263: jmp dword [ebp-0x7D] ;  (1 found)
0x00055339: jmp dword [ebp-0x7D] ;  (1 found)
0x00077b38: jmp dword [ebp-0x7D] ;  (1 found)
0x00078f5f: jmp dword [ebp-0x7D] ;  (1 found)
0x000a9346: jmp dword [ebp-0x7D] ;  (1 found)
0x000b4f35: jmp dword [ebp-0x7D] ;  (1 found)
0x000b8c25: jmp dword [ebp-0x7D] ;  (1 found)
0x000b9b65: jmp dword [ebp-0x7D] ;  (1 found)
0x000c6a25: jmp dword [ebp-0x7D] ;  (1 found)
0x000d9f4d: jmp dword [ebp-0x7D] ;  (1 found)
0x000e655e: jmp dword [ebp-0x7D] ;  (1 found)
0x000e663a: jmp dword [ebp-0x7D] ;  (1 found)
0x000e672a: jmp dword [ebp-0x7D] ;  (1 found)
0x000e763d: jmp dword [ebp-0x7D] ;  (1 found)
0x000f5438: jmp dword [ebp-0x7D] ;  (1 found)
0x00105630: jmp dword [ebp-0x7D] ;  (1 found)
0x0011712d: jmp dword [ebp-0x7D] ;  (1 found)
0x00119245: jmp dword [ebp-0x7D] ;  (1 found)
0x00119357: jmp dword [ebp-0x7D] ;  (1 found)
0x00179a37: jmp dword [ebx+0x00000000] ;  (1 found)
0x0019533b: jmp dword [ebx+0x00000000] ;  (1 found)
0x00016f20: jmp dword [ebx+0x00000024] ;  (1 found)
0x00016f30: jmp dword [ebx+0x00000028] ;  (1 found)
0x00016f40: jmp dword [ebx+0x0000002C] ;  (1 found)
0x00016f50: jmp dword [ebx+0x00000030] ;  (1 found)
0x00016f60: jmp dword [ebx+0x00000034] ;  (1 found)
0x00188b2f: jmp dword [ebx+0x00] ;  (1 found)
0x00197b23: jmp dword [ebx+0x00] ;  (1 found)
0x00189423: jmp dword [ebx+0x01] ;  (1 found)
0x00168843: jmp dword [ebx+eax*8+0x74040000] ;  (1 found)
0x00169329: jmp dword [ebx+eax+0x01] ;  (1 found)
0x0016932a: jmp dword [ebx+eax+0x01] ;  (1 found)
0x0016932b: jmp dword [ebx+eax+0x01] ;  (1 found)
0x00168c63: jmp dword [ebx+ebx*8+0x00] ;  (1 found)
0x00167c2b: jmp dword [ebx+edi*2+0x33C40000] ;  (1 found)
0x0016633f: jmp dword [ebx-0x28] ;  (1 found)
0x0016657f: jmp dword [ebx-0x28] ;  (1 found)
0x0016632b: jmp dword [ebx-0x29] ;  (1 found)
0x00165e2b: jmp dword [ebx-0x2C000330] ;  (1 found)
0x00165e4f: jmp dword [ebx-0x2E] ;  (1 found)
0x00165e3b: jmp dword [ebx-0x2F] ;  (1 found)
0x00165e4b: jmp dword [ebx] ;  (1 found)
0x0016633b: jmp dword [ebx] ;  (1 found)
0x00174f57: jmp dword [ebx] ;  (1 found)
0x00175623: jmp dword [ebx] ;  (1 found)
0x00176f23: jmp dword [ebx] ;  (1 found)
0x0017892f: jmp dword [ebx] ;  (1 found)
0x00197a47: jmp dword [ebx] ;  (1 found)
0x0019946f: jmp dword [ebx] ;  (1 found)
0x00199d43: jmp dword [ebx] ;  (1 found)
0x00199d7b: jmp dword [ebx] ;  (1 found)
0x00185f66: jmp dword [ecx+0x00000000] ;  (1 found)
0x00185f67: jmp dword [ecx+0x00000000] ;  (1 found)
0x00185b66: jmp dword [ecx+eax+0x00] ;  (1 found)
0x00185b67: jmp dword [ecx+eax+0x00] ;  (1 found)
0x00176127: jmp dword [ecx+eax] ;  (1 found)
0x00169852: jmp dword [ecx+ebp] ;  (1 found)
0x00169853: jmp dword [ecx+ebp] ;  (1 found)
0x00169152: jmp dword [ecx+edi*8+0x00] ;  (1 found)
0x00169153: jmp dword [ecx+edi*8+0x00] ;  (1 found)
0x00169d43: jmp dword [ecx+edi+0x2FA10001] ;  (1 found)
0x00168a73: jmp dword [ecx+edx*8+0x00] ;  (1 found)
0x00159847: jmp dword [ecx-0x77000011] ;  (1 found)
0x0006764e: jmp dword [ecx] ;  (1 found)
0x00069751: jmp dword [ecx] ;  (1 found)
0x00069d60: jmp dword [ecx] ;  (1 found)
0x00074f6b: jmp dword [ecx] ;  (1 found)
0x00077b70: jmp dword [ecx] ;  (1 found)
0x00188572: jmp dword [ecx] ;  (1 found)
0x00188573: jmp dword [ecx] ;  (1 found)
0x00188d33: jmp dword [edi+0x00000000] ;  (1 found)
0x00194567: jmp dword [edi+0x00000000] ;  (1 found)
0x00194d7f: jmp dword [edi+0x00000000] ;  (1 found)
0x0018655e: jmp dword [edi+0x03] ;  (1 found)
0x0018655f: jmp dword [edi+0x03] ;  (1 found)
0x00049e57: jmp dword [edi+0x0F] ;  (1 found)
0x00169f33: jmp dword [edi+ecx*2] ;  (1 found)
0x00168a3b: jmp dword [edi+ecx*8+0x00] ;  (1 found)
0x0005892e: jmp dword [edi+ecx] ;  (1 found)
0x00058a57: jmp dword [edi+ecx] ;  (1 found)
0x00167c7b: jmp dword [edi+edi*2] ;  (1 found)
0x00169262: jmp dword [edi+edi*8] ;  (1 found)
0x00169263: jmp dword [edi+edi*8] ;  (1 found)
0x00169e43: jmp dword [edi+edi+0x316D0001] ;  (1 found)
0x00174647: jmp dword [edi] ;  (1 found)
0x00189a5b: jmp dword [edi] ;  (1 found)
0x00198647: jmp dword [edi] ;  (1 found)
0x0019914f: jmp dword [edi] ;  (1 found)
0x0019933f: jmp dword [edi] ;  (1 found)
0x00197653: jmp dword [edx+0x00000000] ;  (1 found)
0x00186432: jmp dword [edx+0x00] ;  (1 found)
0x00186433: jmp dword [edx+0x00] ;  (1 found)
0x00167463: jmp dword [edx+0x32FFFD4A] ;  (1 found)
0x0016732b: jmp dword [edx+0x3B] ;  (1 found)
0x00167423: jmp dword [edx+0x3C] ;  (1 found)
0x0016775f: jmp dword [edx+0x5C] ;  (1 found)
0x0016776b: jmp dword [edx+0x5D] ;  (1 found)
0x0016666b: jmp dword [edx+ebx*8] ;  (1 found)
0x00169d63: jmp dword [edx+edi+0x01] ;  (1 found)
0x00167f4b: jmp dword [edx+edx*4-0x09DC0000] ;  (1 found)
0x00166a3b: jmp dword [edx-0x06] ;  (1 found)
0x00167867: jmp dword [edx-0x0D0002A2] ;  (1 found)
0x0016696b: jmp dword [edx-0x13] ;  (1 found)
0x00166033: jmp dword [edx-0x3D00032F] ;  (1 found)
0x00159130: jmp dword [edx-0x71] ;  (1 found)
0x00166a27: jmp dword [edx] ;  (1 found)
0x00166e7b: jmp dword [edx] ;  (1 found)
0x00174338: jmp dword [edx] ;  (1 found)
0x00174368: jmp dword [edx] ;  (1 found)
0x00174d34: jmp dword [edx] ;  (1 found)
0x00174d64: jmp dword [edx] ;  (1 found)
0x0017534c: jmp dword [edx] ;  (1 found)
0x0017537c: jmp dword [edx] ;  (1 found)
0x0017543c: jmp dword [edx] ;  (1 found)
0x0017546c: jmp dword [edx] ;  (1 found)
0x0017552c: jmp dword [edx] ;  (1 found)
0x00175744: jmp dword [edx] ;  (1 found)
0x00175774: jmp dword [edx] ;  (1 found)
0x00175b20: jmp dword [edx] ;  (1 found)
0x00175b50: jmp dword [edx] ;  (1 found)
0x00175c38: jmp dword [edx] ;  (1 found)
0x00175c68: jmp dword [edx] ;  (1 found)
0x00175d24: jmp dword [edx] ;  (1 found)
0x00176028: jmp dword [edx] ;  (1 found)
0x00176058: jmp dword [edx] ;  (1 found)
0x00176178: jmp dword [edx] ;  (1 found)
0x00176238: jmp dword [edx] ;  (1 found)
0x00176268: jmp dword [edx] ;  (1 found)
0x00176328: jmp dword [edx] ;  (1 found)
0x00176358: jmp dword [edx] ;  (1 found)
0x00176538: jmp dword [edx] ;  (1 found)
0x00176568: jmp dword [edx] ;  (1 found)
0x0017664c: jmp dword [edx] ;  (1 found)
0x0017667c: jmp dword [edx] ;  (1 found)
0x00176828: jmp dword [edx] ;  (1 found)
0x00176974: jmp dword [edx] ;  (1 found)
0x00176a60: jmp dword [edx] ;  (1 found)
0x00176b20: jmp dword [edx] ;  (1 found)
0x00176b50: jmp dword [edx] ;  (1 found)
0x00176d20: jmp dword [edx] ;  (1 found)
0x00176e60: jmp dword [edx] ;  (1 found)
0x0017704c: jmp dword [edx] ;  (1 found)
0x0017707c: jmp dword [edx] ;  (1 found)
0x00177154: jmp dword [edx] ;  (1 found)
0x00177220: jmp dword [edx] ;  (1 found)
0x00177250: jmp dword [edx] ;  (1 found)
0x0017745c: jmp dword [edx] ;  (1 found)
0x00177548: jmp dword [edx] ;  (1 found)
0x00177578: jmp dword [edx] ;  (1 found)
0x00177668: jmp dword [edx] ;  (1 found)
0x00177728: jmp dword [edx] ;  (1 found)
0x00177758: jmp dword [edx] ;  (1 found)
0x00177a78: jmp dword [edx] ;  (1 found)
0x00177b38: jmp dword [edx] ;  (1 found)
0x00177b68: jmp dword [edx] ;  (1 found)
0x00177c24: jmp dword [edx] ;  (1 found)
0x00177c54: jmp dword [edx] ;  (1 found)
0x00177d44: jmp dword [edx] ;  (1 found)
0x00178020: jmp dword [edx] ;  (1 found)
0x00178050: jmp dword [edx] ;  (1 found)
0x0017813c: jmp dword [edx] ;  (1 found)
0x0017816c: jmp dword [edx] ;  (1 found)
0x00178334: jmp dword [edx] ;  (1 found)
0x00178364: jmp dword [edx] ;  (1 found)
0x00178428: jmp dword [edx] ;  (1 found)
0x00178544: jmp dword [edx] ;  (1 found)
0x00178574: jmp dword [edx] ;  (1 found)
0x00178728: jmp dword [edx] ;  (1 found)
0x00178e44: jmp dword [edx] ;  (1 found)
0x00178e74: jmp dword [edx] ;  (1 found)
0x00179140: jmp dword [edx] ;  (1 found)
0x00179170: jmp dword [edx] ;  (1 found)
0x00179238: jmp dword [edx] ;  (1 found)
0x00179268: jmp dword [edx] ;  (1 found)
0x00179338: jmp dword [edx] ;  (1 found)
0x00179638: jmp dword [edx] ;  (1 found)
0x00179774: jmp dword [edx] ;  (1 found)
0x00179948: jmp dword [edx] ;  (1 found)
0x00184858: jmp dword [edx] ;  (1 found)
0x00184948: jmp dword [edx] ;  (1 found)
0x00184978: jmp dword [edx] ;  (1 found)
0x00184a38: jmp dword [edx] ;  (1 found)
0x00185370: jmp dword [edx] ;  (1 found)
0x00185430: jmp dword [edx] ;  (1 found)
0x00185460: jmp dword [edx] ;  (1 found)
0x00185d20: jmp dword [edx] ;  (1 found)
0x00185e2f: jmp dword [edx] ;  (1 found)
0x00185e30: jmp dword [edx] ;  (1 found)
0x00185e5f: jmp dword [edx] ;  (1 found)
0x00185e60: jmp dword [edx] ;  (1 found)
0x00186043: jmp dword [edx] ;  (1 found)
0x00186044: jmp dword [edx] ;  (1 found)
0x00186073: jmp dword [edx] ;  (1 found)
0x00186074: jmp dword [edx] ;  (1 found)
0x00186647: jmp dword [edx] ;  (1 found)
0x00186648: jmp dword [edx] ;  (1 found)
0x00186677: jmp dword [edx] ;  (1 found)
0x00186678: jmp dword [edx] ;  (1 found)
0x00186773: jmp dword [edx] ;  (1 found)
0x00186774: jmp dword [edx] ;  (1 found)
0x00186843: jmp dword [edx] ;  (1 found)
0x00186844: jmp dword [edx] ;  (1 found)
0x00186873: jmp dword [edx] ;  (1 found)
0x00186874: jmp dword [edx] ;  (1 found)
0x0018692b: jmp dword [edx] ;  (1 found)
0x0018692c: jmp dword [edx] ;  (1 found)
0x0018695b: jmp dword [edx] ;  (1 found)
0x0018695c: jmp dword [edx] ;  (1 found)
0x00186c27: jmp dword [edx] ;  (1 found)
0x00186c28: jmp dword [edx] ;  (1 found)
0x00186d37: jmp dword [edx] ;  (1 found)
0x00186d38: jmp dword [edx] ;  (1 found)
0x00186e2f: jmp dword [edx] ;  (1 found)
0x00186e30: jmp dword [edx] ;  (1 found)
0x00186f2b: jmp dword [edx] ;  (1 found)
0x00186f2c: jmp dword [edx] ;  (1 found)
0x00186f5b: jmp dword [edx] ;  (1 found)
0x00186f5c: jmp dword [edx] ;  (1 found)
0x0018702b: jmp dword [edx] ;  (1 found)
0x0018702c: jmp dword [edx] ;  (1 found)
0x0018705b: jmp dword [edx] ;  (1 found)
0x0018705c: jmp dword [edx] ;  (1 found)
0x00187267: jmp dword [edx] ;  (1 found)
0x00187268: jmp dword [edx] ;  (1 found)
0x00188533: jmp dword [edx] ;  (1 found)
0x00188534: jmp dword [edx] ;  (1 found)
0x00188563: jmp dword [edx] ;  (1 found)
0x00188564: jmp dword [edx] ;  (1 found)
0x00188930: jmp dword [edx] ;  (1 found)
0x00194028: jmp dword [edx] ;  (1 found)
0x00194058: jmp dword [edx] ;  (1 found)
0x00194164: jmp dword [edx] ;  (1 found)
0x00194234: jmp dword [edx] ;  (1 found)
0x00194468: jmp dword [edx] ;  (1 found)
0x00194528: jmp dword [edx] ;  (1 found)
0x00194558: jmp dword [edx] ;  (1 found)
0x00194620: jmp dword [edx] ;  (1 found)
0x00194650: jmp dword [edx] ;  (1 found)
0x0019475c: jmp dword [edx] ;  (1 found)
0x0019482c: jmp dword [edx] ;  (1 found)
0x00194948: jmp dword [edx] ;  (1 found)
0x00194978: jmp dword [edx] ;  (1 found)
0x00194c24: jmp dword [edx] ;  (1 found)
0x00194d40: jmp dword [edx] ;  (1 found)
0x00194d70: jmp dword [edx] ;  (1 found)
0x00194e2c: jmp dword [edx] ;  (1 found)
0x00194e5c: jmp dword [edx] ;  (1 found)
0x00194f44: jmp dword [edx] ;  (1 found)
0x00194f74: jmp dword [edx] ;  (1 found)
0x00195068: jmp dword [edx] ;  (1 found)
0x00195248: jmp dword [edx] ;  (1 found)
0x00195278: jmp dword [edx] ;  (1 found)
0x00195450: jmp dword [edx] ;  (1 found)
0x00195520: jmp dword [edx] ;  (1 found)
0x00195620: jmp dword [edx] ;  (1 found)
0x00195650: jmp dword [edx] ;  (1 found)
0x00195a4c: jmp dword [edx] ;  (1 found)
0x00195a7c: jmp dword [edx] ;  (1 found)
0x00196560: jmp dword [edx] ;  (1 found)
0x00196620: jmp dword [edx] ;  (1 found)
0x00196650: jmp dword [edx] ;  (1 found)
0x0019673c: jmp dword [edx] ;  (1 found)
0x00196c34: jmp dword [edx] ;  (1 found)
0x00196c64: jmp dword [edx] ;  (1 found)
0x00199527: jmp dword [edx] ;  (1 found)
0x00176c73: jmp dword [esi+0x00000000] ;  (1 found)
0x00197f57: jmp dword [esi+0x00000001] ;  (1 found)
0x00189f5b: jmp dword [esi+0x00] ;  (1 found)
0x00048655: jmp dword [esi+0x0F] ;  (1 found)
0x0008443f: jmp dword [esi+0x0F] ;  (1 found)
0x0008457f: jmp dword [esi+0x0F] ;  (1 found)
0x0008492f: jmp dword [esi+0x0F] ;  (1 found)
0x00084a5f: jmp dword [esi+0x0F] ;  (1 found)
0x0008504f: jmp dword [esi+0x0F] ;  (1 found)
0x0008517f: jmp dword [esi+0x0F] ;  (1 found)
0x00087c54: jmp dword [esi+0x0F] ;  (1 found)
0x00088358: jmp dword [esi+0x0F] ;  (1 found)
0x0008893f: jmp dword [esi+0x0F] ;  (1 found)
0x00088a7f: jmp dword [esi+0x0F] ;  (1 found)
0x00088f4f: jmp dword [esi+0x0F] ;  (1 found)
0x0008907f: jmp dword [esi+0x0F] ;  (1 found)
0x0008953f: jmp dword [esi+0x0F] ;  (1 found)
0x0008966f: jmp dword [esi+0x0F] ;  (1 found)
0x0009414e: jmp dword [esi+0x0F] ;  (1 found)
0x00094e5a: jmp dword [esi+0x0F] ;  (1 found)
0x00094e7a: jmp dword [esi+0x0F] ;  (1 found)
0x0014402c: jmp dword [esi+0x0F] ;  (1 found)
0x00144038: jmp dword [esi+0x0F] ;  (1 found)
0x0014424c: jmp dword [esi+0x0F] ;  (1 found)
0x00144254: jmp dword [esi+0x0F] ;  (1 found)
0x0014425c: jmp dword [esi+0x0F] ;  (1 found)
0x0014426c: jmp dword [esi+0x0F] ;  (1 found)
0x0014427c: jmp dword [esi+0x0F] ;  (1 found)
0x00144324: jmp dword [esi+0x0F] ;  (1 found)
0x00144538: jmp dword [esi+0x0F] ;  (1 found)
0x00144540: jmp dword [esi+0x0F] ;  (1 found)
0x00144548: jmp dword [esi+0x0F] ;  (1 found)
0x00144558: jmp dword [esi+0x0F] ;  (1 found)
0x00144568: jmp dword [esi+0x0F] ;  (1 found)
0x00144574: jmp dword [esi+0x0F] ;  (1 found)
0x00144629: jmp dword [esi+0x0F] ;  (1 found)
0x00144631: jmp dword [esi+0x0F] ;  (1 found)
0x00144639: jmp dword [esi+0x0F] ;  (1 found)
0x00144649: jmp dword [esi+0x0F] ;  (1 found)
0x00144659: jmp dword [esi+0x0F] ;  (1 found)
0x00144665: jmp dword [esi+0x0F] ;  (1 found)
0x00144728: jmp dword [esi+0x0F] ;  (1 found)
0x00144879: jmp dword [esi+0x0F] ;  (1 found)
0x0014493c: jmp dword [esi+0x0F] ;  (1 found)
0x00144944: jmp dword [esi+0x0F] ;  (1 found)
0x0014494c: jmp dword [esi+0x0F] ;  (1 found)
0x0014495c: jmp dword [esi+0x0F] ;  (1 found)
0x0014496c: jmp dword [esi+0x0F] ;  (1 found)
0x00144978: jmp dword [esi+0x0F] ;  (1 found)
0x00144c28: jmp dword [esi+0x0F] ;  (1 found)
0x00144c30: jmp dword [esi+0x0F] ;  (1 found)
0x00144c38: jmp dword [esi+0x0F] ;  (1 found)
0x00144c48: jmp dword [esi+0x0F] ;  (1 found)
0x00144c58: jmp dword [esi+0x0F] ;  (1 found)
0x00144c64: jmp dword [esi+0x0F] ;  (1 found)
0x00144d21: jmp dword [esi+0x0F] ;  (1 found)
0x00144d29: jmp dword [esi+0x0F] ;  (1 found)
0x00144d39: jmp dword [esi+0x0F] ;  (1 found)
0x00144d49: jmp dword [esi+0x0F] ;  (1 found)
0x00144d55: jmp dword [esi+0x0F] ;  (1 found)
0x00144e78: jmp dword [esi+0x0F] ;  (1 found)
0x00144f69: jmp dword [esi+0x0F] ;  (1 found)
0x00144f71: jmp dword [esi+0x0F] ;  (1 found)
0x00144f79: jmp dword [esi+0x0F] ;  (1 found)
0x0014502c: jmp dword [esi+0x0F] ;  (1 found)
0x00145034: jmp dword [esi+0x0F] ;  (1 found)
0x0014503c: jmp dword [esi+0x0F] ;  (1 found)
0x0014504c: jmp dword [esi+0x0F] ;  (1 found)
0x0014505c: jmp dword [esi+0x0F] ;  (1 found)
0x00145068: jmp dword [esi+0x0F] ;  (1 found)
0x00167233: jmp dword [esi+ebp] ;  (1 found)
0x00167833: jmp dword [esi+ebx*2-0x03] ;  (1 found)
0x0016817b: jmp dword [esi+ebx*4] ;  (1 found)
0x00169242: jmp dword [esi+edi*8+0x1C040000] ;  (1 found)
0x00169243: jmp dword [esi+edi*8+0x1C040000] ;  (1 found)
0x00167447: jmp dword [esi-0x090002C4] ;  (1 found)
0x0016656f: jmp dword [esi-0x28] ;  (1 found)
0x00166577: jmp dword [esi-0x39000328] ;  (1 found)
0x000a8c65: jmp dword [esi-0x39] ;  (1 found)
0x000a9073: jmp dword [esi-0x39] ;  (1 found)
0x000d6d66: jmp dword [esi-0x39] ;  (1 found)
0x000d7665: jmp dword [esi-0x39] ;  (1 found)
0x000e4328: jmp dword [esi-0x39] ;  (1 found)
0x00029835: jmp dword [esi-0x70] ;  (1 found)
0x0003485d: jmp dword [esi-0x70] ;  (1 found)
0x0003714d: jmp dword [esi-0x70] ;  (1 found)
0x00037645: jmp dword [esi-0x70] ;  (1 found)
0x0004807d: jmp dword [esi-0x70] ;  (1 found)
0x0004842d: jmp dword [esi-0x70] ;  (1 found)
0x00049735: jmp dword [esi-0x70] ;  (1 found)
0x00049b4d: jmp dword [esi-0x70] ;  (1 found)
0x00056345: jmp dword [esi-0x70] ;  (1 found)
0x00056725: jmp dword [esi-0x70] ;  (1 found)
0x00066245: jmp dword [esi-0x70] ;  (1 found)
0x00074575: jmp dword [esi-0x70] ;  (1 found)
0x0007462d: jmp dword [esi-0x70] ;  (1 found)
0x0007604d: jmp dword [esi-0x70] ;  (1 found)
0x0007666d: jmp dword [esi-0x70] ;  (1 found)
0x0007766d: jmp dword [esi-0x70] ;  (1 found)
0x00079475: jmp dword [esi-0x70] ;  (1 found)
0x00079d75: jmp dword [esi-0x70] ;  (1 found)
0x00096075: jmp dword [esi-0x70] ;  (1 found)
0x00096a45: jmp dword [esi-0x70] ;  (1 found)
0x00096a55: jmp dword [esi-0x70] ;  (1 found)
0x0009744d: jmp dword [esi-0x70] ;  (1 found)
0x0009756d: jmp dword [esi-0x70] ;  (1 found)
0x00097b55: jmp dword [esi-0x70] ;  (1 found)
0x000a4865: jmp dword [esi-0x70] ;  (1 found)
0x000b8e7d: jmp dword [esi-0x70] ;  (1 found)
0x000c8935: jmp dword [esi-0x70] ;  (1 found)
0x000c9b2d: jmp dword [esi-0x70] ;  (1 found)
0x000d7835: jmp dword [esi-0x70] ;  (1 found)
0x000d9635: jmp dword [esi-0x70] ;  (1 found)
0x000e4b35: jmp dword [esi-0x70] ;  (1 found)
0x000e9d3d: jmp dword [esi-0x70] ;  (1 found)
0x000f806d: jmp dword [esi-0x70] ;  (1 found)
0x000f914d: jmp dword [esi-0x70] ;  (1 found)
0x000f9e35: jmp dword [esi-0x70] ;  (1 found)
0x00116425: jmp dword [esi-0x70] ;  (1 found)
0x0011713d: jmp dword [esi-0x70] ;  (1 found)
0x0011966d: jmp dword [esi-0x70] ;  (1 found)
0x00119e7d: jmp dword [esi-0x70] ;  (1 found)
0x0012923d: jmp dword [esi-0x70] ;  (1 found)
0x0013425d: jmp dword [esi-0x70] ;  (1 found)
0x00136b5d: jmp dword [esi-0x70] ;  (1 found)
0x0013813d: jmp dword [esi-0x70] ;  (1 found)
0x000e4b2c: jmp dword [esi-0x77] ;  (1 found)
0x00135059: jmp dword [esi-0x77] ;  (1 found)
0x0013534b: jmp dword [esi-0x77] ;  (1 found)
0x00136745: jmp dword [esi-0x77] ;  (1 found)
0x0013677b: jmp dword [esi-0x77] ;  (1 found)
0x00137969: jmp dword [esi-0x77] ;  (1 found)
0x00137c25: jmp dword [esi-0x77] ;  (1 found)
0x00137c5b: jmp dword [esi-0x77] ;  (1 found)
0x00138e59: jmp dword [esi-0x77] ;  (1 found)
0x00139e29: jmp dword [esi-0x77] ;  (1 found)
0x000e476e: jmp dword [esi-0x7D] ;  (1 found)
0x000e476f: jmp dword [esi-0x7D] ;  (1 found)
0x000e492c: jmp dword [esi-0x7D] ;  (1 found)
0x000e4b45: jmp dword [esi-0x7D] ;  (1 found)
0x00166f4b: jmp dword [esi] ;  (1 found)
0x00167043: jmp dword [esi] ;  (1 found)
0x00168363: jmp dword [esi] ;  (1 found)
0x00185046: jmp dword [esi] ;  (1 found)
0x00185047: jmp dword [esi] ;  (1 found)
0x0018865e: jmp dword [esi] ;  (1 found)
0x0018865f: jmp dword [esi] ;  (1 found)
0x00188f53: jmp dword [esi] ;  (1 found)
0x00195d47: jmp dword [esi] ;  (1 found)
0x0019713b: jmp dword [esi] ;  (1 found)
0x00197c7b: jmp dword [esi] ;  (1 found)
0x000e7870: jmp dword [esp+eax] ;  (1 found)
0x0016712f: jmp dword [esp+ebp] ;  (1 found)
0x00166173: jmp dword [esp+edx*8-0x2B2B0004] ;  (1 found)
0x00169c73: jmp dword [esp+esi+0x01] ;  (1 found)
0x000b9d71: jmp eax ;  (1 found)
0x00166767: jmp eax ;  (1 found)
0x0016693b: jmp eax ;  (1 found)
0x00166b6f: jmp eax ;  (1 found)
0x00166e57: jmp eax ;  (1 found)
0x00167377: jmp eax ;  (1 found)
0x00167f63: jmp eax ;  (1 found)
0x00168443: jmp eax ;  (1 found)
0x00168523: jmp eax ;  (1 found)
0x00168853: jmp eax ;  (1 found)
0x00168e2b: jmp eax ;  (1 found)
0x0016994a: jmp eax ;  (1 found)
0x0016994b: jmp eax ;  (1 found)
0x00169a2a: jmp eax ;  (1 found)
0x00169a2b: jmp eax ;  (1 found)
0x00024b57: jmp ebp ;  (1 found)
0x0016602b: jmp ebp ;  (1 found)
0x0016624b: jmp ebp ;  (1 found)
0x0016625b: jmp ebp ;  (1 found)
0x00166727: jmp ebp ;  (1 found)
0x0017956b: jmp ebp ;  (1 found)
0x00134625: jmp ebx ;  (1 found)
0x00134745: jmp ebx ;  (1 found)
0x00134865: jmp ebx ;  (1 found)
0x00134b35: jmp ebx ;  (1 found)
0x00134c55: jmp ebx ;  (1 found)
0x00134d75: jmp ebx ;  (1 found)
0x00135728: jmp ebx ;  (1 found)
0x00135772: jmp ebx ;  (1 found)
0x00135821: jmp ebx ;  (1 found)
0x00135922: jmp ebx ;  (1 found)
0x00135a29: jmp ebx ;  (1 found)
0x00135b45: jmp ebx ;  (1 found)
0x00135c65: jmp ebx ;  (1 found)
0x00135f35: jmp ebx ;  (1 found)
0x00136055: jmp ebx ;  (1 found)
0x00136175: jmp ebx ;  (1 found)
0x00136f35: jmp ebx ;  (1 found)
0x00137055: jmp ebx ;  (1 found)
0x00137175: jmp ebx ;  (1 found)
0x00137325: jmp ebx ;  (1 found)
0x00137445: jmp ebx ;  (1 found)
0x00137565: jmp ebx ;  (1 found)
0x00138055: jmp ebx ;  (1 found)
0x00138168: jmp ebx ;  (1 found)
0x00138178: jmp ebx ;  (1 found)
0x00138271: jmp ebx ;  (1 found)
0x00138378: jmp ebx ;  (1 found)
0x00138635: jmp ebx ;  (1 found)
0x00138755: jmp ebx ;  (1 found)
0x00138875: jmp ebx ;  (1 found)
0x00138a25: jmp ebx ;  (1 found)
0x00138b45: jmp ebx ;  (1 found)
0x00138c65: jmp ebx ;  (1 found)
0x00138f77: jmp ebx ;  (1 found)
0x00139148: jmp ebx ;  (1 found)
0x00139158: jmp ebx ;  (1 found)
0x00139251: jmp ebx ;  (1 found)
0x00139358: jmp ebx ;  (1 found)
0x00139462: jmp ebx ;  (1 found)
0x00139735: jmp ebx ;  (1 found)
0x00139855: jmp ebx ;  (1 found)
0x00139975: jmp ebx ;  (1 found)
0x00139b25: jmp ebx ;  (1 found)
0x00139c45: jmp ebx ;  (1 found)
0x00139f47: jmp ebx ;  (1 found)
0x00176c4b: jmp ebx ;  (1 found)
0x00184b2e: jmp ebx ;  (1 found)
0x00184b2f: jmp ebx ;  (1 found)
0x00078425: jmp ecx ;  (1 found)
0x00094752: jmp ecx ;  (1 found)
0x00094838: jmp ecx ;  (1 found)
0x00094851: jmp ecx ;  (1 found)
0x0009487b: jmp ecx ;  (1 found)
0x00094930: jmp ecx ;  (1 found)
0x0009495d: jmp ecx ;  (1 found)
0x0009497a: jmp ecx ;  (1 found)
0x000d4374: jmp ecx ;  (1 found)
0x000d6e25: jmp ecx ;  (1 found)
0x00008423: jmp edi ;  (1 found)
0x00045050: jmp edx ;  (1 found)
0x00055d51: jmp edx ;  (1 found)
0x00129059: jmp edx ;  (1 found)
0x0016603b: jmp edx ;  (1 found)
0x00166e67: jmp edx ;  (1 found)
0x00166f27: jmp edx ;  (1 found)
0x00167477: jmp edx ;  (1 found)
0x0016762b: jmp edx ;  (1 found)
0x00119a49: jmp esi ;  (1 found)
0x00179c33: jmp esi ;  (1 found)
0x00166163: jmp esp ;  (1 found)
0x0016667b: jmp esp ;  (1 found)
0x00166c43: jmp esp ;  (1 found)
0x0016723b: jmp esp ;  (1 found)
0x00167543: jmp esp ;  (1 found)
0x0016755b: jmp esp ;  (1 found)
0x00167c33: jmp esp ;  (1 found)
0x00168b5b: jmp esp ;  (1 found)
0x00169c6b: jmp esp ;  (1 found)
0x00169d23: jmp esp ;  (1 found)
0x00169e23: jmp esp ;  (1 found)
0x00158925: lahf  ; retn 0x871E ;  (1 found)
0x000d6f3e: lahf  ; retn 0xE083 ;  (1 found)
0x0018783d: lds eax,  [ebx+0x0B] ; dec ecx ; ret  ;  (1 found)
0x00189c45: lds eax,  [ecx+0x0B] ; add bl, byte [esi+0x0A] ; ret  ;  (1 found)
0x00195d22: lds eax,  [ecx+0x0B] ; add cl, byte [esi+0x43140E0A] ; ret  ;  (1 found)
0x00197d46: lds eax,  [edi+0x0B] ; add ch, byte [ebp+0x41140E0A] ; ret  ;  (1 found)
0x0019805d: lds eax,  [edx+0x0B] ; add dl, byte [edi+0x43140E0A] ; ret  ;  (1 found)
0x00196225: lds ecx,  [eax+0x0B] ; add bl, byte [ecx+0x0A] ; ret  ;  (1 found)
0x000a572f: lds ecx,  [ecx+0x5D5F5EE8] ; ret  ;  (1 found)
0x00166028: lds edx, ecx ; cld  ; jmp ebp ;  (1 found)
0x00148f51: lea eax, dword [eax+0x03] ; pop edi ; ret  ;  (1 found)
0x00149025: lea eax, dword [eax+0x05] ; pop edi ; ret  ;  (1 found)
0x00149035: lea eax, dword [eax+0x06] ; pop edi ; ret  ;  (1 found)
0x00149045: lea eax, dword [eax+0x08] ; pop edi ; ret  ;  (1 found)
0x00149055: lea eax, dword [eax+0x09] ; pop edi ; ret  ;  (1 found)
0x00149065: lea eax, dword [eax+0x0A] ; pop edi ; ret  ;  (1 found)
0x00149075: lea eax, dword [eax+0x0C] ; pop edi ; ret  ;  (1 found)
0x000b9b70: lea eax, dword [eax+eax-0x01] ; ret  ;  (1 found)
0x00095833: lea eax, dword [eax+ecx+0x10] ; ret  ;  (1 found)
0x00095843: lea eax, dword [eax+ecx+0x20] ; ret  ;  (1 found)
0x00095853: lea eax, dword [eax+ecx+0x30] ; ret  ;  (1 found)
0x00095973: lea eax, dword [eax+edi+0x10] ; pop edi ; ret  ;  (1 found)
0x00095563: lea eax, dword [eax+edi-0x10] ; pop edi ; ret  ;  (1 found)
0x00095c73: lea eax, dword [eax+edx-0x10] ; ret  ;  (1 found)
0x00127276: lea eax, dword [ebp-0x28] ; call dword [esi+0x00000198] ;  (1 found)
0x00019b3b: lea eax, dword [ebx+0x0000368C] ; pop ebx ; ret  ;  (1 found)
0x0009812c: lea eax, dword [ebx-0x000595D4] ; pop ebx ; ret  ;  (1 found)
0x00097e6c: lea eax, dword [ebx-0x000FBD84] ; pop ebx ; ret  ;  (1 found)
0x00097d4c: lea eax, dword [ebx-0x000FCAA4] ; pop ebx ; ret  ;  (1 found)
0x00148430: lea eax, dword [ecx+0x01] ; ret  ;  (1 found)
0x00148440: lea eax, dword [ecx+0x02] ; ret  ;  (1 found)
0x00148450: lea eax, dword [ecx+0x03] ; ret  ;  (1 found)
0x00148460: lea eax, dword [ecx+0x05] ; ret  ;  (1 found)
0x00148470: lea eax, dword [ecx+0x06] ; ret  ;  (1 found)
0x0014864a: lea eax, dword [ecx+0x08] ; ret  ;  (1 found)
0x0014842b: lea eax, dword [ecx+0x0C] ; ret  ;  (1 found)
0x00148674: lea eax, dword [ecx+0x0C] ; ret  ;  (1 found)
0x00148725: lea eax, dword [ecx+0x0E] ; ret  ;  (1 found)
0x00148735: lea eax, dword [ecx+0x0F] ; ret  ;  (1 found)
0x00095879: lea eax, dword [ecx+eax+0x10] ; ret  ;  (1 found)
0x0009587a: lea eax, dword [ecx+eax+0x10] ; ret  ;  (1 found)
0x0001965b: lea eax, dword [ecx-0x00043DEE] ; ret  ;  (1 found)
0x0001963b: lea eax, dword [ecx-0x00046116] ; ret  ;  (1 found)
0x00147e40: lea eax, dword [edi+0x01] ; pop edi ; ret  ;  (1 found)
0x00147420: lea eax, dword [edi+0x02] ; pop edi ; ret  ;  (1 found)
0x00147e50: lea eax, dword [edi+0x02] ; pop edi ; ret  ;  (1 found)
0x00147430: lea eax, dword [edi+0x03] ; pop edi ; ret  ;  (1 found)
0x00147d35: lea eax, dword [edi+0x03] ; pop edi ; ret  ;  (1 found)
0x00147f20: lea eax, dword [edi+0x03] ; pop edi ; ret  ;  (1 found)
0x00147440: lea eax, dword [edi+0x04] ; pop edi ; ret  ;  (1 found)
0x00147e60: lea eax, dword [edi+0x04] ; pop edi ; ret  ;  (1 found)
0x00147450: lea eax, dword [edi+0x05] ; pop edi ; ret  ;  (1 found)
0x00147e70: lea eax, dword [edi+0x05] ; pop edi ; ret  ;  (1 found)
0x00147460: lea eax, dword [edi+0x06] ; pop edi ; ret  ;  (1 found)
0x0014726d: lea eax, dword [edi+0x07] ; pop edi ; ret  ;  (1 found)
0x00147d58: lea eax, dword [edi+0x07] ; pop edi ; ret  ;  (1 found)
0x00147f51: lea eax, dword [edi+0x07] ; pop edi ; ret  ;  (1 found)
0x00147470: lea eax, dword [edi+0x08] ; pop edi ; ret  ;  (1 found)
0x00148025: lea eax, dword [edi+0x08] ; pop edi ; ret  ;  (1 found)
0x00148035: lea eax, dword [edi+0x09] ; pop edi ; ret  ;  (1 found)
0x00148045: lea eax, dword [edi+0x0A] ; pop edi ; ret  ;  (1 found)
0x00147356: lea eax, dword [edi+0x0B] ; pop edi ; ret  ;  (1 found)
0x00148055: lea eax, dword [edi+0x0C] ; pop edi ; ret  ;  (1 found)
0x00148065: lea eax, dword [edi+0x0D] ; pop edi ; ret  ;  (1 found)
0x00148075: lea eax, dword [edi+0x0E] ; pop edi ; ret  ;  (1 found)
0x00147960: lea eax, dword [edi-0x01] ; pop edi ; ret  ;  (1 found)
0x00147950: lea eax, dword [edi-0x02] ; pop edi ; ret  ;  (1 found)
0x00147940: lea eax, dword [edi-0x03] ; pop edi ; ret  ;  (1 found)
0x00149c50: lea eax, dword [edi-0x04] ; pop edi ; ret  ;  (1 found)
0x00147930: lea eax, dword [edi-0x05] ; pop edi ; ret  ;  (1 found)
0x00147920: lea eax, dword [edi-0x06] ; pop edi ; ret  ;  (1 found)
0x00149c35: lea eax, dword [edi-0x08] ; pop edi ; ret  ;  (1 found)
0x00149c40: lea eax, dword [edi-0x08] ; pop edi ; ret  ;  (1 found)
0x00147858: lea eax, dword [edi-0x0C] ; pop edi ; ret  ;  (1 found)
0x00149c20: lea eax, dword [edi-0x0C] ; pop edi ; ret  ;  (1 found)
0x00147833: lea eax, dword [edi-0x10] ; pop edi ; ret  ;  (1 found)
0x00149b6d: lea eax, dword [edi-0x10] ; pop edi ; ret  ;  (1 found)
0x00089b56: lea eax, dword [edx+0x01] ; ret  ;  (1 found)
0x00089a2c: lea eax, dword [edx+0x02] ; pop edi ; ret  ;  (1 found)
0x00089b6c: lea eax, dword [edx+0x02] ; ret  ;  (1 found)
0x00089944: lea eax, dword [edx+0x03] ; pop edi ; ret  ;  (1 found)
0x00089b74: lea eax, dword [edx+0x03] ; ret  ;  (1 found)
0x00089a4a: lea eax, dword [edx+0x04] ; pop edi ; ret  ;  (1 found)
0x00089a5c: lea eax, dword [edx+0x05] ; pop edi ; ret  ;  (1 found)
0x00089a7a: lea eax, dword [edx+0x06] ; pop edi ; ret  ;  (1 found)
0x00089978: lea eax, dword [edx+0x07] ; pop edi ; ret  ;  (1 found)
0x00148a28: lea eax, dword [edx+0x07] ; ret  ;  (1 found)
0x00089c2e: lea eax, dword [edx+0x0B] ; ret  ;  (1 found)
0x00148a52: lea eax, dword [edx+0x0B] ; ret  ;  (1 found)
0x00089c52: lea eax, dword [edx+0x0C] ; ret  ;  (1 found)
0x00089c72: lea eax, dword [edx+0x0D] ; ret  ;  (1 found)
0x00148b20: lea eax, dword [edx+0x0D] ; ret  ;  (1 found)
0x00089b32: lea eax, dword [edx+0x0E] ; pop edi ; ret  ;  (1 found)
0x00148b30: lea eax, dword [edx+0x0E] ; ret  ;  (1 found)
0x00148a7b: lea eax, dword [edx+0x0F] ; ret  ;  (1 found)
0x00095c6a: lea eax, dword [edx+eax+0x30] ; ret  ;  (1 found)
0x00089b44: lea eax, dword [edx] ; ret  ;  (1 found)
0x00178e41: lea ebp, edi ; out dx, al ; jmp dword [edx] ;  (1 found)
0x0014843a: lea edi, dword [edi+0x00000000] ; lea eax, dword [ecx+0x02] ; ret  ;  (1 found)
0x0014844a: lea edi, dword [edi+0x00000000] ; lea eax, dword [ecx+0x03] ; ret  ;  (1 found)
0x0014845a: lea edi, dword [edi+0x00000000] ; lea eax, dword [ecx+0x05] ; ret  ;  (1 found)
0x0014846a: lea edi, dword [edi+0x00000000] ; lea eax, dword [ecx+0x06] ; ret  ;  (1 found)
0x0014847a: lea edi, dword [edi+0x00000000] ; lea eax, dword [ecx+0x07] ; ret  ;  (1 found)
0x00148b2a: lea edi, dword [edi+0x00000000] ; lea eax, dword [edx+0x0E] ; ret  ;  (1 found)
0x000a7429: lea edi, dword [edi+0x00000000] ; mov eax, 0x00000004 ; ret  ;  (1 found)
0x000a7439: lea edi, dword [edi+0x00000000] ; mov eax, 0x00000005 ; ret  ;  (1 found)
0x000a7449: lea edi, dword [edi+0x00000000] ; mov eax, 0x00000006 ; ret  ;  (1 found)
0x000a7459: lea edi, dword [edi+0x00000000] ; mov eax, 0x00000007 ; ret  ;  (1 found)
0x00145779: lea edi, dword [edi+0x00000000] ; xor eax, eax ; ret  ;  (1 found)
0x00148b3a: lea edi, dword [edi+0x00000000] ; xor eax, eax ; ret  ;  (1 found)
0x00149269: lea edi, dword [edi+0x00000000] ; xor eax, eax ; ret  ;  (1 found)
0x00126867: lea edx, dword [ebp+0x000004DC] ; mov dword [esp], edx ; call dword [ebp+0x000007F8] ;  (1 found)
0x000b483a: lea esi, dword [esi+0x00000000] ; mov dword [esp], edi ; call esi ;  (1 found)
0x000b4a3a: lea esi, dword [esi+0x00000000] ; mov dword [esp], edi ; call esi ;  (1 found)
0x000a722a: lea esi, dword [esi+0x00000000] ; xor eax, eax ; ret  ;  (1 found)
0x000b9b39: lea esi, dword [esi+0x00000000] ; xor eax, eax ; ret  ;  (1 found)
0x00148739: lea esi, dword [esi+0x00000000] ; xor eax, eax ; ret  ;  (1 found)
0x0009842c: lea esi, dword [esi+0x00] ; add eax, 0x08 ; ret  ;  (1 found)
0x00115f3c: lea esi, dword [esi+0x00] ; rep ret  ;  (1 found)
0x0009843c: lea esi, dword [esi+0x00] ; ret  ;  (1 found)
0x000b906c: lea esi, dword [esi+0x00] ; ret  ;  (1 found)
0x0014982c: lea esi, dword [esi+0x00] ; ret  ;  (1 found)
0x00196749: lea esi, edi ; call dword [ecx+0x00000000] ;  (1 found)
0x0016656c: leave  ; fdivr st0, st4 ; jmp dword [esi-0x28] ;  (1 found)
0x00176b7e: leave  ; out dx, al ; jmp dword [edx] ;  (1 found)
0x00095a73: les eax,  [0x5F5EFD47+ecx*4] ; pop ebp ; ret  ;  (1 found)
0x00095a69: les eax,  [0x5F5EFE47+ecx*4] ; pop ebp ; ret  ;  (1 found)
0x00095a5f: les eax,  [0x5F5EFF47+ecx*4] ; pop ebp ; ret  ;  (1 found)
0x00027734: les ebp,  [eax] ; pop ebx ; ret  ;  (1 found)
0x00028e4c: les ebp,  [eax] ; pop ebx ; ret  ;  (1 found)
0x00034031: les ebp,  [eax] ; pop ebx ; ret  ;  (1 found)
0x00065c74: les ebp,  [eax] ; pop ebx ; ret  ;  (1 found)
0x00098e4c: les ebp,  [eax] ; pop ebx ; ret  ;  (1 found)
0x00099a51: les ebp,  [eax] ; pop ebx ; ret  ;  (1 found)
0x00099b41: les ebp,  [eax] ; pop ebx ; ret  ;  (1 found)
0x00099c31: les ebp,  [eax] ; pop ebx ; ret  ;  (1 found)
0x000b5c41: les ebp,  [eax] ; pop ebx ; ret  ;  (1 found)
0x000c524c: les ebp,  [eax] ; pop ebx ; ret  ;  (1 found)
0x000c534c: les ebp,  [eax] ; pop ebx ; ret  ;  (1 found)
0x000f484f: les ebp,  [eax] ; pop ebx ; ret  ;  (1 found)
0x000f5d21: les ebp,  [eax] ; pop ebx ; ret  ;  (1 found)
0x00104c42: les ebp,  [eax] ; pop ebx ; ret  ;  (1 found)
0x00106e7f: les ebp,  [eax] ; pop ebx ; ret  ;  (1 found)
0x0010776f: les ebp,  [eax] ; pop ebx ; ret  ;  (1 found)
0x0012996f: les ebp,  [eax] ; pop ebx ; ret  ;  (1 found)
0x000a7b41: les ebp,  [edi+ecx] ; scasd  ; retn 0x90C3 ;  (1 found)
0x00035a49: les ebx,  [eax] ; pop ebx ; ret  ;  (1 found)
0x00035b49: les ebx,  [eax] ; pop ebx ; ret  ;  (1 found)
0x00047a40: les ebx,  [eax] ; pop ebx ; ret  ;  (1 found)
0x0005474c: les ebx,  [eax] ; pop ebx ; ret  ;  (1 found)
0x00068b5c: les ebx,  [eax] ; pop ebx ; ret  ;  (1 found)
0x00097c2f: les ebx,  [eax] ; pop ebx ; ret  ;  (1 found)
0x0009897f: les ebx,  [eax] ; pop ebx ; ret  ;  (1 found)
0x00099c79: les ebx,  [eax] ; pop ebx ; ret  ;  (1 found)
0x00099d39: les ebx,  [eax] ; pop ebx ; ret  ;  (1 found)
0x00099d79: les ebx,  [eax] ; pop ebx ; ret  ;  (1 found)
0x000a7c5c: les ebx,  [eax] ; pop ebx ; ret  ;  (1 found)
0x000a8435: les ebx,  [eax] ; pop ebx ; ret  ;  (1 found)
0x000b8770: les ebx,  [eax] ; pop ebx ; ret  ;  (1 found)
0x000b8a70: les ebx,  [eax] ; pop ebx ; ret  ;  (1 found)
0x000e8778: les ebx,  [eax] ; pop ebx ; ret  ;  (1 found)
0x000e883b: les ebx,  [eax] ; pop ebx ; ret  ;  (1 found)
0x000e8a42: les ebx,  [eax] ; pop ebx ; ret  ;  (1 found)
0x000e9a47: les ebx,  [eax] ; pop ebx ; ret  ;  (1 found)
0x00104735: les ebx,  [eax] ; pop ebx ; ret  ;  (1 found)
0x00104832: les ebx,  [eax] ; pop ebx ; ret  ;  (1 found)
0x00104a32: les ebx,  [eax] ; pop ebx ; ret  ;  (1 found)
0x00104d2a: les ebx,  [eax] ; pop ebx ; ret  ;  (1 found)
0x00104e51: les ebx,  [eax] ; pop ebx ; ret  ;  (1 found)
0x0011947a: les ebx,  [eax] ; pop ebx ; ret  ;  (1 found)
0x00119836: les ebx,  [eax] ; pop ebx ; ret  ;  (1 found)
0x0012654c: les ebx,  [eax] ; pop ebx ; ret  ;  (1 found)
0x0012656c: les ebx,  [eax] ; pop ebx ; ret  ;  (1 found)
0x00126c6d: les ebx,  [eax] ; pop ebx ; ret  ;  (1 found)
0x00128b44: les ebx,  [eax] ; pop ebx ; ret  ;  (1 found)
0x00129e43: les ebx,  [eax] ; pop esi ; ret  ;  (1 found)
0x00095f21: les ebx,  [eax] ; ret  ;  (1 found)
0x00115f39: les ebx,  [ebx+eax*8] ; lea esi, dword [esi+0x00] ; rep ret  ;  (1 found)
0x00114e7d: les ebx,  [edi+ecx] ; mov dh, 0xC0 ; ret  ;  (1 found)
0x00167070: les ebx,  [edi] ; std  ; call dword [eax] ;  (1 found)
0x00166f78: les ebx,  [esi] ; std  ; call dword [edi+ebx] ;  (1 found)
0x00096830: les ecx,  [eax] ; pop ebx ; ret  ;  (1 found)
0x000a9366: les ecx,  [eax] ; pop ebx ; ret  ;  (1 found)
0x000c5c70: les ecx,  [eax] ; pop ebx ; ret  ;  (1 found)
0x00124b38: les ecx,  [eax] ; pop ebx ; ret  ;  (1 found)
0x00126525: les ecx,  [eax] ; pop ebx ; ret  ;  (1 found)
0x00025f7d: les ecx,  [eax] ; ret  ;  (1 found)
0x00067f54: les ecx,  [eax] ; ret  ;  (1 found)
0x000b8620: les ecx,  [eax] ; ret  ;  (1 found)
0x000b9420: les ecx,  [eax] ; ret  ;  (1 found)
0x000c5d30: les ecx,  [eax] ; ret  ;  (1 found)
0x000d843a: les ecx,  [eax] ; ret  ;  (1 found)
0x000d8467: les ecx,  [eax] ; ret  ;  (1 found)
0x000e8232: les ecx,  [eax] ; ret  ;  (1 found)
0x000e9774: les ecx,  [eax] ; ret  ;  (1 found)
0x000e9860: les ecx,  [eax] ; ret  ;  (1 found)
0x00126632: les ecx,  [eax] ; ret  ;  (1 found)
0x00178174: les ecx,  [edx+0x26CE0000] ; sti  ; call dword [eax] ;  (1 found)
0x000b9147: les edi,  [eax] ; pop ebx ; ret  ;  (1 found)
0x000e7a29: les edi,  [eax] ; pop ebx ; ret  ;  (1 found)
0x0019914c: les edi,  [esi] ; clc  ; jmp dword [edi] ;  (1 found)
0x000c5d6a: les edx,  [ebx+ebx*2] ; pop esi ; ret  ;  (1 found)
0x00124d32: les edx,  [ecx+ecx*4] ; rcr byte [ebx+0x5E], 1  ; ret  ;  (1 found)
0x00167c50: les esi,  [ebx+ebp*8] ; jmp dword [eax+0x7E] ;  (1 found)
0x00126e37: les esi,  [ebx+ebx*2] ; pop esi ; ret  ;  (1 found)
0x00126e64: les esi,  [ebx+ebx*2] ; pop esi ; ret  ;  (1 found)
0x000e8445: les esp,  [ebx+ebx*2] ; pop esi ; ret  ;  (1 found)
0x00127850: les esp,  [esi+ebx*2] ; pop edi ; ret  ;  (1 found)
0x00169972: lock inc dword [esi+ebp-0x489BFFFF] ; push dword [esi+ebp-0x485BFFFF] ; call esp ;  (1 found)
0x0016923a: lock inc dword [esi+edi*8+0x1BE40000] ; jmp dword [esi+edi*8+0x1C040000] ;  (1 found)
0x0016962c: lock sbb byte [ecx], al ; add byte [edx+0x6C], bh ; jmp dword [eax] ;  (1 found)
0x00175d5c: lodsb  ; add byte [eax], al ; ret  ;  (1 found)
0x00197444: lodsb  ; ret  ;  (1 found)
0x00188154: lodsb  ; sal bl, 1  ; call dword [eax+0x00] ;  (1 found)
0x0000943a: ltr word [ecx+0x12000000] ; add byte [eax+eax], cl ; retn 0x0038 ;  (1 found)
0x000c584b: mov ah, 0x00 ; add byte [eax], al ; call dword [0x00000010] ;  (1 found)
0x00168068: mov ah, 0x16 ; in al, dx ; call dword [eax-0x68] ;  (1 found)
0x00169238: mov ah, 0x1B ; lock inc dword [esi+edi*8+0x1BE40000] ; jmp dword [esi+edi*8+0x1C040000] ;  (1 found)
0x00169558: mov ah, 0x5A ; jmp dword [0x5C340001+edx] ;  (1 found)
0x00177464: mov ah, 0x7D ; add byte [eax], al ; retn 0xEF13 ;  (1 found)
0x000a5448: mov ah, 0x83 ; retn 0x3901 ;  (1 found)
0x00169850: mov ah, 0xA1 ; jmp dword [ecx+ebp] ;  (1 found)
0x00168d20: mov ah, 0xCD ; out dx, eax ; jmp dword [eax-0x4AFFFF1F] ;  (1 found)
0x00166160: mov ah, 0xD3 ; cld  ; jmp esp ;  (1 found)
0x00166678: mov ah, 0xDA ; cld  ; jmp esp ;  (1 found)
0x00168e70: mov ah, 0xDE ; out dx, eax ; call dword [eax-0x17] ;  (1 found)
0x00049359: mov ah, 0xE9 ; ret  ;  (1 found)
0x00167d71: mov ah, 0xEB ; call dword [eax+ecx*4+0x00] ;  (1 found)
0x00078f35: mov ah, 0xFF ; call dword [eax+0x0026B48D] ;  (1 found)
0x00168545: mov al, 0x00 ; add byte [edi+ebp*4-0x14], ah ; call eax ;  (1 found)
0x0016853d: mov al, 0x00 ; add byte [edi+ebp*4-0x14], dl ; jmp dword [eax+0x640000B0] ;  (1 found)
0x000e9a7f: mov al, 0x01 ; pop ebx ; ret  ;  (1 found)
0x00178a70: mov al, 0x2E ; out dx, eax ; call dword [esi+0x00] ;  (1 found)
0x00024447: mov al, 0x83 ; retn 0x8901 ;  (1 found)
0x00166764: mov al, 0xD9 ; cld  ; jmp eax ;  (1 found)
0x00166840: mov al, 0xE6 ; cld  ; jmp dword [eax-0x19] ;  (1 found)
0x00167d61: mov al, 0xEB ; call eax ;  (1 found)
0x00168e4c: mov al, byte [0x140000E7] ; fucomp st7 ; call dword [eax-0x6AFFFF18] ;  (1 found)
0x00195250: mov al, byte [0x3F00025B] ; xor al, 0xF7 ; call dword [eax] ;  (1 found)
0x000c5537: mov al, byte [0x65000000] ; call dword [0x00000010] ;  (1 found)
0x00019a2d: mov al, byte [0x89000036] ; retn 0xC589 ;  (1 found)
0x00187c21: mov al, byte [ecx] ; add byte [esi+esi], cl ; call dword [ecx] ;  (1 found)
0x00117148: mov bh, 0xEB ; ret  ;  (1 found)
0x00175b4e: mov bh, 0xEE ; jmp dword [edx] ;  (1 found)
0x00169978: mov bh, 0xF0 ; push dword [esi+ebp-0x485BFFFF] ; call esp ;  (1 found)
0x00169979: mov bh, 0xF0 ; push dword [esi+ebp-0x485BFFFF] ; call esp ;  (1 found)
0x00199757: mov bl, 0x00000041 ; or ebx, dword [eax+0x0A] ; ret  ;  (1 found)
0x0017422a: mov bl, 0x00000042 ; or esi, dword [ebx+0x0A] ; ret  ;  (1 found)
0x00196a33: mov bl, 0x00000044 ; or edx, dword [ecx+0x0A] ; ret  ;  (1 found)
0x00169949: mov bl, 0xF0 ; jmp eax ;  (1 found)
0x00177b65: mov bl, cl ; out dx, al ; jmp dword [edx] ;  (1 found)
0x00139f40: mov byte [0x030002D1], al ; sbb al, 0x8B ; jmp ebx ;  (1 found)
0x00199469: mov byte [0x4D440002], al ; clc  ; jmp dword [ebx] ;  (1 found)
0x000a563a: mov byte [0x890004DB], al ; retn 0x068B ;  (1 found)
0x00019a28: mov byte [0x9389DE87], al ; mov al, byte [0x89000036] ; retn 0xC589 ;  (1 found)
0x00166034: mov byte [0xC2FFFCD1], al ; sar esp, 1  ; jmp edx ;  (1 found)
0x0014685a: mov byte [0xF6000000], al ; retn 0x7501 ;  (1 found)
0x0014913f: mov byte [eax], 0x00000000 ; add byte [ebx-0x7BF0FC01], al ; retn 0x0000 ;  (1 found)
0x00185438: mov byte [ebp+0x01], bl ; add byte [eax+0x42], cl ; call dword [eax] ;  (1 found)
0x0016843c: mov byte [ebx-0x6DFC0000], ch ; in al, dx ; jmp eax ;  (1 found)
0x00175478: mov byte [ebx], al ; out dx, al ; call dword [ecx] ;  (1 found)
0x00087633: mov byte [ecx+0x02], dl ; pop ebx ; ret  ;  (1 found)
0x00087652: mov byte [ecx+0x04], dl ; pop ebx ; ret  ;  (1 found)
0x00184e2d: mov byte [ecx+0x0E], 0x00000004 ; ret  ;  (1 found)
0x00184e3c: mov byte [ecx+0x0E], 0x00000004 ; ret  ;  (1 found)
0x000a8b33: mov byte [ecx], 0xFFFFFF83 ; retn 0x0F01 ;  (1 found)
0x00187a41: mov byte [ecx], al ; add byte [edx-0x0D], bl ; jmp dword [eax+0x03] ;  (1 found)
0x00129564: mov byte [edi], cl ; hlt  ; call dword [eax+0x0026B48D] ;  (1 found)
0x0004972a: mov byte [edi], cl ; inc esp ; retn 0x4589 ;  (1 found)
0x00089b69: mov byte [edx+0x02], al ; lea eax, dword [edx+0x02] ; ret  ;  (1 found)
0x00146855: mov byte [edx+edx*8+0x00A2840F], 0x00000000 ; add dh, dh ; retn 0x7501 ;  (1 found)
0x00134036: mov byte [edx-0x01], al ; pop ebx ; ret  ;  (1 found)
0x0013415c: mov byte [edx-0x01], al ; pop ebx ; ret  ;  (1 found)
0x0013423f: mov byte [edx-0x01], al ; pop ebx ; ret  ;  (1 found)
0x00089b42: mov byte [edx], al ; lea eax, dword [edx] ; ret  ;  (1 found)
0x00085762: mov byte [edx], al ; mov eax, edx ; ret  ;  (1 found)
0x000c592b: mov ch, 0x00 ; add byte [eax], al ; call dword [0x00000010] ;  (1 found)
0x00168d28: mov ch, 0xCE ; out dx, eax ; call dword [eax] ;  (1 found)
0x00166528: mov ch, 0xD8 ; cld  ; call ebp ;  (1 found)
0x00166724: mov ch, 0xD9 ; cld  ; jmp ebp ;  (1 found)
0x00169951: mov ch, 0xF0 ; jmp dword [eax] ;  (1 found)
0x00197139: mov cl, 0xF7 ; jmp dword [esi] ;  (1 found)
0x000d5649: mov dh, 0x2C ; xor ebx, ebp ; ret  ;  (1 found)
0x00135057: mov dh, 0x40 ; jmp dword [esi-0x77] ;  (1 found)
0x00135349: mov dh, 0x40 ; jmp dword [esi-0x77] ;  (1 found)
0x00136743: mov dh, 0x40 ; jmp dword [esi-0x77] ;  (1 found)
0x00136779: mov dh, 0x40 ; jmp dword [esi-0x77] ;  (1 found)
0x00137967: mov dh, 0x40 ; jmp dword [esi-0x77] ;  (1 found)
0x00137c23: mov dh, 0x40 ; jmp dword [esi-0x77] ;  (1 found)
0x00137c59: mov dh, 0x40 ; jmp dword [esi-0x77] ;  (1 found)
0x00138e57: mov dh, 0x40 ; jmp dword [esi-0x77] ;  (1 found)
0x00139e27: mov dh, 0x40 ; jmp dword [esi-0x77] ;  (1 found)
0x000b9b6e: mov dh, 0xC0 ; lea eax, dword [eax+eax-0x01] ; ret  ;  (1 found)
0x00166078: mov dh, 0xD1 ; cld  ; call esi ;  (1 found)
0x0017477e: mov dh, 0xEC ; jmp dword [edx] ;  (1 found)
0x00107747: mov di, seg? ; dec dword [ebx-0x0000F76D] ; jmp dword [ebp-0x75] ;  (1 found)
0x00107826: mov di, seg? ; dec dword [ebx-0x0000F76D] ; jmp dword [ebp-0x75] ;  (1 found)
0x0019665d: mov di, seg? ; jmp dword [ebp+0x00000000] ;  (1 found)
0x00179771: mov dl, 0x01 ; out dx, eax ; jmp dword [edx] ;  (1 found)
0x00175439: mov dl, 0xD5 ; in eax, dx ; jmp dword [edx] ;  (1 found)
0x00166538: mov dl, 0xD8 ; cld  ; call edx ;  (1 found)
0x00199521: mov dword [0x4FFC0002], eax ; clc  ; jmp dword [edx] ;  (1 found)
0x00179565: mov dword [0x54A80000], eax ; out dx, eax ; jmp ebp ;  (1 found)
0x000d936a: mov dword [eax+0x00000108], edx ; xor eax, eax ; ret  ;  (1 found)
0x000d9354: mov dword [eax+0x0000010C], edx ; xor eax, eax ; ret  ;  (1 found)
0x000d8432: mov dword [eax+0x04], 0x00000000 ; add esp, 0x08 ; ret  ;  (1 found)
0x000d8a58: mov dword [eax+0x04], edx ; xor eax, eax ; ret  ;  (1 found)
0x000d8463: mov dword [eax+0x08], edx ; add esp, 0x08 ; ret  ;  (1 found)
0x00068136: mov dword [eax], 0x00000009 ; mov eax, 0xFFFFFFFF ; ret  ;  (1 found)
0x00068137: mov dword [eax], 0x00000009 ; mov eax, 0xFFFFFFFF ; ret  ;  (1 found)
0x000e8938: mov dword [eax], 0x00000016 ; mov eax, 0xFFFFFFFF ; ret  ;  (1 found)
0x000e8939: mov dword [eax], 0x00000016 ; mov eax, 0xFFFFFFFF ; ret  ;  (1 found)
0x000e8978: mov dword [eax], 0x00000016 ; mov eax, 0xFFFFFFFF ; ret  ;  (1 found)
0x000e8979: mov dword [eax], 0x00000016 ; mov eax, 0xFFFFFFFF ; ret  ;  (1 found)
0x000e8929: mov dword [eax], 0x00000026 ; mov eax, 0xFFFFFFFF ; ret  ;  (1 found)
0x000e892a: mov dword [eax], 0x00000026 ; mov eax, 0xFFFFFFFF ; ret  ;  (1 found)
0x000e8969: mov dword [eax], 0x00000026 ; mov eax, 0xFFFFFFFF ; ret  ;  (1 found)
0x000e896a: mov dword [eax], 0x00000026 ; mov eax, 0xFFFFFFFF ; ret  ;  (1 found)
0x000e9924: mov dword [eax], edx ; rep ret  ;  (1 found)
0x00078225: mov dword [eax], edx ; ret  ;  (1 found)
0x000d8a2d: mov dword [eax], edx ; xor eax, eax ; ret  ;  (1 found)
0x000d8a4b: mov dword [eax], edx ; xor eax, eax ; ret  ;  (1 found)
0x000d927e: mov dword [eax], edx ; xor eax, eax ; ret  ;  (1 found)
0x0004504a: mov dword [ebp-0x000004B8], edi ; jmp edx ;  (1 found)
0x00045040: mov dword [ebp-0x00000510], 0x00000001 ; mov dword [ebp-0x000004B8], edi ; jmp edx ;  (1 found)
0x00044123: mov dword [ebp-0x0000057C], edx ; call dword [eax+0x1C] ;  (1 found)
0x00044221: mov dword [ebp-0x0000057C], edx ; call dword [eax+0x1C] ;  (1 found)
0x00045f44: mov dword [ebp-0x0000057C], edx ; call dword [eax+0x1C] ;  (1 found)
0x00046042: mov dword [ebp-0x0000057C], edx ; call dword [eax+0x1C] ;  (1 found)
0x00044725: mov dword [ebp-0x0000057C], edx ; mov dword [ebp-0x00000580], ecx ; call dword [eax+0x1C] ;  (1 found)
0x0004472b: mov dword [ebp-0x00000580], ecx ; call dword [eax+0x1C] ;  (1 found)
0x00195a49: mov dword [ebp-0x0A], ecx ; jmp dword [edx] ;  (1 found)
0x00038346: mov dword [ebp-0x5A71F001], 0x89FFFFFE ; retn 0x18E9 ;  (1 found)
0x00127273: mov dword [ebp-0x6C], esi ; lea eax, dword [ebp-0x28] ; call dword [esi+0x00000198] ;  (1 found)
0x00019348: mov dword [ecx+0x00000504], edx ; pop ebx ; ret  ;  (1 found)
0x00078228: mov dword [ecx+0x0000190C], 0x00000000 ; ret  ;  (1 found)
0x00087672: mov dword [ecx+0x03], edx ; pop ebx ; ret  ;  (1 found)
0x00087663: mov dword [ecx+0x04], edx ; pop ebx ; ret  ;  (1 found)
0x0017443d: mov dword [ecx+0x0B], 0x100E0A55 ; inc ebx ; ret  ;  (1 found)
0x00184560: mov dword [ecx+0x0C], 0x41C50404 ; or ebp, dword [esi+0x0A] ; ret  ;  (1 found)
0x0018832b: mov dword [ecx+0x0C], 0x41C50404 ; or edx, dword [esi+0x0A] ; ret  ;  (1 found)
0x00175830: mov dword [ecx+0x0C], 0x44C50404 ; or ebx, dword [edx+0x0A] ; ret  ;  (1 found)
0x0018417e: mov dword [ecx+0x0E], 0x0B41C504 ; add ah, byte [ebp+0x41140E0A] ; ret  ;  (1 found)
0x00198059: mov dword [ecx+0x0E], 0x0B42C504 ; add dl, byte [edi+0x43140E0A] ; ret  ;  (1 found)
0x00197d42: mov dword [ecx+0x0E], 0x0B47C504 ; add ch, byte [ebp+0x41140E0A] ; ret  ;  (1 found)
0x000d765f: mov dword [ecx], 0xFFFF24E9 ; jmp dword [esi-0x39] ;  (1 found)
0x00087621: mov dword [ecx], edx ; pop ebx ; ret  ;  (1 found)
0x00087640: mov dword [ecx], edx ; pop ebx ; ret  ;  (1 found)
0x0008582b: mov dword [edx+0x07], eax ; mov eax, edx ; ret  ;  (1 found)
0x00089c2b: mov dword [edx+0x08], eax ; lea eax, dword [edx+0x0B] ; ret  ;  (1 found)
0x0008584b: mov dword [edx+0x08], eax ; mov eax, edx ; ret  ;  (1 found)
0x000e4d79: mov dword [edx+0x3E], eax ; xor eax, eax ; ret  ;  (1 found)
0x00134067: mov dword [edx-0x02], eax ; pop ebx ; ret  ;  (1 found)
0x00134129: mov dword [edx-0x02], eax ; pop ebx ; ret  ;  (1 found)
0x000d7841: mov dword [edx], 0xFFFF27E9 ; call dword [eax+0x0026B48D] ;  (1 found)
0x00089b54: mov dword [edx], eax ; lea eax, dword [edx+0x01] ; ret  ;  (1 found)
0x00089b72: mov dword [edx], eax ; lea eax, dword [edx+0x03] ; ret  ;  (1 found)
0x00085774: mov dword [edx], eax ; mov eax, edx ; ret  ;  (1 found)
0x000a845c: mov dword [edx], eax ; rep ret  ;  (1 found)
0x000d7738: mov dword [edx], ecx ; pop ebx ; ret  ;  (1 found)
0x00118558: mov dword [esp+0x04], 0x00000008 ; mov dword [esp], edi ; call dword [eax+0x18] ;  (1 found)
0x00119f28: mov dword [esp+0x04], eax ; call dword [esp+0x00000090] ;  (1 found)
0x00107e25: mov dword [esp+0x04], eax ; call dword [esp+0x3C] ;  (1 found)
0x00067b71: mov dword [esp+0x04], eax ; mov dword [esp], ebp ; call edi ;  (1 found)
0x00098f68: mov dword [esp+0x04], eax ; mov dword [esp], edi ; call esi ;  (1 found)
0x00079531: mov dword [esp+0x04], ebp ; mov dword [esp+0x08], edx ; call eax ;  (1 found)
0x0006526b: mov dword [esp+0x04], ebp ; mov dword [esp], esi ; call dword [eax+0x1C] ;  (1 found)
0x00066e72: mov dword [esp+0x04], ebp ; mov dword [esp], esi ; call dword [eax+0x2C] ;  (1 found)
0x00126f39: mov dword [esp+0x04], ecx ; call dword [eax+0x04] ;  (1 found)
0x00118624: mov dword [esp+0x04], ecx ; mov dword [esp], edi ; call dword [eax+0x24] ;  (1 found)
0x00059260: mov dword [esp+0x04], ecx ; mov dword [esp], esi ; call dword [eax+0x1C] ;  (1 found)
0x00048e73: mov dword [esp+0x04], ecx ; mov dword [esp], esi ; call eax ;  (1 found)
0x00114143: mov dword [esp+0x04], edi ; mov dword [esp], esi ; call dword [eax+0x04] ;  (1 found)
0x00114172: mov dword [esp+0x04], edi ; mov dword [esp], esi ; call dword [eax] ;  (1 found)
0x00116260: mov dword [esp+0x04], edx ; call dword [eax+0x0C] ;  (1 found)
0x0006704c: mov dword [esp+0x04], edx ; call dword [eax+0x2C] ;  (1 found)
0x00079863: mov dword [esp+0x04], edx ; call eax ;  (1 found)
0x00079b62: mov dword [esp+0x04], edx ; call eax ;  (1 found)
0x00115f2d: mov dword [esp+0x04], edx ; mov dword [esp], eax ; call dword [esp+0x24] ;  (1 found)
0x00116b48: mov dword [esp+0x04], edx ; mov dword [esp], eax ; call dword [esp+0x24] ;  (1 found)
0x0011627c: mov dword [esp+0x04], edx ; mov dword [esp], edi ; call dword [eax+0x04] ;  (1 found)
0x0011412e: mov dword [esp+0x04], edx ; mov dword [esp], esi ; call dword [eax+0x04] ;  (1 found)
0x0004476f: mov dword [esp+0x04], edx ; mov dword [esp], esi ; call dword [eax+0x1C] ;  (1 found)
0x00066067: mov dword [esp+0x04], edx ; mov dword [esp], esi ; call dword [eax+0x1C] ;  (1 found)
0x0011415e: mov dword [esp+0x04], edx ; mov dword [esp], esi ; call dword [eax] ;  (1 found)
0x00124844: mov dword [esp+0x04], esi ; mov dword [esp], eax ; call dword [ebx-0x0000146C] ;  (1 found)
0x00067e36: mov dword [esp+0x08], 0x00000000 ; mov dword [esp], ebp ; call dword [eax+0x40] ;  (1 found)
0x00066266: mov dword [esp+0x08], 0x00000000 ; mov dword [esp], edx ; call eax ;  (1 found)
0x00106171: mov dword [esp+0x08], eax ; call dword [esp+0x48] ;  (1 found)
0x00099838: mov dword [esp+0x08], eax ; mov dword [esp], edi ; call esi ;  (1 found)
0x00104f6c: mov dword [esp+0x08], eax ; mov dword [esp], edx ; call dword [ebx+0x00002EC8] ;  (1 found)
0x000c8050: mov dword [esp+0x08], ecx ; call dword [ebp-0x78] ;  (1 found)
0x000c8447: mov dword [esp+0x08], ecx ; call dword [ebp-0x78] ;  (1 found)
0x00067c4e: mov dword [esp+0x08], ecx ; mov dword [esp], edx ; call eax ;  (1 found)
0x00066a3a: mov dword [esp+0x08], ecx ; mov dword [esp], esi ; call dword [eax+0x24] ;  (1 found)
0x00079535: mov dword [esp+0x08], edx ; call eax ;  (1 found)
0x000f8421: mov dword [esp+0x08], edx ; call eax ;  (1 found)
0x00056a5b: mov dword [esp+0x08], edx ; mov dword [esp], esi ; call dword [eax+0x1C] ;  (1 found)
0x00066c7d: mov dword [esp+0x10], edx ; mov dword [esp+0x0C], 0x00000000 ; call dword [eax+0x24] ;  (1 found)
0x00074d65: mov dword [esp+0x18], edx ; mov dword [esp], 0x00000000 ; call dword [ecx] ;  (1 found)
0x00124822: mov dword [esp+0x18], esi ; mov esi, dword [esp+0x24] ; call dword [ebx-0x00001470] ;  (1 found)
0x00114254: mov dword [esp+0x1C], edx ; mov dword [esp], eax ; call dword [esi+0x20] ;  (1 found)
0x00076e25: mov dword [esp+0x28], edx ; call dword [ebp+0x00] ;  (1 found)
0x00076e46: mov dword [esp+0x28], edx ; mov dword [esp+0x2C], ecx ; call eax ;  (1 found)
0x00076e4a: mov dword [esp+0x2C], ecx ; call eax ;  (1 found)
0x00076f56: mov dword [esp], 0x00000000 ; call dword [eax] ;  (1 found)
0x00074d69: mov dword [esp], 0x00000000 ; call dword [ecx] ;  (1 found)
0x00074f42: mov dword [esp], 0x00000000 ; call dword [edx] ;  (1 found)
0x00064a6d: mov dword [esp], eax ; call dword [eax+0x10] ;  (1 found)
0x00065531: mov dword [esp], eax ; call dword [eax+0x10] ;  (1 found)
0x00067464: mov dword [esp], eax ; call dword [eax+0x10] ;  (1 found)
0x00067660: mov dword [esp], eax ; call dword [eax+0x10] ;  (1 found)
0x00124930: mov dword [esp], eax ; call dword [ebx-0x00001464] ;  (1 found)
0x00124848: mov dword [esp], eax ; call dword [ebx-0x0000146C] ;  (1 found)
0x00074d48: mov dword [esp], eax ; call dword [ecx] ;  (1 found)
0x00126828: mov dword [esp], eax ; call dword [edx+0x000001B4] ;  (1 found)
0x00119e27: mov dword [esp], eax ; call dword [edx+0x0C] ;  (1 found)
0x00114258: mov dword [esp], eax ; call dword [esi+0x20] ;  (1 found)
0x0011496b: mov dword [esp], eax ; call dword [esi+0x20] ;  (1 found)
0x00128151: mov dword [esp], eax ; call dword [esp+0x1C] ;  (1 found)
0x0012824d: mov dword [esp], eax ; call dword [esp+0x1C] ;  (1 found)
0x00115f31: mov dword [esp], eax ; call dword [esp+0x24] ;  (1 found)
0x00116b25: mov dword [esp], eax ; call dword [esp+0x24] ;  (1 found)
0x00116b4c: mov dword [esp], eax ; call dword [esp+0x24] ;  (1 found)
0x00127676: mov dword [esp], eax ; call dword [esp+0x38] ;  (1 found)
0x0012774e: mov dword [esp], eax ; call dword [esp+0x38] ;  (1 found)
0x00127773: mov dword [esp], eax ; call dword [esp+0x38] ;  (1 found)
0x000b615e: mov dword [esp], eax ; call dword [esp+0x3C] ;  (1 found)
0x000f4a3e: mov dword [esp], eax ; call dword [esp+0x3C] ;  (1 found)
0x0010696a: mov dword [esp], eax ; call dword [esp+0x3C] ;  (1 found)
0x0010743e: mov dword [esp], eax ; call dword [esp+0x3C] ;  (1 found)
0x00108d7e: mov dword [esp], eax ; call dword [esp+0x3C] ;  (1 found)
0x00108f5e: mov dword [esp], eax ; call dword [esp+0x3C] ;  (1 found)
0x00098678: mov dword [esp], eax ; call edi ;  (1 found)
0x00098d36: mov dword [esp], eax ; call edi ;  (1 found)
0x0009872b: mov dword [esp], eax ; call esi ;  (1 found)
0x0001777f: mov dword [esp], eax ; mov eax, dword [ebp+0x0C] ; call dword [eax] ;  (1 found)
0x00124a4a: mov dword [esp], eax ; mov eax, dword [ebx+0x00000EE0] ; call dword [eax+0x04] ;  (1 found)
0x0001956c: mov dword [esp], eax ; mov eax, dword [ebx-0x000000FC] ; call dword [eax+0x00000194] ;  (1 found)
0x00126d22: mov dword [esp], eax ; mov eax, dword [ebx-0x000000FC] ; call dword [eax+0x000001AC] ;  (1 found)
0x00118f3c: mov dword [esp], ebp ; call dword [eax+0x10] ;  (1 found)
0x00067e3e: mov dword [esp], ebp ; call dword [eax+0x40] ;  (1 found)
0x00067b75: mov dword [esp], ebp ; call edi ;  (1 found)
0x000b4e7f: mov dword [esp], ecx ; mov dword [esp+0x04], edx ; call dword [ebp-0x34] ;  (1 found)
0x00118560: mov dword [esp], edi ; call dword [eax+0x18] ;  (1 found)
0x00118628: mov dword [esp], edi ; call dword [eax+0x24] ;  (1 found)
0x00127443: mov dword [esp], edi ; call dword [esi+0x0000019C] ;  (1 found)
0x00098f6c: mov dword [esp], edi ; call esi ;  (1 found)
0x0009983c: mov dword [esp], edi ; call esi ;  (1 found)
0x000b4840: mov dword [esp], edi ; call esi ;  (1 found)
0x000b4a40: mov dword [esp], edi ; call esi ;  (1 found)
0x00119f25: mov dword [esp], edi ; mov dword [esp+0x04], eax ; call dword [esp+0x00000090] ;  (1 found)
0x0011625d: mov dword [esp], edi ; mov dword [esp+0x04], edx ; call dword [eax+0x0C] ;  (1 found)
0x00126f7c: mov dword [esp], edx ; call dword [eax+0x08] ;  (1 found)
0x0012686d: mov dword [esp], edx ; call dword [ebp+0x000007F8] ;  (1 found)
0x00104f70: mov dword [esp], edx ; call dword [ebx+0x00002EC8] ;  (1 found)
0x00019860: mov dword [esp], edx ; call eax ;  (1 found)
0x0004792f: mov dword [esp], edx ; call eax ;  (1 found)
0x00056522: mov dword [esp], edx ; call eax ;  (1 found)
0x00064f77: mov dword [esp], edx ; call eax ;  (1 found)
0x0006623c: mov dword [esp], edx ; call eax ;  (1 found)
0x0006626e: mov dword [esp], edx ; call eax ;  (1 found)
0x00067c52: mov dword [esp], edx ; call eax ;  (1 found)
0x000b855b: mov dword [esp], edx ; call eax ;  (1 found)
0x000b916b: mov dword [esp], edx ; call eax ;  (1 found)
0x000e7a51: mov dword [esp], edx ; call eax ;  (1 found)
0x00114b78: mov dword [esp], edx ; call eax ;  (1 found)
0x00129e38: mov dword [esp], edx ; call eax ;  (1 found)
0x00107e22: mov dword [esp], edx ; mov dword [esp+0x04], eax ; call dword [esp+0x3C] ;  (1 found)
0x00126f36: mov dword [esp], edx ; mov dword [esp+0x04], ecx ; call dword [eax+0x04] ;  (1 found)
0x00076e22: mov dword [esp], edx ; mov dword [esp+0x28], edx ; call dword [ebp+0x00] ;  (1 found)
0x00126c61: mov dword [esp], edx ; mov eax, dword [eax+0x000001A0] ; call eax ;  (1 found)
0x00114132: mov dword [esp], esi ; call dword [eax+0x04] ;  (1 found)
0x00114147: mov dword [esp], esi ; call dword [eax+0x04] ;  (1 found)
0x0011693e: mov dword [esp], esi ; call dword [eax+0x10] ;  (1 found)
0x00044773: mov dword [esp], esi ; call dword [eax+0x1C] ;  (1 found)
0x00056a5f: mov dword [esp], esi ; call dword [eax+0x1C] ;  (1 found)
0x00059264: mov dword [esp], esi ; call dword [eax+0x1C] ;  (1 found)
0x0006526f: mov dword [esp], esi ; call dword [eax+0x1C] ;  (1 found)
0x0006606b: mov dword [esp], esi ; call dword [eax+0x1C] ;  (1 found)
0x00066a3e: mov dword [esp], esi ; call dword [eax+0x24] ;  (1 found)
0x00066e76: mov dword [esp], esi ; call dword [eax+0x2C] ;  (1 found)
0x00114162: mov dword [esp], esi ; call dword [eax] ;  (1 found)
0x00114176: mov dword [esp], esi ; call dword [eax] ;  (1 found)
0x00074f70: mov dword [esp], esi ; call dword [edx] ;  (1 found)
0x00048e77: mov dword [esp], esi ; call eax ;  (1 found)
0x00116957: mov dword [esp], esi ; call eax ;  (1 found)
0x00044120: mov dword [esp], esi ; mov dword [ebp-0x0000057C], edx ; call dword [eax+0x1C] ;  (1 found)
0x00045f41: mov dword [esp], esi ; mov dword [ebp-0x0000057C], edx ; call dword [eax+0x1C] ;  (1 found)
0x0004603f: mov dword [esp], esi ; mov dword [ebp-0x0000057C], edx ; call dword [eax+0x1C] ;  (1 found)
0x00067049: mov dword [esp], esi ; mov dword [esp+0x04], edx ; call dword [eax+0x2C] ;  (1 found)
0x000c804d: mov dword [esp], esi ; mov dword [esp+0x08], ecx ; call dword [ebp-0x78] ;  (1 found)
0x000c8444: mov dword [esp], esi ; mov dword [esp+0x08], ecx ; call dword [ebp-0x78] ;  (1 found)
0x00179564: mov dword [fs:0x54A80000], eax ; out dx, eax ; jmp ebp ;  (1 found)
0x00107e21: mov dword [fs:esp], edx ; mov dword [esp+0x04], eax ; call dword [esp+0x3C] ;  (1 found)
0x000e8c52: mov eax, 0x00000001 ; pop ebx ; ret  ;  (1 found)
0x000b9b57: mov eax, 0x00000001 ; ret  ;  (1 found)
0x00129a68: mov eax, 0x00000002 ; add esp, 0x0C ; ret  ;  (1 found)
0x000a7420: mov eax, 0x00000003 ; ret  ;  (1 found)
0x00129a4c: mov eax, 0x00000004 ; add esp, 0x0C ; ret  ;  (1 found)
0x000a7430: mov eax, 0x00000004 ; ret  ;  (1 found)
0x000a7440: mov eax, 0x00000005 ; ret  ;  (1 found)
0x00024f51: mov eax, 0x00000006 ; call dword [0x00000010] ;  (1 found)
0x00025770: mov eax, 0x00000006 ; call dword [0x00000010] ;  (1 found)
0x00025868: mov eax, 0x00000006 ; call dword [0x00000010] ;  (1 found)
0x0002946d: mov eax, 0x00000006 ; call dword [0x00000010] ;  (1 found)
0x000b9c61: mov eax, 0x00000006 ; call dword [0x00000010] ;  (1 found)
0x000b9e50: mov eax, 0x00000006 ; call dword [0x00000010] ;  (1 found)
0x000e842b: mov eax, 0x00000006 ; call dword [0x00000010] ;  (1 found)
0x00125a6c: mov eax, 0x00000006 ; call dword [0x00000010] ;  (1 found)
0x000a7450: mov eax, 0x00000006 ; ret  ;  (1 found)
0x000b7d2f: mov eax, 0x00000007 ; call dword [0x00000010] ;  (1 found)
0x000a7460: mov eax, 0x00000007 ; ret  ;  (1 found)
0x00129a58: mov eax, 0x00000008 ; add esp, 0x0C ; ret  ;  (1 found)
0x00149156: mov eax, 0x00000008 ; pop edi ; ret  ;  (1 found)
0x000a844a: mov eax, 0x0000000D ; call dword [0x00000010] ;  (1 found)
0x000b9052: mov eax, 0x00000014 ; call dword [0x00000010] ;  (1 found)
0x000b9a38: mov eax, 0x00000020 ; ret  ;  (1 found)
0x000e603b: mov eax, 0x00000036 ; call dword [0x00000010] ;  (1 found)
0x000e606f: mov eax, 0x00000036 ; call dword [0x00000010] ;  (1 found)
0x000e6323: mov eax, 0x00000036 ; call dword [0x00000010] ;  (1 found)
0x000e635e: mov eax, 0x00000036 ; call dword [0x00000010] ;  (1 found)
0x000e8056: mov eax, 0x0000003D ; call dword [0x00000010] ;  (1 found)
0x000b9320: mov eax, 0x00000041 ; call dword [0x00000010] ;  (1 found)
0x000e7d4a: mov eax, 0x0000004A ; call dword [0x00000010] ;  (1 found)
0x000a846a: mov eax, 0x0000004E ; call dword [0x00000010] ;  (1 found)
0x000e8476: mov eax, 0x0000006F ; call dword [0x00000010] ;  (1 found)
0x000b7c66: mov eax, 0x00000072 ; call dword [0x00000010] ;  (1 found)
0x000b9922: mov eax, 0x0000007F ; pop ebx ; ret  ;  (1 found)
0x000e7e71: mov eax, 0x0000008E ; call dword [0x00000010] ;  (1 found)
0x000e6d72: mov eax, 0x00000091 ; call dword [0x00000010] ;  (1 found)
0x000e6e32: mov eax, 0x00000092 ; call dword [0x00000010] ;  (1 found)
0x000e6e74: mov eax, 0x00000092 ; call dword [0x00000010] ;  (1 found)
0x000b9366: mov eax, 0x00000093 ; call dword [0x00000010] ;  (1 found)
0x000e8150: mov eax, 0x00000094 ; call dword [0x00000010] ;  (1 found)
0x000e8173: mov eax, 0x00000094 ; call dword [0x00000010] ;  (1 found)
0x000c543d: mov eax, 0x0000009C ; call dword [0x00000010] ;  (1 found)
0x000c5476: mov eax, 0x0000009D ; call dword [0x00000010] ;  (1 found)
0x000c5536: mov eax, 0x000000A0 ; call dword [0x00000010] ;  (1 found)
0x000c557a: mov eax, 0x000000A1 ; call dword [0x00000010] ;  (1 found)
0x000c584a: mov eax, 0x000000B4 ; call dword [0x00000010] ;  (1 found)
0x000c592a: mov eax, 0x000000B5 ; call dword [0x00000010] ;  (1 found)
0x000e9843: mov eax, 0x000000C1 ; call dword [0x00000010] ;  (1 found)
0x000b955e: mov eax, 0x000000D2 ; call dword [0x00000010] ;  (1 found)
0x000e7b62: mov eax, 0x000000D2 ; call dword [0x00000010] ;  (1 found)
0x000b9463: mov eax, 0x000000D3 ; call dword [0x00000010] ;  (1 found)
0x000b9131: mov eax, 0x000000D5 ; call dword [0x00000010] ;  (1 found)
0x000c5b36: mov eax, 0x000000DB ; call dword [0x00000010] ;  (1 found)
0x000c572d: mov eax, 0x000000F2 ; call dword [0x00000010] ;  (1 found)
0x000b9970: mov eax, 0x000000FA ; pop ebx ; ret  ;  (1 found)
0x000e9576: mov eax, 0x0000010F ; call dword [0x00000010] ;  (1 found)
0x000b7e31: mov eax, 0x0000011C ; call dword [0x00000010] ;  (1 found)
0x000e9757: mov eax, 0x0000012B ; call dword [0x00000010] ;  (1 found)
0x0005556b: mov eax, 0x0000012E ; call dword [0x00000010] ;  (1 found)
0x000e713f: mov eax, 0x0000014D ; call dword [0x00000010] ;  (1 found)
0x000e7372: mov eax, 0x0000014D ; call dword [0x00000010] ;  (1 found)
0x000e7922: mov eax, 0x0000014E ; call dword [0x00000010] ;  (1 found)
0x000b9978: mov eax, 0x00007D00 ; pop ebx ; ret  ;  (1 found)
0x000b9968: mov eax, 0x0000FFFA ; pop ebx ; ret  ;  (1 found)
0x0013826a: mov eax, 0x030002EC ; sbb al, 0x8B ; jmp ebx ;  (1 found)
0x000d8844: mov eax, 0x89FFFFFC ; retn 0x0CB8 ;  (1 found)
0x00157a58: mov eax, 0xBCBBBAB9 ; mov ebp, 0xC1C0BFBE ; retn 0xC4C3 ;  (1 found)
0x0016867d: mov eax, 0xBE140000 ; in al, dx ; jmp dword [eax+edi*4] ;  (1 found)
0x00169c64: mov eax, 0xF400014D ; sub al, 0xF1 ; jmp esp ;  (1 found)
0x00048565: mov eax, 0xFFFC3BE9 ; call dword [eax+0x0026748D] ;  (1 found)
0x000e5e2d: mov eax, 0xFFFFFFFF ; pop ebx ; ret  ;  (1 found)
0x0006813d: mov eax, 0xFFFFFFFF ; ret  ;  (1 found)
0x000e8930: mov eax, 0xFFFFFFFF ; ret  ;  (1 found)
0x000e893f: mov eax, 0xFFFFFFFF ; ret  ;  (1 found)
0x000e8970: mov eax, 0xFFFFFFFF ; ret  ;  (1 found)
0x000e897f: mov eax, 0xFFFFFFFF ; ret  ;  (1 found)
0x00139141: mov eax, dword [0x030002DF] ; sbb al, 0x8B ; jmp ebx ;  (1 found)
0x00168858: mov eax, dword [0x10FFED74] ; retn 0x0000 ;  (1 found)
0x00199321: mov eax, dword [0x446C0002] ; clc  ; jmp dword [eax] ;  (1 found)
0x00199339: mov eax, dword [0x44740002] ; clc  ; jmp dword [edi] ;  (1 found)
0x000c557b: mov eax, dword [0x65000000] ; call dword [0x00000010] ;  (1 found)
0x00168255: mov eax, dword [0x66240000] ; in al, dx ; call dword [eax-0x2BFFFF5F] ;  (1 found)
0x00168274: mov eax, dword [0x68040000] ; in al, dx ; call dword [edx] ;  (1 found)
0x00168275: mov eax, dword [0x68040000] ; in al, dx ; call dword [edx] ;  (1 found)
0x00009554: mov eax, dword [0xD0000010] ; retn 0x0007 ;  (1 found)
0x00126c64: mov eax, dword [eax+0x000001A0] ; call eax ;  (1 found)
0x00098d33: mov eax, dword [eax+0x08] ; mov dword [esp], eax ; call edi ;  (1 found)
0x00067924: mov eax, dword [eax+0x24] ; mov eax, dword [eax+0x28] ; ret  ;  (1 found)
0x00067927: mov eax, dword [eax+0x28] ; ret  ;  (1 found)
0x00026f78: mov eax, dword [eax+0x30] ; mov eax, dword [eax+edx*4] ; rep ret  ;  (1 found)
0x00129924: mov eax, dword [eax+0x50] ; ret  ;  (1 found)
0x00129934: mov eax, dword [eax+0x5C] ; ret  ;  (1 found)
0x00026f7b: mov eax, dword [eax+edx*4] ; rep ret  ;  (1 found)
0x00127954: mov eax, dword [eax] ; add esp, 0x0C ; ret  ;  (1 found)
0x00127e74: mov eax, dword [eax] ; add esp, 0x0C ; ret  ;  (1 found)
0x00116938: mov eax, dword [ebp+0x000000B0] ; mov dword [esp], esi ; call dword [eax+0x10] ;  (1 found)
0x00098675: mov eax, dword [ebp+0x00] ; mov dword [esp], eax ; call edi ;  (1 found)
0x00098728: mov eax, dword [ebp+0x00] ; mov dword [esp], eax ; call esi ;  (1 found)
0x00064a6a: mov eax, dword [ebp+0x54] ; mov dword [esp], eax ; call dword [eax+0x10] ;  (1 found)
0x00067461: mov eax, dword [ebp+0x54] ; mov dword [esp], eax ; call dword [eax+0x10] ;  (1 found)
0x00127440: mov eax, dword [ebp-0x78] ; mov dword [esp], edi ; call dword [esi+0x0000019C] ;  (1 found)
0x00124a4d: mov eax, dword [ebx+0x00000EE0] ; call dword [eax+0x04] ;  (1 found)
0x0001956f: mov eax, dword [ebx-0x000000FC] ; call dword [eax+0x00000194] ;  (1 found)
0x00126d25: mov eax, dword [ebx-0x000000FC] ; call dword [eax+0x000001AC] ;  (1 found)
0x00076f50: mov eax, dword [ebx-0x0000015C] ; mov dword [esp], 0x00000000 ; call dword [eax] ;  (1 found)
0x0002726b: mov eax, dword [ecx-0x00000090] ; add eax, dword [0x00000000] ; ret  ;  (1 found)
0x0002724b: mov eax, dword [ecx-0x000000C0] ; add eax, dword [0x00000000] ; ret  ;  (1 found)
0x00019b5b: mov eax, dword [ecx-0x000000F8] ; add eax, dword [0x00000000] ; ret  ;  (1 found)
0x0010533b: mov eax, dword [ecx-0x00000100] ; add eax, dword [0x00000000] ; ret  ;  (1 found)
0x0002722b: mov eax, dword [ecx-0x00000130] ; add eax, dword [0x00000000] ; ret  ;  (1 found)
0x00127948: mov eax, dword [edx] ; add esp, 0x0C ; ret  ;  (1 found)
0x00127e68: mov eax, dword [edx] ; add esp, 0x0C ; ret  ;  (1 found)
0x0006552e: mov eax, dword [esi+0x54] ; mov dword [esp], eax ; call dword [eax+0x10] ;  (1 found)
0x0006765d: mov eax, dword [esi+0x54] ; mov dword [esp], eax ; call dword [eax+0x10] ;  (1 found)
0x00114969: mov eax, dword [esi] ; mov dword [esp], eax ; call dword [esi+0x20] ;  (1 found)
0x00118f35: mov eax, dword [esp+0x000001C4] ; mov dword [esp], ebp ; call dword [eax+0x10] ;  (1 found)
0x00027030: mov eax, dword [esp+0x04] ; and eax, 0x7F ; ret  ;  (1 found)
0x00105030: mov eax, dword [esp+0x04] ; bswap eax ; ret  ;  (1 found)
0x00129920: mov eax, dword [esp+0x04] ; mov eax, dword [eax+0x50] ; ret  ;  (1 found)
0x00129930: mov eax, dword [esp+0x04] ; mov eax, dword [eax+0x5C] ; ret  ;  (1 found)
0x00134e48: mov eax, dword [esp+0x08] ; pop ebx ; ret  ;  (1 found)
0x00134f39: mov eax, dword [esp+0x08] ; pop ebx ; ret  ;  (1 found)
0x00135061: mov eax, dword [esp+0x08] ; pop ebx ; ret  ;  (1 found)
0x00135141: mov eax, dword [esp+0x08] ; pop ebx ; ret  ;  (1 found)
0x00135175: mov eax, dword [esp+0x08] ; pop ebx ; ret  ;  (1 found)
0x00135246: mov eax, dword [esp+0x08] ; pop ebx ; ret  ;  (1 found)
0x0013526c: mov eax, dword [esp+0x08] ; pop ebx ; ret  ;  (1 found)
0x00135353: mov eax, dword [esp+0x08] ; pop ebx ; ret  ;  (1 found)
0x0013555d: mov eax, dword [esp+0x08] ; pop ebx ; ret  ;  (1 found)
0x00135638: mov eax, dword [esp+0x08] ; pop ebx ; ret  ;  (1 found)
0x00137758: mov eax, dword [esp+0x08] ; pop ebx ; ret  ;  (1 found)
0x00137849: mov eax, dword [esp+0x08] ; pop ebx ; ret  ;  (1 found)
0x00137927: mov eax, dword [esp+0x08] ; pop ebx ; ret  ;  (1 found)
0x00137971: mov eax, dword [esp+0x08] ; pop ebx ; ret  ;  (1 found)
0x00137a51: mov eax, dword [esp+0x08] ; pop ebx ; ret  ;  (1 found)
0x00137b22: mov eax, dword [esp+0x08] ; pop ebx ; ret  ;  (1 found)
0x00137b56: mov eax, dword [esp+0x08] ; pop ebx ; ret  ;  (1 found)
0x00137b7c: mov eax, dword [esp+0x08] ; pop ebx ; ret  ;  (1 found)
0x00137c2d: mov eax, dword [esp+0x08] ; pop ebx ; ret  ;  (1 found)
0x00137c63: mov eax, dword [esp+0x08] ; pop ebx ; ret  ;  (1 found)
0x00137e20: mov eax, dword [esp+0x08] ; pop ebx ; ret  ;  (1 found)
0x00137e6d: mov eax, dword [esp+0x08] ; pop ebx ; ret  ;  (1 found)
0x00137f48: mov eax, dword [esp+0x08] ; pop ebx ; ret  ;  (1 found)
0x00138d42: mov eax, dword [esp+0x08] ; pop ebx ; ret  ;  (1 found)
0x00138d5c: mov eax, dword [esp+0x08] ; pop ebx ; ret  ;  (1 found)
0x00138e61: mov eax, dword [esp+0x08] ; pop ebx ; ret  ;  (1 found)
0x00139057: mov eax, dword [esp+0x08] ; pop ebx ; ret  ;  (1 found)
0x0012814d: mov eax, dword [esp+0x14] ; mov dword [esp], eax ; call dword [esp+0x1C] ;  (1 found)
0x00128249: mov eax, dword [esp+0x14] ; mov dword [esp], eax ; call dword [esp+0x1C] ;  (1 found)
0x0012492c: mov eax, dword [esp+0x20] ; mov dword [esp], eax ; call dword [ebx-0x00001464] ;  (1 found)
0x00127672: mov eax, dword [esp+0x34] ; mov dword [esp], eax ; call dword [esp+0x38] ;  (1 found)
0x0012774a: mov eax, dword [esp+0x34] ; mov dword [esp], eax ; call dword [esp+0x38] ;  (1 found)
0x0012776f: mov eax, dword [esp+0x34] ; mov dword [esp], eax ; call dword [esp+0x38] ;  (1 found)
0x000b615a: mov eax, dword [esp+0x60] ; mov dword [esp], eax ; call dword [esp+0x3C] ;  (1 found)
0x000f4a3a: mov eax, dword [esp+0x60] ; mov dword [esp], eax ; call dword [esp+0x3C] ;  (1 found)
0x00106966: mov eax, dword [esp+0x60] ; mov dword [esp], eax ; call dword [esp+0x3C] ;  (1 found)
0x0010743a: mov eax, dword [esp+0x60] ; mov dword [esp], eax ; call dword [esp+0x3C] ;  (1 found)
0x00108d7a: mov eax, dword [esp+0x60] ; mov dword [esp], eax ; call dword [esp+0x3C] ;  (1 found)
0x00108f5a: mov eax, dword [esp+0x60] ; mov dword [esp], eax ; call dword [esp+0x3C] ;  (1 found)
0x0010616d: mov eax, dword [esp+0x78] ; mov dword [esp+0x08], eax ; call dword [esp+0x48] ;  (1 found)
0x000b9d68: mov eax, ebx ; sub eax, dword [ebx+esi*4-0x000E9280] ; jmp eax ;  (1 found)
0x00148253: mov eax, ecx ; ret  ;  (1 found)
0x0014833e: mov eax, ecx ; ret  ;  (1 found)
0x0014837a: mov eax, ecx ; ret  ;  (1 found)
0x00148527: mov eax, ecx ; ret  ;  (1 found)
0x0014856a: mov eax, ecx ; ret  ;  (1 found)
0x00085638: mov eax, edi ; pop edi ; ret  ;  (1 found)
0x00085644: mov eax, edi ; pop edi ; ret  ;  (1 found)
0x00085656: mov eax, edi ; pop edi ; ret  ;  (1 found)
0x0008566c: mov eax, edi ; pop edi ; ret  ;  (1 found)
0x0008567a: mov eax, edi ; pop edi ; ret  ;  (1 found)
0x00085732: mov eax, edi ; pop edi ; ret  ;  (1 found)
0x00085752: mov eax, edi ; pop edi ; ret  ;  (1 found)
0x00147e30: mov eax, edi ; pop edi ; ret  ;  (1 found)
0x00054e44: mov eax, edx ; add esp, 0x7C ; ret  ;  (1 found)
0x0010505a: mov eax, edx ; and eax, 0x00FFFFFF ; ret  ;  (1 found)
0x000e8379: mov eax, edx ; pop ebp ; ret  ;  (1 found)
0x00088367: mov eax, edx ; pop ebx ; ret  ;  (1 found)
0x00088434: mov eax, edx ; pop ebx ; ret  ;  (1 found)
0x00124a73: mov eax, edx ; pop ebx ; ret  ;  (1 found)
0x00124c6d: mov eax, edx ; pop ebx ; ret  ;  (1 found)
0x00126f32: mov eax, edx ; pop ebx ; ret  ;  (1 found)
0x0013632c: mov eax, edx ; pop ebx ; ret  ;  (1 found)
0x0013636f: mov eax, edx ; pop ebx ; ret  ;  (1 found)
0x0013644a: mov eax, edx ; pop ebx ; ret  ;  (1 found)
0x00136533: mov eax, edx ; pop ebx ; ret  ;  (1 found)
0x00136534: mov eax, edx ; pop ebx ; ret  ;  (1 found)
0x0013654c: mov eax, edx ; pop ebx ; ret  ;  (1 found)
0x0013657b: mov eax, edx ; pop ebx ; ret  ;  (1 found)
0x0013662c: mov eax, edx ; pop ebx ; ret  ;  (1 found)
0x00136652: mov eax, edx ; pop ebx ; ret  ;  (1 found)
0x0013674d: mov eax, edx ; pop ebx ; ret  ;  (1 found)
0x00139d22: mov eax, edx ; pop ebx ; ret  ;  (1 found)
0x00139d3c: mov eax, edx ; pop ebx ; ret  ;  (1 found)
0x00139e31: mov eax, edx ; pop ebx ; ret  ;  (1 found)
0x000b903c: mov eax, edx ; rep ret  ;  (1 found)
0x00055454: mov eax, edx ; ret  ;  (1 found)
0x00085764: mov eax, edx ; ret  ;  (1 found)
0x00085776: mov eax, edx ; ret  ;  (1 found)
0x0008582e: mov eax, edx ; ret  ;  (1 found)
0x0008584e: mov eax, edx ; ret  ;  (1 found)
0x00085872: mov eax, edx ; ret  ;  (1 found)
0x000c6b2c: mov eax, edx ; ret  ;  (1 found)
0x000e7c73: mov eax, edx ; ret  ;  (1 found)
0x00124776: mov eax, edx ; ret  ;  (1 found)
0x00095126: mov ebp, 0x5FF801C0 ; ret  ;  (1 found)
0x00095925: mov ebp, 0x5FF801FF ; ret  ;  (1 found)
0x0007562c: mov ebp, 0x89000005 ; retn 0xD285 ;  (1 found)
0x00157a5d: mov ebp, 0xC1C0BFBE ; retn 0xC4C3 ;  (1 found)
0x0004504b: mov ebp, 0xFFFFFB48 ; jmp edx ;  (1 found)
0x00064343: mov ebp, dword [esp+0x00000098] ; add esp, 0x0000009C ; ret  ;  (1 found)
0x000b872f: mov ebp, dword [esp+0x000000A8] ; add esp, 0x000000AC ; ret  ;  (1 found)
0x00068f55: mov ebp, dword [esp+0x000000E8] ; add esp, 0x000000EC ; ret  ;  (1 found)
0x0011565f: mov ebp, dword [esp+0x00000488] ; add esp, 0x0000048C ; ret  ;  (1 found)
0x000d953a: mov ebp, dword [esp+0x00000548] ; add esp, 0x0000054C ; ret  ;  (1 found)
0x0002692d: mov ebp, dword [esp+0x08] ; add esp, 0x0C ; ret  ;  (1 found)
0x00026969: mov ebp, dword [esp+0x08] ; add esp, 0x0C ; ret  ;  (1 found)
0x0005564a: mov ebp, dword [esp+0x08] ; add esp, 0x0C ; ret  ;  (1 found)
0x00077f53: mov ebp, dword [esp+0x18] ; add esp, 0x1C ; ret  ;  (1 found)
0x00114f73: mov ebp, dword [esp+0x18] ; add esp, 0x1C ; ret  ;  (1 found)
0x00115153: mov ebp, dword [esp+0x18] ; add esp, 0x1C ; ret  ;  (1 found)
0x00064522: mov ebp, dword [esp+0x28] ; add esp, 0x2C ; ret  ;  (1 found)
0x0006557d: mov ebp, dword [esp+0x28] ; add esp, 0x2C ; ret  ;  (1 found)
0x00068b2c: mov ebp, dword [esp+0x28] ; add esp, 0x2C ; ret  ;  (1 found)
0x00074b7d: mov ebp, dword [esp+0x28] ; add esp, 0x2C ; ret  ;  (1 found)
0x000a5b4e: mov ebp, dword [esp+0x28] ; add esp, 0x2C ; ret  ;  (1 found)
0x000a617d: mov ebp, dword [esp+0x28] ; add esp, 0x2C ; ret  ;  (1 found)
0x000d8127: mov ebp, dword [esp+0x28] ; add esp, 0x2C ; ret  ;  (1 found)
0x000e5932: mov ebp, dword [esp+0x28] ; add esp, 0x2C ; ret  ;  (1 found)
0x000f6d73: mov ebp, dword [esp+0x28] ; add esp, 0x2C ; ret  ;  (1 found)
0x000f7e2f: mov ebp, dword [esp+0x28] ; add esp, 0x2C ; ret  ;  (1 found)
0x00114720: mov ebp, dword [esp+0x28] ; add esp, 0x2C ; ret  ;  (1 found)
0x0011834c: mov ebp, dword [esp+0x28] ; add esp, 0x2C ; ret  ;  (1 found)
0x0012755d: mov ebp, dword [esp+0x28] ; add esp, 0x2C ; retn 0x0004 ;  (1 found)
0x000d9c62: mov ebp, dword [esp+0x28] ; add esp, 0x2C ; retn 0x0008 ;  (1 found)
0x00038934: mov ebp, dword [esp+0x38] ; add esp, 0x3C ; ret  ;  (1 found)
0x0006542c: mov ebp, dword [esp+0x38] ; add esp, 0x3C ; ret  ;  (1 found)
0x00074d2b: mov ebp, dword [esp+0x38] ; add esp, 0x3C ; ret  ;  (1 found)
0x00079c6a: mov ebp, dword [esp+0x38] ; add esp, 0x3C ; ret  ;  (1 found)
0x00079f21: mov ebp, dword [esp+0x38] ; add esp, 0x3C ; ret  ;  (1 found)
0x000b7e58: mov ebp, dword [esp+0x38] ; add esp, 0x3C ; ret  ;  (1 found)
0x000d9b30: mov ebp, dword [esp+0x38] ; add esp, 0x3C ; ret  ;  (1 found)
0x000e4e55: mov ebp, dword [esp+0x38] ; add esp, 0x3C ; ret  ;  (1 found)
0x000e5b7b: mov ebp, dword [esp+0x38] ; add esp, 0x3C ; ret  ;  (1 found)
0x00104241: mov ebp, dword [esp+0x38] ; add esp, 0x3C ; ret  ;  (1 found)
0x0010463b: mov ebp, dword [esp+0x38] ; add esp, 0x3C ; ret  ;  (1 found)
0x00115056: mov ebp, dword [esp+0x38] ; add esp, 0x3C ; ret  ;  (1 found)
0x0011534e: mov ebp, dword [esp+0x38] ; add esp, 0x3C ; ret  ;  (1 found)
0x0012632f: mov ebp, dword [esp+0x38] ; add esp, 0x3C ; ret  ;  (1 found)
0x000e625d: mov ebp, dword [esp+0x3C] ; add esp, 0x40 ; ret  ;  (1 found)
0x00065f5b: mov ebp, dword [esp+0x48] ; add esp, 0x4C ; ret  ;  (1 found)
0x00066a50: mov ebp, dword [esp+0x48] ; add esp, 0x4C ; ret  ;  (1 found)
0x00067e5d: mov ebp, dword [esp+0x48] ; add esp, 0x4C ; ret  ;  (1 found)
0x000e5d50: mov ebp, dword [esp+0x48] ; add esp, 0x4C ; ret  ;  (1 found)
0x000e7630: mov ebp, dword [esp+0x48] ; add esp, 0x4C ; ret  ;  (1 found)
0x000f6462: mov ebp, dword [esp+0x48] ; add esp, 0x4C ; ret  ;  (1 found)
0x00116c27: mov ebp, dword [esp+0x48] ; add esp, 0x4C ; ret  ;  (1 found)
0x00129c5a: mov ebp, dword [esp+0x48] ; add esp, 0x4C ; ret  ;  (1 found)
0x000b6b54: mov ebp, dword [esp+0x58] ; add esp, 0x5C ; ret  ;  (1 found)
0x00118d5c: mov ebp, dword [esp+0x58] ; add esp, 0x5C ; ret  ;  (1 found)
0x0012443a: mov ebp, dword [esp+0x58] ; add esp, 0x5C ; ret  ;  (1 found)
0x00066347: mov ebp, dword [esp+0x68] ; add esp, 0x6C ; ret  ;  (1 found)
0x000e6a25: mov ebp, dword [esp+0x78] ; add esp, 0x7C ; ret  ;  (1 found)
0x00066346: mov ebp, dword [fs:esp+0x68] ; add esp, 0x6C ; ret  ;  (1 found)
0x00024b4e: mov ebp, ebx ; sub ebp, dword [ebx+eax-0x0017E498] ; jmp ebp ;  (1 found)
0x0009474b: mov ebx, 0x03000C61 ; or al, 0x91 ; jmp ecx ;  (1 found)
0x00157a5b: mov ebx, 0xBFBEBDBC ; rol cl, 0xFFFFFFC2 ; ret  ;  (1 found)
0x000e8052: mov ebx, dword [esp+0x04] ; mov eax, 0x0000003D ; call dword [0x00000010] ;  (1 found)
0x000e7d46: mov ebx, dword [esp+0x04] ; mov eax, 0x0000004A ; call dword [0x00000010] ;  (1 found)
0x000a8466: mov ebx, dword [esp+0x04] ; mov eax, 0x0000004E ; call dword [0x00000010] ;  (1 found)
0x000e8472: mov ebx, dword [esp+0x04] ; mov eax, 0x0000006F ; call dword [0x00000010] ;  (1 found)
0x000b9362: mov ebx, dword [esp+0x04] ; mov eax, 0x00000093 ; call dword [0x00000010] ;  (1 found)
0x000e814c: mov ebx, dword [esp+0x04] ; mov eax, 0x00000094 ; call dword [0x00000010] ;  (1 found)
0x000e816f: mov ebx, dword [esp+0x04] ; mov eax, 0x00000094 ; call dword [0x00000010] ;  (1 found)
0x000c5472: mov ebx, dword [esp+0x04] ; mov eax, 0x0000009D ; call dword [0x00000010] ;  (1 found)
0x000c5532: mov ebx, dword [esp+0x04] ; mov eax, 0x000000A0 ; call dword [0x00000010] ;  (1 found)
0x000c5576: mov ebx, dword [esp+0x04] ; mov eax, 0x000000A1 ; call dword [0x00000010] ;  (1 found)
0x000c5439: mov ebx, dword [esp+0x08] ; mov eax, 0x0000009C ; call dword [0x00000010] ;  (1 found)
0x00019935: mov ebx, dword [esp+0x0C] ; add esp, 0x1C ; ret  ;  (1 found)
0x000b7d2b: mov ebx, dword [esp+0x0C] ; mov eax, 0x00000007 ; call dword [0x00000010] ;  (1 found)
0x000e7e6d: mov ebx, dword [esp+0x10] ; mov eax, 0x0000008E ; call dword [0x00000010] ;  (1 found)
0x00109843: mov ebx, dword [esp+0x14] ; add esp, 0x1C ; ret  ;  (1 found)
0x00129d73: mov ebx, dword [esp] ; ret  ;  (1 found)
0x000c5848: mov ebx, eax ; mov eax, 0x000000B4 ; call dword [0x00000010] ;  (1 found)
0x000c5928: mov ebx, eax ; mov eax, 0x000000B5 ; call dword [0x00000010] ;  (1 found)
0x000b7e2f: mov ebx, eax ; mov eax, 0x0000011C ; call dword [0x00000010] ;  (1 found)
0x000e713d: mov ebx, eax ; mov eax, 0x0000014D ; call dword [0x00000010] ;  (1 found)
0x000e7370: mov ebx, eax ; mov eax, 0x0000014D ; call dword [0x00000010] ;  (1 found)
0x000e7920: mov ebx, eax ; mov eax, 0x0000014E ; call dword [0x00000010] ;  (1 found)
0x00045363: mov ecx, 0x89FFFFCA ; retn 0x16EB ;  (1 found)
0x00157a59: mov ecx, 0xBDBCBBBA ; mov esi, 0xC2C1C0BF ; ret  ;  (1 found)
0x00074c54: mov ecx, dword [esp+eax+0x00] ; add byte [ebx-0x0001877D], cl ; jmp dword [ebp-0x77] ;  (1 found)
0x00129d77: mov ecx, dword [esp] ; ret  ;  (1 found)
0x000d436b: mov ecx, ebx ; sub ecx, dword [ebx+edx*4-0x000CEC7C] ; jmp ecx ;  (1 found)
0x00176b7d: mov ecx, ecx ; out dx, al ; jmp dword [edx] ;  (1 found)
0x0014843b: mov edi, 0x00000000 ; lea eax, dword [ecx+0x02] ; ret  ;  (1 found)
0x0014844b: mov edi, 0x00000000 ; lea eax, dword [ecx+0x03] ; ret  ;  (1 found)
0x0014845b: mov edi, 0x00000000 ; lea eax, dword [ecx+0x05] ; ret  ;  (1 found)
0x0014846b: mov edi, 0x00000000 ; lea eax, dword [ecx+0x06] ; ret  ;  (1 found)
0x0014847b: mov edi, 0x00000000 ; lea eax, dword [ecx+0x07] ; ret  ;  (1 found)
0x00148b2b: mov edi, 0x00000000 ; lea eax, dword [edx+0x0E] ; ret  ;  (1 found)
0x00148b3b: mov edi, 0x00000000 ; xor eax, eax ; ret  ;  (1 found)
0x000a712d: mov edi, 0x5F000000 ; pop esi ; ret  ;  (1 found)
0x00099968: mov edi, 0x5F5EF889 ; ret  ;  (1 found)
0x00067f4f: mov edi, dword [esp+0x04] ; add esp, 0x08 ; ret  ;  (1 found)
0x000b947b: mov edi, dword [esp+0x04] ; add esp, 0x08 ; ret  ;  (1 found)
0x000e822d: mov edi, dword [esp+0x04] ; add esp, 0x08 ; ret  ;  (1 found)
0x000e976f: mov edi, dword [esp+0x04] ; add esp, 0x08 ; ret  ;  (1 found)
0x000e985b: mov edi, dword [esp+0x04] ; add esp, 0x08 ; ret  ;  (1 found)
0x0012662d: mov edi, dword [esp+0x04] ; add esp, 0x08 ; ret  ;  (1 found)
0x00078779: mov edi, dword [esp+0x08] ; add esp, 0x0C ; ret  ;  (1 found)
0x000e6343: mov edi, dword [esp+0x08] ; add esp, 0x0C ; ret  ;  (1 found)
0x00114573: mov edi, dword [esp+0x08] ; add esp, 0x0C ; ret  ;  (1 found)
0x00119a37: mov edi, dword [esp+0x08] ; add esp, 0x0C ; ret  ;  (1 found)
0x00064931: mov edi, dword [esp+0x18] ; add esp, 0x1C ; ret  ;  (1 found)
0x00064f2f: mov edi, dword [esp+0x18] ; add esp, 0x1C ; ret  ;  (1 found)
0x00066753: mov edi, dword [esp+0x18] ; add esp, 0x1C ; ret  ;  (1 found)
0x00068a50: mov edi, dword [esp+0x18] ; add esp, 0x1C ; ret  ;  (1 found)
0x0009757a: mov edi, dword [esp+0x18] ; add esp, 0x1C ; ret  ;  (1 found)
0x00097e35: mov edi, dword [esp+0x18] ; add esp, 0x1C ; ret  ;  (1 found)
0x000b4b4a: mov edi, dword [esp+0x18] ; add esp, 0x1C ; ret  ;  (1 found)
0x000d8552: mov edi, dword [esp+0x18] ; add esp, 0x1C ; ret  ;  (1 found)
0x000d866f: mov edi, dword [esp+0x18] ; add esp, 0x1C ; ret  ;  (1 found)
0x000e6e53: mov edi, dword [esp+0x18] ; add esp, 0x1C ; ret  ;  (1 found)
0x000e962b: mov edi, dword [esp+0x18] ; add esp, 0x1C ; ret  ;  (1 found)
0x000f6f65: mov edi, dword [esp+0x18] ; add esp, 0x1C ; ret  ;  (1 found)
0x00109c60: mov edi, dword [esp+0x18] ; add esp, 0x1C ; ret  ;  (1 found)
0x0011447c: mov edi, dword [esp+0x18] ; add esp, 0x1C ; ret  ;  (1 found)
0x00114e51: mov edi, dword [esp+0x18] ; add esp, 0x1C ; ret  ;  (1 found)
0x00114f31: mov edi, dword [esp+0x18] ; add esp, 0x1C ; ret  ;  (1 found)
0x00116d59: mov edi, dword [esp+0x18] ; add esp, 0x1C ; ret  ;  (1 found)
0x00129f40: mov edi, dword [esp+0x18] ; add esp, 0x1C ; ret  ;  (1 found)
0x0001986d: mov edi, dword [esp+0x28] ; add esp, 0x2C ; ret  ;  (1 found)
0x00054d4f: mov edi, dword [esp+0x28] ; add esp, 0x2C ; ret  ;  (1 found)
0x00064e5f: mov edi, dword [esp+0x28] ; add esp, 0x2C ; ret  ;  (1 found)
0x0006502c: mov edi, dword [esp+0x28] ; add esp, 0x2C ; ret  ;  (1 found)
0x00068d4e: mov edi, dword [esp+0x28] ; add esp, 0x2C ; ret  ;  (1 found)
0x000e6649: mov edi, dword [esp+0x28] ; add esp, 0x2C ; ret  ;  (1 found)
0x000e6739: mov edi, dword [esp+0x28] ; add esp, 0x2C ; ret  ;  (1 found)
0x000e695d: mov edi, dword [esp+0x28] ; add esp, 0x2C ; ret  ;  (1 found)
0x000b9577: mov edi, dword [esp+0x38] ; add esp, 0x3C ; ret  ;  (1 found)
0x000e7b7b: mov edi, dword [esp+0x38] ; add esp, 0x3C ; ret  ;  (1 found)
0x00019e42: mov edi, dword [esp+0x40] ; add esp, 0x44 ; ret  ;  (1 found)
0x00074e7a: mov edi, dword [esp+0x48] ; add esp, 0x4C ; ret  ;  (1 found)
0x000b4655: mov edi, dword [esp+0x78] ; add esp, 0x7C ; ret  ;  (1 found)
0x000e9d62: mov edx, 0x89FFFFFC ; retn 0xC031 ;  (1 found)
0x000b993f: mov edx, 0xFFFFFFFF ; cmovne eax, edx ; ret  ;  (1 found)
0x000b9940: mov edx, 0xFFFFFFFF ; cmovne eax, edx ; ret  ;  (1 found)
0x000b9a7e: mov edx, 0xFFFFFFFF ; cmovne eax, edx ; ret  ;  (1 found)
0x000b9a7f: mov edx, 0xFFFFFFFF ; cmovne eax, edx ; ret  ;  (1 found)
0x00119e24: mov edx, dword [eax+0x20] ; mov dword [esp], eax ; call dword [edx+0x0C] ;  (1 found)
0x00126822: mov edx, dword [ebx-0x000000FC] ; mov dword [esp], eax ; call dword [edx+0x000001B4] ;  (1 found)
0x00074f3c: mov edx, dword [ebx-0x0000015C] ; mov dword [esp], 0x00000000 ; call dword [edx] ;  (1 found)
0x00064f71: mov edx, dword [edx+0x00000098] ; mov dword [esp], edx ; call eax ;  (1 found)
0x00129e32: mov edx, dword [edx+0x00000098] ; mov dword [esp], edx ; call eax ;  (1 found)
0x0007985f: mov edx, dword [esp+0x18] ; mov dword [esp+0x04], edx ; call eax ;  (1 found)
0x00019f3b: mov edx, dword [esp+0x1C] ; add esp, 0x24 ; ret  ;  (1 found)
0x0001985c: mov edx, dword [esp+0x30] ; mov dword [esp], edx ; call eax ;  (1 found)
0x00079b5e: mov edx, dword [esp+0x40] ; mov dword [esp+0x04], edx ; call eax ;  (1 found)
0x00114b74: mov edx, dword [esp+0x60] ; mov dword [esp], edx ; call eax ;  (1 found)
0x00129d7b: mov edx, dword [esp] ; ret  ;  (1 found)
0x000d4c77: mov edx, ebx ; sub edx, dword [ebx+eax*4-0x000CE370] ; jmp edx ;  (1 found)
0x00055d48: mov edx, ebx ; sub edx, dword [ebx+eax*4-0x0014D2A0] ; jmp edx ;  (1 found)
0x00129050: mov edx, ebx ; sub edx, dword [ebx+ecx*4-0x00079F98] ; jmp edx ;  (1 found)
0x000c7749: mov edx, edi ; retn 0xFFFB ;  (1 found)
0x000e7e72: mov es, word [eax] ; add byte [eax], al ; call dword [0x00000010] ;  (1 found)
0x00188069: mov es, word [ecx] ; add byte [esi+edi*4-0x0D], dh ; jmp dword [eax] ;  (1 found)
0x00197430: mov esi, 0x5D0B48C3 ; ret  ;  (1 found)
0x00157a5e: mov esi, 0xC2C1C0BF ; ret  ;  (1 found)
0x00158d2a: mov esi, 0xFA1FB992 ; xchg dword [esp+eax+0x6FA9CE9D], esp ; ret  ;  (1 found)
0x00025f78: mov esi, dword [esp+0x04] ; add esp, 0x08 ; ret  ;  (1 found)
0x00114525: mov esi, dword [esp+0x14] ; add esp, 0x1C ; ret  ;  (1 found)
0x00049f63: mov esi, dword [esp+0x18] ; add esp, 0x1C ; ret  ;  (1 found)
0x000d803a: mov esi, dword [esp+0x18] ; add esp, 0x1C ; ret  ;  (1 found)
0x000e644e: mov esi, dword [esp+0x18] ; add esp, 0x1C ; ret  ;  (1 found)
0x000e6474: mov esi, dword [esp+0x18] ; add esp, 0x1C ; ret  ;  (1 found)
0x000e8577: mov esi, dword [esp+0x18] ; add esp, 0x1C ; ret  ;  (1 found)
0x000e8649: mov esi, dword [esp+0x18] ; add esp, 0x1C ; ret  ;  (1 found)
0x000e864a: mov esi, dword [esp+0x18] ; add esp, 0x1C ; ret  ;  (1 found)
0x000f6d21: mov esi, dword [esp+0x18] ; add esp, 0x1C ; ret  ;  (1 found)
0x000f706b: mov esi, dword [esp+0x18] ; add esp, 0x1C ; ret  ;  (1 found)
0x000f8e23: mov esi, dword [esp+0x18] ; add esp, 0x1C ; ret  ;  (1 found)
0x000f8e4d: mov esi, dword [esp+0x18] ; add esp, 0x1C ; ret  ;  (1 found)
0x00124855: mov esi, dword [esp+0x18] ; add esp, 0x1C ; ret  ;  (1 found)
0x0012486f: mov esi, dword [esp+0x18] ; add esp, 0x1C ; ret  ;  (1 found)
0x0012493d: mov esi, dword [esp+0x18] ; add esp, 0x1C ; ret  ;  (1 found)
0x00124957: mov esi, dword [esp+0x18] ; add esp, 0x1C ; ret  ;  (1 found)
0x00128a6c: mov esi, dword [esp+0x18] ; add esp, 0x1C ; ret  ;  (1 found)
0x00069472: mov esi, dword [esp+0x24] ; add esp, 0x2C ; ret  ;  (1 found)
0x00124826: mov esi, dword [esp+0x24] ; call dword [ebx-0x00001470] ;  (1 found)
0x000e6843: mov esi, dword [esp+0x28] ; add esp, 0x2C ; ret  ;  (1 found)
0x00126d38: mov esi, dword [esp+0x28] ; add esp, 0x2C ; ret  ;  (1 found)
0x00117848: mov esi, dword [esp+0x48] ; add esp, 0x4C ; ret  ;  (1 found)
0x000c5d2c: mov esi, dword [esp] ; add esp, 0x08 ; ret  ;  (1 found)
0x00119a40: mov esi, ebx ; sub esi, dword [ebx+eax*4-0x000895A8] ; jmp esi ;  (1 found)
0x000a742a: mov esp, 0x00000027 ; add byte [eax+0x00000004], bh ; ret  ;  (1 found)
0x000a743a: mov esp, 0x00000027 ; add byte [eax+0x00000005], bh ; ret  ;  (1 found)
0x000a744a: mov esp, 0x00000027 ; add byte [eax+0x00000006], bh ; ret  ;  (1 found)
0x000a745a: mov esp, 0x00000027 ; add byte [eax+0x00000007], bh ; ret  ;  (1 found)
0x000f8e5a: mov esp, 0x00000027 ; add byte [edi+0x31], dl ; call dword [esi-0x77] ;  (1 found)
0x00148f5a: mov esp, 0x00000027 ; add dh, dh ; retn 0x0F10 ;  (1 found)
0x0009484a: mov esp, 0x03000C60 ; or al, 0x91 ; jmp ecx ;  (1 found)
0x00168b54: mov esp, 0x040000D5 ; shr dh, cl ; jmp esp ;  (1 found)
0x00095c71: mov esp, 0x10448DC0 ; ret  ;  (1 found)
0x00095561: mov esp, 0x38448DC0 ; pop edi ; ret  ;  (1 found)
0x00095571: mov esp, 0x5FF801C0 ; ret  ;  (1 found)
0x000a5166: mov esp, 0x8301C083 ; retn 0x3901 ;  (1 found)
0x000a5163: mov esp, 0x83BC4D8B ; rol byte [ecx], 0xFFFFFF83 ; retn 0x3901 ;  (1 found)
0x00094821: mov esp, 0x83CE01D2 ; retn 0x2910 ;  (1 found)
0x00048a65: mov esp, 0x8904C683 ; retn 0xFAC1 ;  (1 found)
0x0016947c: mov esp, 0xF400010F ; aas  ; jmp esp ;  (1 found)
0x00078071: mov esp, dword [ecx+eax+0x00] ; add byte [ecx], bh ; retn 0x850F ;  (1 found)
0x0016665c: mov esp, ebx ; cld  ; call dword [ecx+ebx*8-0x263B0004] ;  (1 found)
0x0003834a: mov fs, word [ebp-0x76000002] ; retn 0x18E9 ;  (1 found)
0x00194525: mov seg?, word [esi+esi*8] ; jmp dword [edx] ;  (1 found)
0x00175529: mov ss, bp ; in eax, dx ; jmp dword [edx] ;  (1 found)
0x00099a68: mov ss, word [ebp-0x137CFFF0] ; sub byte [ebx-0x0001577D], cl ; jmp dword [ebp-0x75] ;  (1 found)
0x00198a44: mov word [eax+edi*8], gs ; call dword [eax+0x00] ;  (1 found)
0x000d8a2c: mov word [eax], dx ; xor eax, eax ; ret  ;  (1 found)
0x00187154: mov word [eax], es ; call dword [esi+0x02] ;  (1 found)
0x00168044: mov word [ebp+0x12F40000], ss ; in al, dx ; call dword [edi+edx*4] ;  (1 found)
0x000d436e: mov word [ebx-0x000CEC7C], ss ; jmp ecx ;  (1 found)
0x00087662: mov word [ecx+0x04], dx ; pop ebx ; ret  ;  (1 found)
0x00087620: mov word [ecx], dx ; pop ebx ; ret  ;  (1 found)
0x0019542c: mov word [edi+esi*8], seg? ; call dword [eax] ;  (1 found)
0x00195d44: mov word [edi-0x09], es ; jmp dword [esi] ;  (1 found)
0x000e4d78: mov word [edx+0x3E], ax ; xor eax, eax ; ret  ;  (1 found)
0x00134066: mov word [edx-0x02], ax ; pop ebx ; ret  ;  (1 found)
0x00134128: mov word [edx-0x02], ax ; pop ebx ; ret  ;  (1 found)
0x00089b53: mov word [edx], ax ; lea eax, dword [edx+0x01] ; ret  ;  (1 found)
0x00085773: mov word [edx], ax ; mov eax, edx ; ret  ;  (1 found)
0x0018853c: mov word [esi+0x1A850001], cs ; hlt  ; call dword [eax] ;  (1 found)
0x00089c4d: movlpd qword [edx+0x05], xmm1 ; lea eax, dword [edx+0x0C] ; ret  ;  (1 found)
0x0008586d: movlpd qword [edx+0x05], xmm1 ; mov eax, edx ; ret  ;  (1 found)
0x00089c6d: movlpd qword [edx+0x06], xmm1 ; lea eax, dword [edx+0x0D] ; ret  ;  (1 found)
0x00089c4e: movlps qword [edx+0x05], xmm1 ; lea eax, dword [edx+0x0C] ; ret  ;  (1 found)
0x0008586e: movlps qword [edx+0x05], xmm1 ; mov eax, edx ; ret  ;  (1 found)
0x00089c6e: movlps qword [edx+0x06], xmm1 ; lea eax, dword [edx+0x0D] ; ret  ;  (1 found)
0x00166174: movsb  ; aam 0xFC ; call esp ;  (1 found)
0x00189d2c: movsb  ; fcomip st0, st4 ; call dword [edx] ;  (1 found)
0x00168844: movsb  ; ret  ;  (1 found)
0x00037f6e: movsb  ; retn 0xC102 ;  (1 found)
0x000c7739: movsb  ; retn 0xFFFB ;  (1 found)
0x00186e3c: movsb  ; std  ; call dword [ecx+0x00000000] ;  (1 found)
0x00169358: movsb  ; sub al, 0xF0 ; call dword [esp+eax+0x01] ;  (1 found)
0x00194d7c: movsb  ; sub bh, dh ; jmp dword [edi+0x00000000] ;  (1 found)
0x00166248: movsd  ; aad 0xFC ; jmp ebp ;  (1 found)
0x00166220: movsd  ; sar esp, cl ; call ebp ;  (1 found)
0x000b9b6d: movzx eax, al ; lea eax, dword [eax+eax-0x01] ; ret  ;  (1 found)
0x00114e7f: movzx eax, al ; ret  ;  (1 found)
0x00026e28: movzx eax, word [eax+edx*2] ; and eax, 0x00000200 ; ret  ;  (1 found)
0x00026f38: movzx eax, word [eax+edx*2] ; and eax, 0x00001000 ; ret  ;  (1 found)
0x0002717b: movzx eax, word [eax+edx*2] ; and eax, 0x00002000 ; ret  ;  (1 found)
0x0002713b: movzx eax, word [eax+edx*2] ; and eax, 0x00004000 ; ret  ;  (1 found)
0x00026e58: movzx eax, word [eax+edx*2] ; and eax, 0x00008000 ; ret  ;  (1 found)
0x0002705b: movzx eax, word [eax+edx*2] ; and eax, 0x01 ; ret  ;  (1 found)
0x0002715b: movzx eax, word [eax+edx*2] ; and eax, 0x04 ; ret  ;  (1 found)
0x0002707b: movzx eax, word [eax+edx*2] ; and eax, 0x08 ; ret  ;  (1 found)
0x00074d46: neg eax ; mov dword [esp], eax ; call dword [ecx] ;  (1 found)
0x000c5b44: neg eax ; pop edi ; ret  ;  (1 found)
0x000a7227: neg eax ; ret  ;  (1 found)
0x0014576f: neg eax ; ret  ;  (1 found)
0x00149828: neg eax ; ret  ;  (1 found)
0x00197b20: nop  ; aad 0xF7 ; jmp dword [ebx+0x00] ;  (1 found)
0x00166e24: nop  ; add ch, bh ; jmp dword [eax] ;  (1 found)
0x00024b28: nop  ; and al, 0x83 ; retn 0x3B01 ;  (1 found)
0x0014842f: nop  ; lea eax, dword [ecx+0x01] ; ret  ;  (1 found)
0x0009843b: nop  ; lea esi, dword [esi+0x00] ; ret  ;  (1 found)
0x000b906b: nop  ; lea esi, dword [esi+0x00] ; ret  ;  (1 found)
0x0014982b: nop  ; lea esi, dword [esi+0x00] ; ret  ;  (1 found)
0x000b9a37: nop  ; mov eax, 0x00000020 ; ret  ;  (1 found)
0x000b907f: nop  ; mov eax, 0x00000040 ; call dword [0x00000010] ;  (1 found)
0x00148a7f: nop  ; mov eax, edx ; ret  ;  (1 found)
0x00118a6e: nop  ; nop  ; rep ret  ;  (1 found)
0x00026f7d: nop  ; rep ret  ;  (1 found)
0x00118a6f: nop  ; rep ret  ;  (1 found)
0x0007403f: nop  ; xor eax, eax ; ret  ;  (1 found)
0x00098426: nop  ; xor eax, eax ; ret  ;  (1 found)
0x00098427: nop  ; xor eax, eax ; ret  ;  (1 found)
0x0009492b: or al, 0x00 ; add ecx, dword [ecx+ebx*4] ; jmp ecx ;  (1 found)
0x00094958: or al, 0x00 ; add ecx, dword [ecx+ebx*4] ; jmp ecx ;  (1 found)
0x00094975: or al, 0x00 ; add ecx, dword [ecx+ebx*4] ; jmp ecx ;  (1 found)
0x0009474d: or al, 0x00 ; add ecx, dword [ecx+edx*4] ; jmp ecx ;  (1 found)
0x00094833: or al, 0x00 ; add ecx, dword [ecx+edx*4] ; jmp ecx ;  (1 found)
0x0009484c: or al, 0x00 ; add ecx, dword [ecx+edx*4] ; jmp ecx ;  (1 found)
0x00094876: or al, 0x00 ; add ecx, dword [ecx+edx*4] ; jmp ecx ;  (1 found)
0x00009552: or al, 0x00 ; mov eax, dword [0xD0000010] ; retn 0x0007 ;  (1 found)
0x00005842: or al, 0x00 ; ret  ;  (1 found)
0x00007142: or al, 0x00 ; ret  ;  (1 found)
0x00009442: or al, 0x00 ; retn 0x0038 ;  (1 found)
0x00004232: or al, 0x00 ; retn 0x0052 ;  (1 found)
0x00129d78: or al, 0x24 ; ret  ;  (1 found)
0x00187c24: or al, 0x36 ; call dword [ecx] ;  (1 found)
0x000f7a75: or al, 0x39 ; retn 0x1474 ;  (1 found)
0x00174040: or al, 0x44 ; ret  ;  (1 found)
0x00094a2a: or al, 0x5B ; pop esi ; ret  ;  (1 found)
0x00094a40: or al, 0x5B ; pop esi ; ret  ;  (1 found)
0x00094a62: or al, 0x5B ; pop esi ; ret  ;  (1 found)
0x00094b24: or al, 0x5B ; pop esi ; ret  ;  (1 found)
0x00094b48: or al, 0x5B ; pop esi ; ret  ;  (1 found)
0x00094b68: or al, 0x5B ; pop esi ; ret  ;  (1 found)
0x00094c24: or al, 0x5B ; pop esi ; ret  ;  (1 found)
0x00094c4a: or al, 0x5B ; pop esi ; ret  ;  (1 found)
0x00094c68: or al, 0x5B ; pop esi ; ret  ;  (1 found)
0x00094d2e: or al, 0x5B ; pop esi ; ret  ;  (1 found)
0x00094d5e: or al, 0x5B ; pop esi ; ret  ;  (1 found)
0x00094e39: or al, 0x5B ; pop esi ; ret  ;  (1 found)
0x00134c50: or al, 0x5F ; add ebx, dword [ebx+ecx*4] ; jmp ebx ;  (1 found)
0x00137560: or al, 0x5F ; add ebx, dword [ebx+ecx*4] ; jmp ebx ;  (1 found)
0x00138b40: or al, 0x5F ; add ebx, dword [ebx+ecx*4] ; jmp ebx ;  (1 found)
0x00139b20: or al, 0x5F ; add ebx, dword [ebx+ecx*4] ; jmp ebx ;  (1 found)
0x00148057: or al, 0x5F ; ret  ;  (1 found)
0x00149077: or al, 0x5F ; ret  ;  (1 found)
0x00149229: or al, 0x5F ; ret  ;  (1 found)
0x000a7969: or al, 0x81 ; retn 0x076C ;  (1 found)
0x00095633: or al, 0x83 ; rcl dword [eax], 0xFFFFFF83 ; retn 0x2910 ;  (1 found)
0x00097c65: or al, 0x83 ; retn 0x8310 ;  (1 found)
0x00098034: or al, 0x83 ; retn 0x8510 ;  (1 found)
0x0010527e: or al, 0x83 ; retn 0xE901 ;  (1 found)
0x000e9840: or al, 0x87 ; fistp qword [eax+0x000000C1] ; call dword [0x00000010] ;  (1 found)
0x000b9460: or al, 0x87 ; fistp qword [eax+0x000000D3] ; call dword [0x00000010] ;  (1 found)
0x00069574: or al, 0x89 ; retn 0x562B ;  (1 found)
0x0009843a: or al, 0x90 ; lea esi, dword [esi+0x00] ; ret  ;  (1 found)
0x00094750: or al, 0x91 ; jmp ecx ;  (1 found)
0x00094836: or al, 0x91 ; jmp ecx ;  (1 found)
0x0009484f: or al, 0x91 ; jmp ecx ;  (1 found)
0x00094879: or al, 0x91 ; jmp ecx ;  (1 found)
0x0009492e: or al, 0x99 ; jmp ecx ;  (1 found)
0x0009495b: or al, 0x99 ; jmp ecx ;  (1 found)
0x00094978: or al, 0x99 ; jmp ecx ;  (1 found)
0x00184855: or al, 0x9E ; int1  ; jmp dword [edx] ;  (1 found)
0x00178725: or al, 0xD7 ; out dx, al ; jmp dword [edx] ;  (1 found)
0x00166d49: or al, 0xFD ; call dword [eax-0x7F0002F4] ;  (1 found)
0x0004864d: or al, byte [eax] ; add byte [eax-0x0000B443], al ; jmp dword [esi+0x0F] ;  (1 found)
0x00116d7d: or al, byte [ebp-0x7CEC8B37] ; retn 0x8908 ;  (1 found)
0x00126e35: or al, byte [ebx+0x5E5B34C4] ; ret  ;  (1 found)
0x00166d51: or bh, ch ; jmp dword [eax] ;  (1 found)
0x000e5e53: or bh, dh ; retn 0xEFF0 ;  (1 found)
0x00134b30: or bl, byte [edi+0x03] ; sbb al, 0x8B ; jmp ebx ;  (1 found)
0x00137440: or bl, byte [edi+0x03] ; sbb al, 0x8B ; jmp ebx ;  (1 found)
0x00138a20: or bl, byte [edi+0x03] ; sbb al, 0x8B ; jmp ebx ;  (1 found)
0x0016782c: or bl, byte [edi-0x03] ; call dword [esi+ebx*2] ;  (1 found)
0x000c543c: or byte [eax+0x0000009C], bh ; call dword [0x00000010] ;  (1 found)
0x00055241: or byte [eax+0x24000001], al ; cmp al, 0x0C ; retn 0x4489 ;  (1 found)
0x00095845: or byte [eax], ah ; ret  ;  (1 found)
0x00095855: or byte [eax], dh ; ret  ;  (1 found)
0x00095835: or byte [eax], dl ; ret  ;  (1 found)
0x00166e64: or byte [eax], dl ; std  ; jmp edx ;  (1 found)
0x00184e4d: or byte [ebx+0x040E4502], al ; ret  ;  (1 found)
0x00184d58: or byte [ebx+0x040E4802], al ; ret  ;  (1 found)
0x00184d73: or byte [ebx+0x040E4902], al ; ret  ;  (1 found)
0x0018575f: or byte [ebx+0x040E5902], al ; ret  ;  (1 found)
0x0018823b: or byte [ebx+0x040E5902], al ; ret  ;  (1 found)
0x00198227: or byte [ebx+0x040E6F02], al ; ret  ;  (1 found)
0x00184d4f: or byte [ebx+0x040E7302], al ; ret  ;  (1 found)
0x00094a3c: or byte [ebx+0x5B0C2444], cl ; pop esi ; ret  ;  (1 found)
0x00094b20: or byte [ebx+0x5B0C2444], cl ; pop esi ; ret  ;  (1 found)
0x000c6b29: or byte [ebx+0x5E], bl ; mov eax, edx ; ret  ;  (1 found)
0x000a5a5a: or byte [ebx-0x0001577D], cl ; jmp dword [ebp-0x75] ;  (1 found)
0x000c5575: or byte [ebx-0x47FBDBA4], cl ; mov eax, dword [0x65000000] ; call dword [0x00000010] ;  (1 found)
0x00078f55: or byte [ebx-0x74EFDB8C], cl ; cmp dword [eax-0x02], 0xFFFFFFFF ; jmp dword [ebp-0x7D] ;  (1 found)
0x000b6159: or byte [ebx-0x769FDBBC], cl ; add al, 0x24 ; call dword [esp+0x3C] ;  (1 found)
0x000f4a39: or byte [ebx-0x769FDBBC], cl ; add al, 0x24 ; call dword [esp+0x3C] ;  (1 found)
0x00106965: or byte [ebx-0x769FDBBC], cl ; add al, 0x24 ; call dword [esp+0x3C] ;  (1 found)
0x00107439: or byte [ebx-0x769FDBBC], cl ; add al, 0x24 ; call dword [esp+0x3C] ;  (1 found)
0x00108d79: or byte [ebx-0x769FDBBC], cl ; add al, 0x24 ; call dword [esp+0x3C] ;  (1 found)
0x00108f59: or byte [ebx-0x769FDBBC], cl ; add al, 0x24 ; call dword [esp+0x3C] ;  (1 found)
0x0006952d: or byte [ecx+0x29CD29D5], cl ; retn 0x0E75 ;  (1 found)
0x00056a5e: or byte [ecx+0x50FF2434], cl ; sbb al, 0x89 ; retn 0x478B ;  (1 found)
0x0012456c: or byte [ecx-0x000FFF1F], al ; jmp dword [0x00000FFF] ;  (1 found)
0x000d8a57: or byte [ecx-0x3FCEFBB0], cl ; ret  ;  (1 found)
0x0006526a: or byte [ecx-0x76FBDB94], cl ; xor al, 0x24 ; call dword [eax+0x1C] ;  (1 found)
0x00066e71: or byte [ecx-0x76FBDB94], cl ; xor al, 0x24 ; call dword [eax+0x2C] ;  (1 found)
0x00116b47: or byte [ecx-0x76FBDBAC], cl ; add al, 0x24 ; call dword [esp+0x24] ;  (1 found)
0x0004476e: or byte [ecx-0x76FBDBAC], cl ; xor al, 0x24 ; call dword [eax+0x1C] ;  (1 found)
0x00048e72: or byte [ecx-0x76FBDBB4], cl ; xor al, 0x24 ; call eax ;  (1 found)
0x00136b6c: or byte [ecx], bh ; retn 0x1E72 ;  (1 found)
0x000d6964: or byte [ecx], bh ; retn 0xD772 ;  (1 found)
0x00095e7a: or byte [ecx], dh ; rcr byte [esi+0x5F], 0x0000005D ; ret  ;  (1 found)
0x000c5b33: or byte [edi+0x00DBB8DF], al ; add byte [eax], al ; call dword [0x00000010] ;  (1 found)
0x000e9573: or byte [edi+0x010FB8D3], al ; add byte [eax], al ; call dword [0x00000010] ;  (1 found)
0x00137320: or byte [edi+0x03], bl ; sbb al, 0x8B ; jmp ebx ;  (1 found)
0x00149727: or byte [edi+0x5E], bl ; pop ebx ; ret  ;  (1 found)
0x0010507e: or byte [edi], 0x00000045 ; retn 0x90C3 ;  (1 found)
0x000a7e7f: or byte [edi], 0x0000004E ; retn 0xC483 ;  (1 found)
0x000d7e7d: or byte [edi], cl ; xchg eax, ebp ; retn 0xE083 ;  (1 found)
0x00019546: or byte [edi], cl ; xchg eax, esp ; retn 0xC031 ;  (1 found)
0x00166d50: or byte [edx], 0xFFFFFFFD ; jmp dword [eax] ;  (1 found)
0x00095e72: or byte [esi+0x5F], bl ; pop ebp ; ret  ;  (1 found)
0x00199c6c: or byte [esi+ecx+0x04], al ; ret  ;  (1 found)
0x00135634: or byte [esi-0x77], ah ; or cl, byte [ebx+0x5B082444] ; ret  ;  (1 found)
0x00137f44: or byte [esi-0x77], ah ; or cl, byte [ebx+0x5B082444] ; ret  ;  (1 found)
0x00169178: or byte [esi], 0xFFFFFFF0 ; call dword [eax-0x06] ;  (1 found)
0x00176e5d: or cl, bl ; out dx, al ; jmp dword [edx] ;  (1 found)
0x000f7a57: or cl, byte [ebx+0x458B0C6D] ; adc al, 0x39 ; retn 0xF67C ;  (1 found)
0x0013555c: or cl, byte [ebx+0x5B082444] ; ret  ;  (1 found)
0x00135637: or cl, byte [ebx+0x5B082444] ; ret  ;  (1 found)
0x00137e6c: or cl, byte [ebx+0x5B082444] ; ret  ;  (1 found)
0x00137f47: or cl, byte [ebx+0x5B082444] ; ret  ;  (1 found)
0x00139056: or cl, byte [ebx+0x5B082444] ; ret  ;  (1 found)
0x00126242: or cl, byte [edx] ; call dword [eax-0x6F6F6F70] ;  (1 found)
0x00175a23: or cl, byte [esi] ; adc al, 0x41 ; ret  ;  (1 found)
0x00178f7f: or cl, byte [esi] ; adc al, 0x41 ; ret  ;  (1 found)
0x00179f46: or cl, byte [esi] ; adc al, 0x41 ; ret  ;  (1 found)
0x00184070: or cl, byte [esi] ; adc al, 0x41 ; ret  ;  (1 found)
0x0018422e: or cl, byte [esi] ; adc al, 0x41 ; ret  ;  (1 found)
0x00185720: or cl, byte [esi] ; adc al, 0x41 ; ret  ;  (1 found)
0x0018733e: or cl, byte [esi] ; adc al, 0x41 ; ret  ;  (1 found)
0x00188751: or cl, byte [esi] ; adc al, 0x41 ; ret  ;  (1 found)
0x00189134: or cl, byte [esi] ; adc al, 0x41 ; ret  ;  (1 found)
0x00189638: or cl, byte [esi] ; adc al, 0x41 ; ret  ;  (1 found)
0x0018984b: or cl, byte [esi] ; adc al, 0x41 ; ret  ;  (1 found)
0x0018995c: or cl, byte [esi] ; adc al, 0x41 ; ret  ;  (1 found)
0x00189973: or cl, byte [esi] ; adc al, 0x41 ; ret  ;  (1 found)
0x00194a55: or cl, byte [esi] ; adc al, 0x41 ; ret  ;  (1 found)
0x00195860: or cl, byte [esi] ; adc al, 0x41 ; ret  ;  (1 found)
0x00197d4b: or cl, byte [esi] ; adc al, 0x41 ; ret  ;  (1 found)
0x00197e3a: or cl, byte [esi] ; adc al, 0x41 ; ret  ;  (1 found)
0x00199042: or cl, byte [esi] ; adc al, 0x41 ; ret  ;  (1 found)
0x0017467d: or cl, byte [esi] ; adc al, 0x43 ; ret  ;  (1 found)
0x0017473d: or cl, byte [esi] ; adc al, 0x43 ; ret  ;  (1 found)
0x00174c70: or cl, byte [esi] ; adc al, 0x43 ; ret  ;  (1 found)
0x0017735c: or cl, byte [esi] ; adc al, 0x43 ; ret  ;  (1 found)
0x00186c6f: or cl, byte [esi] ; adc al, 0x43 ; ret  ;  (1 found)
0x0018737f: or cl, byte [esi] ; adc al, 0x43 ; ret  ;  (1 found)
0x00187b68: or cl, byte [esi] ; adc al, 0x43 ; ret  ;  (1 found)
0x00189b71: or cl, byte [esi] ; adc al, 0x43 ; ret  ;  (1 found)
0x00194356: or cl, byte [esi] ; adc al, 0x43 ; ret  ;  (1 found)
0x00195d27: or cl, byte [esi] ; adc al, 0x43 ; ret  ;  (1 found)
0x00196454: or cl, byte [esi] ; adc al, 0x43 ; ret  ;  (1 found)
0x0019646c: or cl, byte [esi] ; adc al, 0x43 ; ret  ;  (1 found)
0x00198062: or cl, byte [esi] ; adc al, 0x43 ; ret  ;  (1 found)
0x00198079: or cl, byte [esi] ; adc al, 0x43 ; ret  ;  (1 found)
0x0019847f: or cl, byte [esi] ; adc al, 0x43 ; ret  ;  (1 found)
0x0019944d: or cl, byte [esi] ; adc al, 0x43 ; ret  ;  (1 found)
0x0017416c: or cl, byte [esi] ; adc al, 0x46 ; ret  ;  (1 found)
0x00174227: or cl, byte [esi] ; add al, 0xC6 ; ret  ;  (1 found)
0x0017427e: or cl, byte [esi] ; add al, 0xC6 ; ret  ;  (1 found)
0x0017427f: or cl, byte [esi] ; add al, 0xC6 ; ret  ;  (1 found)
0x00178b6f: or cl, byte [esi] ; add al, 0xC6 ; ret  ;  (1 found)
0x00179823: or cl, byte [esi] ; add al, 0xC6 ; ret  ;  (1 found)
0x00179c73: or cl, byte [esi] ; add al, 0xC6 ; ret  ;  (1 found)
0x00185833: or cl, byte [esi] ; add al, 0xC6 ; ret  ;  (1 found)
0x00186b4f: or cl, byte [esi] ; add al, 0xC6 ; ret  ;  (1 found)
0x00188d6f: or cl, byte [esi] ; add al, 0xC6 ; ret  ;  (1 found)
0x0019576b: or cl, byte [esi] ; add al, 0xC6 ; ret  ;  (1 found)
0x00196867: or cl, byte [esi] ; add al, 0xC6 ; ret  ;  (1 found)
0x00196a30: or cl, byte [esi] ; add al, 0xC6 ; ret  ;  (1 found)
0x00196d20: or cl, byte [esi] ; add al, 0xC6 ; ret  ;  (1 found)
0x0019816f: or cl, byte [esi] ; add al, 0xC6 ; ret  ;  (1 found)
0x00198c47: or cl, byte [esi] ; add al, 0xC6 ; ret  ;  (1 found)
0x0018793f: or cl, byte [esi] ; add al, 0xC7 ; ret  ;  (1 found)
0x00187963: or cl, byte [esi] ; add al, 0xC7 ; ret  ;  (1 found)
0x0017403e: or cl, byte [esi] ; or al, 0x44 ; ret  ;  (1 found)
0x00199041: or cl, byte [fs:esi] ; adc al, 0x41 ; ret  ;  (1 found)
0x00126243: or dh, al ; call dword [eax-0x6F6F6F70] ;  (1 found)
0x000e997b: or dh, byte [edx-0x77] ; retn 0xB60F ;  (1 found)
0x00186750: or dl, dh ; call dword [eax] ;  (1 found)
0x00019b5c: or dword [eax], 0x65FFFFFF ; add eax, dword [0x00000000] ; ret  ;  (1 found)
0x0001952a: or dword [ebp+0x33], esp ; add eax, 0x00000018 ; call eax ;  (1 found)
0x00024031: or dword [ebp+0x33], esp ; add eax, 0x00000018 ; call eax ;  (1 found)
0x00024177: or dword [ebp+0x33], esp ; add eax, 0x00000018 ; call eax ;  (1 found)
0x00024223: or dword [ebp+0x33], esp ; add eax, 0x00000018 ; call eax ;  (1 found)
0x0002657e: or dword [ebp+0x33], esp ; add eax, 0x00000018 ; call eax ;  (1 found)
0x00026751: or dword [ebp+0x33], esp ; add eax, 0x00000018 ; call eax ;  (1 found)
0x00026829: or dword [ebp+0x33], esp ; add eax, 0x00000018 ; call eax ;  (1 found)
0x00026849: or dword [ebp+0x33], esp ; add eax, 0x00000018 ; call eax ;  (1 found)
0x00027436: or dword [ebp+0x33], esp ; add eax, 0x00000018 ; call eax ;  (1 found)
0x00027479: or dword [ebp+0x33], esp ; add eax, 0x00000018 ; call eax ;  (1 found)
0x00027f58: or dword [ebp+0x33], esp ; add eax, 0x00000018 ; call eax ;  (1 found)
0x00028949: or dword [ebp+0x33], esp ; add eax, 0x00000018 ; call eax ;  (1 found)
0x00028972: or dword [ebp+0x33], esp ; add eax, 0x00000018 ; call eax ;  (1 found)
0x00028b7b: or dword [ebp+0x33], esp ; add eax, 0x00000018 ; call eax ;  (1 found)
0x00028d34: or dword [ebp+0x33], esp ; add eax, 0x00000018 ; call eax ;  (1 found)
0x00028f61: or dword [ebp+0x33], esp ; add eax, 0x00000018 ; call eax ;  (1 found)
0x00029123: or dword [ebp+0x33], esp ; add eax, 0x00000018 ; call eax ;  (1 found)
0x0012784e: or dword [ebx+0x5F5E24C4], eax ; ret  ;  (1 found)
0x00105473: or dword [ebx-0x0000FF6D], ecx ; jmp dword [ebp-0x77] ;  (1 found)
0x00078229: or dword [ecx+ebx], 0x00000000 ; add byte [eax], al ; ret  ;  (1 found)
0x00135f30: or dword [edi+0x03], ebx ; sbb al, 0x8B ; jmp ebx ;  (1 found)
0x00139970: or dword [edi+0x03], ebx ; sbb al, 0x8B ; jmp ebx ;  (1 found)
0x00109174: or dword [edi], ecx ; inc esi ; int 0x80 ;  (1 found)
0x0012784b: or dword [edx+0x74], edi ; or dword [ebx+0x5F5E24C4], eax ; ret  ;  (1 found)
0x00186e2d: or dword [edx-0x0E], esi ; jmp dword [edx] ;  (1 found)
0x00095773: or dword [esi+0x0F], esp ; xlatb  ; retn 0xC085 ;  (1 found)
0x00149072: or eax, 0x408D2B72 ; or al, 0x5F ; ret  ;  (1 found)
0x00148052: or eax, 0x478D2B72 ; or al, 0x5F ; ret  ;  (1 found)
0x000a844b: or eax, 0x65000000 ; call dword [0x00000010] ;  (1 found)
0x00124962: or eax, 0x81000054 ; ret  ;  (1 found)
0x00119962: or eax, 0x81000104 ; ret  ;  (1 found)
0x000a7c62: or eax, 0x81000821 ; ret  ;  (1 found)
0x00099a62: or eax, 0x81000903 ; ret  ;  (1 found)
0x00097d62: or eax, 0x81000920 ; ret  ;  (1 found)
0x00077362: or eax, 0x81000B2A ; ret  ;  (1 found)
0x00136170: or eax, 0x8B1C035F ; jmp ebx ;  (1 found)
0x00178b75: or eax, dword [edx] ; inc edi ; ret  ;  (1 found)
0x00188840: or eax, dword [edx] ; out 0x0A, al ; ret  ;  (1 found)
0x00174628: or eax, dword [edx] ; push esi ; ret  ;  (1 found)
0x0018446a: or eax, dword [esi+0x0E] ; adc al, 0x41 ; ret  ;  (1 found)
0x000a766f: or ebp, dword [ecx] ; retn 0x5589 ;  (1 found)
0x00184567: or ebp, dword [esi+0x0A] ; ret  ;  (1 found)
0x0019975a: or ebx, dword [eax+0x0A] ; ret  ;  (1 found)
0x00136050: or ebx, dword [edi+0x03] ; sbb al, 0x8B ; jmp ebx ;  (1 found)
0x00175837: or ebx, dword [edx+0x0A] ; ret  ;  (1 found)
0x0018746d: or ebx, esi ; call edi ;  (1 found)
0x00087972: or ecx, dword [ebp-0x7AF0F4B6] ; adc eax, 0x5BFFFFFE ; ret  ;  (1 found)
0x00087975: or ecx, dword [edi] ; test dword [0x5BFFFFFE], edx ; ret  ;  (1 found)
0x00176f5d: or edi, ebp ; call esp ;  (1 found)
0x00176f21: or edi, ebp ; jmp dword [ebx] ;  (1 found)
0x00196a36: or edx, dword [ecx+0x0A] ; ret  ;  (1 found)
0x00188332: or edx, dword [esi+0x0A] ; ret  ;  (1 found)
0x0017422d: or esi, dword [ebx+0x0A] ; ret  ;  (1 found)
0x00174235: or esi, dword [esi+0x0A] ; ret  ;  (1 found)
0x00199040: or esp, dword [edx+ecx+0x0E] ; adc al, 0x41 ; ret  ;  (1 found)
0x0017886f: or esp, dword [esi+ecx+0x14] ; inc ecx ; ret  ;  (1 found)
0x00099043: or esp, ebx ; clc  ; call dword [eax-0x6BDB6B75] ;  (1 found)
0x00168e2d: out 0x00, al ; add byte [ebx+ebx*8-0x11], dl ; call eax ;  (1 found)
0x00179635: out 0x01, al ; out dx, eax ; jmp dword [edx] ;  (1 found)
0x00188842: out 0x0A, al ; ret  ;  (1 found)
0x00186431: out 0xF2, al ; jmp dword [edx+0x00] ;  (1 found)
0x00189f59: out 0xF4, al ; jmp dword [esi+0x00] ;  (1 found)
0x00166851: out 0xFC, al ; call dword [eax] ;  (1 found)
0x00166841: out 0xFC, al ; jmp dword [eax-0x19] ;  (1 found)
0x00166855: out 0xFC, eax ; jmp dword [eax+0x30FFFCE7] ;  (1 found)
0x00168b4a: out dx, al ; call dword [eax+0x340000D5] ;  (1 found)
0x00175e22: out dx, al ; call dword [eax+eax+0x00] ;  (1 found)
0x00168c6a: out dx, al ; call dword [eax-0x4BFFFF25] ;  (1 found)
0x00168c42: out dx, al ; call dword [eax-0x70FFFF26] ;  (1 found)
0x0017547a: out dx, al ; call dword [ecx] ;  (1 found)
0x00168c22: out dx, al ; call esp ;  (1 found)
0x00178169: out dx, al ; fsqrt  ; jmp dword [edx] ;  (1 found)
0x00168c3a: out dx, al ; jmp dword [eax] ;  (1 found)
0x00168b42: out dx, al ; jmp dword [ebp+edx*8+0x00] ;  (1 found)
0x00168c62: out dx, al ; jmp dword [ebx+ebx*8+0x00] ;  (1 found)
0x00175622: out dx, al ; jmp dword [ebx] ;  (1 found)
0x00176125: out dx, al ; jmp dword [ecx+eax] ;  (1 found)
0x00176126: out dx, al ; jmp dword [ecx+eax] ;  (1 found)
0x00168a72: out dx, al ; jmp dword [ecx+edx*8+0x00] ;  (1 found)
0x00168a3a: out dx, al ; jmp dword [edi+ecx*8+0x00] ;  (1 found)
0x00175743: out dx, al ; jmp dword [edx] ;  (1 found)
0x00175773: out dx, al ; jmp dword [edx] ;  (1 found)
0x00175b4f: out dx, al ; jmp dword [edx] ;  (1 found)
0x00175c37: out dx, al ; jmp dword [edx] ;  (1 found)
0x00175c67: out dx, al ; jmp dword [edx] ;  (1 found)
0x00175d23: out dx, al ; jmp dword [edx] ;  (1 found)
0x00176027: out dx, al ; jmp dword [edx] ;  (1 found)
0x00176057: out dx, al ; jmp dword [edx] ;  (1 found)
0x00176177: out dx, al ; jmp dword [edx] ;  (1 found)
0x00176237: out dx, al ; jmp dword [edx] ;  (1 found)
0x00176267: out dx, al ; jmp dword [edx] ;  (1 found)
0x00176327: out dx, al ; jmp dword [edx] ;  (1 found)
0x00176357: out dx, al ; jmp dword [edx] ;  (1 found)
0x00176537: out dx, al ; jmp dword [edx] ;  (1 found)
0x00176567: out dx, al ; jmp dword [edx] ;  (1 found)
0x0017664b: out dx, al ; jmp dword [edx] ;  (1 found)
0x0017667b: out dx, al ; jmp dword [edx] ;  (1 found)
0x00176827: out dx, al ; jmp dword [edx] ;  (1 found)
0x00176973: out dx, al ; jmp dword [edx] ;  (1 found)
0x00176a5f: out dx, al ; jmp dword [edx] ;  (1 found)
0x00176b4f: out dx, al ; jmp dword [edx] ;  (1 found)
0x00176b7f: out dx, al ; jmp dword [edx] ;  (1 found)
0x00176e5f: out dx, al ; jmp dword [edx] ;  (1 found)
0x0017704b: out dx, al ; jmp dword [edx] ;  (1 found)
0x0017707b: out dx, al ; jmp dword [edx] ;  (1 found)
0x00177153: out dx, al ; jmp dword [edx] ;  (1 found)
0x0017724f: out dx, al ; jmp dword [edx] ;  (1 found)
0x0017745b: out dx, al ; jmp dword [edx] ;  (1 found)
0x00177547: out dx, al ; jmp dword [edx] ;  (1 found)
0x00177577: out dx, al ; jmp dword [edx] ;  (1 found)
0x00177667: out dx, al ; jmp dword [edx] ;  (1 found)
0x00177727: out dx, al ; jmp dword [edx] ;  (1 found)
0x00177757: out dx, al ; jmp dword [edx] ;  (1 found)
0x00177a77: out dx, al ; jmp dword [edx] ;  (1 found)
0x00177b37: out dx, al ; jmp dword [edx] ;  (1 found)
0x00177b67: out dx, al ; jmp dword [edx] ;  (1 found)
0x00177c23: out dx, al ; jmp dword [edx] ;  (1 found)
0x00177c53: out dx, al ; jmp dword [edx] ;  (1 found)
0x00177d43: out dx, al ; jmp dword [edx] ;  (1 found)
0x0017813b: out dx, al ; jmp dword [edx] ;  (1 found)
0x00178727: out dx, al ; jmp dword [edx] ;  (1 found)
0x00178e43: out dx, al ; jmp dword [edx] ;  (1 found)
0x00178e71: out dx, al ; jmp dword [edx] ;  (1 found)
0x00178e72: out dx, al ; jmp dword [edx] ;  (1 found)
0x00178e73: out dx, al ; jmp dword [edx] ;  (1 found)
0x0017913f: out dx, al ; jmp dword [edx] ;  (1 found)
0x0017916f: out dx, al ; jmp dword [edx] ;  (1 found)
0x00179237: out dx, al ; jmp dword [edx] ;  (1 found)
0x00179267: out dx, al ; jmp dword [edx] ;  (1 found)
0x00179337: out dx, al ; jmp dword [edx] ;  (1 found)
0x00168b5a: out dx, al ; jmp esp ;  (1 found)
0x00168f31: out dx, al ; out dx, eax ; jmp dword [eax] ;  (1 found)
0x00178148: out dx, al ; sti  ; call dword [eax] ;  (1 found)
0x00179c61: out dx, ax ; jmp dword [eax+eax+0x00] ;  (1 found)
0x00168f42: out dx, eax ; call dword [eax+0x330000ED] ;  (1 found)
0x00168e72: out dx, eax ; call dword [eax-0x17] ;  (1 found)
0x00168e52: out dx, eax ; call dword [eax-0x6AFFFF18] ;  (1 found)
0x00168d2a: out dx, eax ; call dword [eax] ;  (1 found)
0x0017662a: out dx, eax ; call dword [eax] ;  (1 found)
0x0017665a: out dx, eax ; call dword [eax] ;  (1 found)
0x00176922: out dx, eax ; call dword [ebx] ;  (1 found)
0x00178a71: out dx, eax ; call dword [esi+0x00] ;  (1 found)
0x00178a72: out dx, eax ; call dword [esi+0x00] ;  (1 found)
0x00168e32: out dx, eax ; call eax ;  (1 found)
0x00177f2a: out dx, eax ; call edx ;  (1 found)
0x00176f5e: out dx, eax ; call esp ;  (1 found)
0x00168e4a: out dx, eax ; jmp dword [eax+0x140000E7] ;  (1 found)
0x00179c62: out dx, eax ; jmp dword [eax+eax+0x00] ;  (1 found)
0x00169062: out dx, eax ; jmp dword [eax-0x0C] ;  (1 found)
0x00168e6a: out dx, eax ; jmp dword [eax-0x18] ;  (1 found)
0x00168d22: out dx, eax ; jmp dword [eax-0x4AFFFF1F] ;  (1 found)
0x00168f32: out dx, eax ; jmp dword [eax] ;  (1 found)
0x00177626: out dx, eax ; jmp dword [eax] ;  (1 found)
0x00179a36: out dx, eax ; jmp dword [ebx+0x00000000] ;  (1 found)
0x00176f22: out dx, eax ; jmp dword [ebx] ;  (1 found)
0x0017892e: out dx, eax ; jmp dword [ebx] ;  (1 found)
0x00179637: out dx, eax ; jmp dword [edx] ;  (1 found)
0x00179773: out dx, eax ; jmp dword [edx] ;  (1 found)
0x00179947: out dx, eax ; jmp dword [edx] ;  (1 found)
0x00176c72: out dx, eax ; jmp dword [esi+0x00000000] ;  (1 found)
0x00168e2a: out dx, eax ; jmp eax ;  (1 found)
0x0017956a: out dx, eax ; jmp ebp ;  (1 found)
0x00176c4a: out dx, eax ; jmp ebx ;  (1 found)
0x00179c31: out dx, eax ; jmp esi ;  (1 found)
0x00179c32: out dx, eax ; jmp esi ;  (1 found)
0x00175e21: out dx, eax ; out dx, al ; call dword [eax+eax+0x00] ;  (1 found)
0x00178e42: out dx, eax ; out dx, al ; jmp dword [edx] ;  (1 found)
0x00168839: outsb  ; in eax, dx ; jmp dword [eax-0x3D] ;  (1 found)
0x00169669: outsd  ; call dword [edx+ebx+0x71340001] ;  (1 found)
0x00144356: outsd  ; fsub st1, st0 ; ret  ;  (1 found)
0x00144a46: outsd  ; fsub st1, st0 ; ret  ;  (1 found)
0x00145136: outsd  ; fsub st1, st0 ; ret  ;  (1 found)
0x00158d35: outsd  ; ret  ;  (1 found)
0x00095631: pcmpeqb mm1, qword [ebx+eax*4] ; rcl dword [eax], 0xFFFFFF83 ; retn 0x2910 ;  (1 found)
0x000e6a69: pop ds ; add esp, 0x0C ; ret  ;  (1 found)
0x0011753d: pop ds ; idiv bh ; call dword [eax-0x6F6F6F70] ;  (1 found)
0x00176679: pop ds ; ret  ;  (1 found)
0x00166f4c: pop ds ; std  ; call dword [eax] ;  (1 found)
0x00166f4d: pop ds ; std  ; call dword [eax] ;  (1 found)
0x00167071: pop ds ; std  ; call dword [eax] ;  (1 found)
0x00166f3d: pop ds ; std  ; call dword [esi] ;  (1 found)
0x00167051: pop ds ; std  ; jmp dword [eax] ;  (1 found)
0x00167041: pop ds ; std  ; jmp dword [esi] ;  (1 found)
0x000b6b57: pop eax ; add esp, 0x5C ; ret  ;  (1 found)
0x00118d5f: pop eax ; add esp, 0x5C ; ret  ;  (1 found)
0x0012443d: pop eax ; add esp, 0x5C ; ret  ;  (1 found)
0x00189421: pop eax ; hlt  ; jmp dword [ebx+0x01] ;  (1 found)
0x00168149: pop eax ; in al, dx ; call dword [eax+0x5400009D] ;  (1 found)
0x00179a35: pop eax ; out dx, eax ; jmp dword [ebx+0x00000000] ;  (1 found)
0x0014527b: pop ebp ; pop ebx ; ret  ;  (1 found)
0x00145331: pop ebp ; pop ebx ; ret  ;  (1 found)
0x00145361: pop ebp ; pop ebx ; ret  ;  (1 found)
0x00145436: pop ebp ; pop ebx ; ret  ;  (1 found)
0x0014544c: pop ebp ; pop ebx ; ret  ;  (1 found)
0x0014572e: pop ebp ; pop ebx ; ret  ;  (1 found)
0x00187f42: pop ebp ; push es ; ret  ;  (1 found)
0x0001706f: pop ebp ; ret  ;  (1 found)
0x0001734e: pop ebp ; ret  ;  (1 found)
0x0001753b: pop ebp ; ret  ;  (1 found)
0x0001923d: pop ebp ; ret  ;  (1 found)
0x00024253: pop ebp ; ret  ;  (1 found)
0x0002587e: pop ebp ; ret  ;  (1 found)
0x0002637a: pop ebp ; ret  ;  (1 found)
0x0002673e: pop ebp ; ret  ;  (1 found)
0x00026765: pop ebp ; ret  ;  (1 found)
0x00027446: pop ebp ; ret  ;  (1 found)
0x00028a74: pop ebp ; ret  ;  (1 found)
0x00036034: pop ebp ; ret  ;  (1 found)
0x0003675c: pop ebp ; ret  ;  (1 found)
0x00037123: pop ebp ; ret  ;  (1 found)
0x00038e54: pop ebp ; ret  ;  (1 found)
0x00039f5b: pop ebp ; ret  ;  (1 found)
0x0004793f: pop ebp ; ret  ;  (1 found)
0x0004806a: pop ebp ; ret  ;  (1 found)
0x00055352: pop ebp ; ret  ;  (1 found)
0x00055e4f: pop ebp ; ret  ;  (1 found)
0x00056064: pop ebp ; ret  ;  (1 found)
0x00056533: pop ebp ; ret  ;  (1 found)
0x00056554: pop ebp ; ret  ;  (1 found)
0x0005673e: pop ebp ; ret  ;  (1 found)
0x0006464a: pop ebp ; ret  ;  (1 found)
0x0006475b: pop ebp ; ret  ;  (1 found)
0x00065b7a: pop ebp ; ret  ;  (1 found)
0x00065d5e: pop ebp ; ret  ;  (1 found)
0x00067c61: pop ebp ; ret  ;  (1 found)
0x0006852d: pop ebp ; ret  ;  (1 found)
0x00069c4d: pop ebp ; ret  ;  (1 found)
0x00074332: pop ebp ; ret  ;  (1 found)
0x00075676: pop ebp ; ret  ;  (1 found)
0x00076139: pop ebp ; ret  ;  (1 found)
0x00078262: pop ebp ; ret  ;  (1 found)
0x0007833c: pop ebp ; ret  ;  (1 found)
0x0008405f: pop ebp ; ret  ;  (1 found)
0x00094f52: pop ebp ; ret  ;  (1 found)
0x00095a66: pop ebp ; ret  ;  (1 found)
0x00095a70: pop ebp ; ret  ;  (1 found)
0x00095a7a: pop ebp ; ret  ;  (1 found)
0x00095e75: pop ebp ; ret  ;  (1 found)
0x00095e7f: pop ebp ; ret  ;  (1 found)
0x00096021: pop ebp ; ret  ;  (1 found)
0x00096522: pop ebp ; ret  ;  (1 found)
0x00097b7d: pop ebp ; ret  ;  (1 found)
0x00097f30: pop ebp ; ret  ;  (1 found)
0x00098078: pop ebp ; ret  ;  (1 found)
0x00098177: pop ebp ; ret  ;  (1 found)
0x00098557: pop ebp ; ret  ;  (1 found)
0x00098b4b: pop ebp ; ret  ;  (1 found)
0x0009937b: pop ebp ; ret  ;  (1 found)
0x000a4a20: pop ebp ; ret  ;  (1 found)
0x000a5475: pop ebp ; ret  ;  (1 found)
0x000a5621: pop ebp ; ret  ;  (1 found)
0x000a5662: pop ebp ; ret  ;  (1 found)
0x000a5734: pop ebp ; ret  ;  (1 found)
0x000a573f: pop ebp ; ret  ;  (1 found)
0x000a7e67: pop ebp ; ret  ;  (1 found)
0x000a8263: pop ebp ; ret  ;  (1 found)
0x000a8278: pop ebp ; ret  ;  (1 found)
0x000a8a68: pop ebp ; ret  ;  (1 found)
0x000b4062: pop ebp ; ret  ;  (1 found)
0x000b4073: pop ebp ; ret  ;  (1 found)
0x000b4838: pop ebp ; ret  ;  (1 found)
0x000b4a38: pop ebp ; ret  ;  (1 found)
0x000b4f6b: pop ebp ; ret  ;  (1 found)
0x000b5b20: pop ebp ; ret  ;  (1 found)
0x000b5f7b: pop ebp ; ret  ;  (1 found)
0x000b6450: pop ebp ; ret  ;  (1 found)
0x000b672e: pop ebp ; ret  ;  (1 found)
0x000b6d7c: pop ebp ; ret  ;  (1 found)
0x000b732b: pop ebp ; ret  ;  (1 found)
0x000b774e: pop ebp ; ret  ;  (1 found)
0x000b7947: pop ebp ; ret  ;  (1 found)
0x000b8072: pop ebp ; ret  ;  (1 found)
0x000b8446: pop ebp ; ret  ;  (1 found)
0x000b8822: pop ebp ; ret  ;  (1 found)
0x000b8c37: pop ebp ; ret  ;  (1 found)
0x000b8c58: pop ebp ; ret  ;  (1 found)
0x000c4258: pop ebp ; ret  ;  (1 found)
0x000c5e7d: pop ebp ; ret  ;  (1 found)
0x000c635b: pop ebp ; ret  ;  (1 found)
0x000c6e23: pop ebp ; ret  ;  (1 found)
0x000c6e66: pop ebp ; ret  ;  (1 found)
0x000c7344: pop ebp ; ret  ;  (1 found)
0x000c735a: pop ebp ; ret  ;  (1 found)
0x000d4361: pop ebp ; ret  ;  (1 found)
0x000d614b: pop ebp ; ret  ;  (1 found)
0x000d7629: pop ebp ; ret  ;  (1 found)
0x000d8624: pop ebp ; ret  ;  (1 found)
0x000d9824: pop ebp ; ret  ;  (1 found)
0x000e4663: pop ebp ; ret  ;  (1 found)
0x000e564b: pop ebp ; ret  ;  (1 found)
0x000e5f38: pop ebp ; ret  ;  (1 found)
0x000e5f60: pop ebp ; ret  ;  (1 found)
0x000e836e: pop ebp ; ret  ;  (1 found)
0x000e837b: pop ebp ; ret  ;  (1 found)
0x000e8b3c: pop ebp ; ret  ;  (1 found)
0x000e8c21: pop ebp ; ret  ;  (1 found)
0x000e8f7d: pop ebp ; ret  ;  (1 found)
0x000e952e: pop ebp ; ret  ;  (1 found)
0x000e9538: pop ebp ; ret  ;  (1 found)
0x000e9b70: pop ebp ; ret  ;  (1 found)
0x000f5122: pop ebp ; ret  ;  (1 found)
0x000f5846: pop ebp ; ret  ;  (1 found)
0x000f6037: pop ebp ; ret  ;  (1 found)
0x000f6660: pop ebp ; ret  ;  (1 found)
0x000f6e71: pop ebp ; ret  ;  (1 found)
0x000f7b56: pop ebp ; ret  ;  (1 found)
0x000f7b74: pop ebp ; ret  ;  (1 found)
0x000f8527: pop ebp ; ret  ;  (1 found)
0x000f8b21: pop ebp ; ret  ;  (1 found)
0x000f8b3a: pop ebp ; ret  ;  (1 found)
0x000f8d44: pop ebp ; ret  ;  (1 found)
0x000f8f2e: pop ebp ; ret  ;  (1 found)
0x000f8f49: pop ebp ; ret  ;  (1 found)
0x00104961: pop ebp ; ret  ;  (1 found)
0x00104f42: pop ebp ; ret  ;  (1 found)
0x00104f7f: pop ebp ; ret  ;  (1 found)
0x00105734: pop ebp ; ret  ;  (1 found)
0x00105e27: pop ebp ; ret  ;  (1 found)
0x00106223: pop ebp ; ret  ;  (1 found)
0x00107126: pop ebp ; ret  ;  (1 found)
0x00107133: pop ebp ; ret  ;  (1 found)
0x00107b37: pop ebp ; ret  ;  (1 found)
0x00108277: pop ebp ; ret  ;  (1 found)
0x0010886c: pop ebp ; ret  ;  (1 found)
0x00109543: pop ebp ; ret  ;  (1 found)
0x0010972d: pop ebp ; ret  ;  (1 found)
0x00109a38: pop ebp ; ret  ;  (1 found)
0x0011427e: pop ebp ; ret  ;  (1 found)
0x0011433b: pop ebp ; ret  ;  (1 found)
0x00114344: pop ebp ; ret  ;  (1 found)
0x00114a6a: pop ebp ; ret  ;  (1 found)
0x00114a7d: pop ebp ; ret  ;  (1 found)
0x00116438: pop ebp ; ret  ;  (1 found)
0x0011665d: pop ebp ; ret  ;  (1 found)
0x00117244: pop ebp ; ret  ;  (1 found)
0x0011742c: pop ebp ; ret  ;  (1 found)
0x00119158: pop ebp ; ret  ;  (1 found)
0x00119168: pop ebp ; ret  ;  (1 found)
0x00119220: pop ebp ; ret  ;  (1 found)
0x0012545b: pop ebp ; ret  ;  (1 found)
0x00125823: pop ebp ; ret  ;  (1 found)
0x00127b79: pop ebp ; ret  ;  (1 found)
0x00127e25: pop ebp ; ret  ;  (1 found)
0x00127f2a: pop ebp ; ret  ;  (1 found)
0x0012904c: pop ebp ; ret  ;  (1 found)
0x00129730: pop ebp ; ret  ;  (1 found)
0x00129871: pop ebp ; ret  ;  (1 found)
0x00197435: pop ebp ; ret  ;  (1 found)
0x0001715f: pop ebp ; retn 0x0004 ;  (1 found)
0x00027a21: pop ebp ; retn 0x0004 ;  (1 found)
0x00028f4a: pop ebp ; retn 0x0004 ;  (1 found)
0x000e7537: pop ebp ; retn 0x0004 ;  (1 found)
0x000e7558: pop ebp ; retn 0x0004 ;  (1 found)
0x00027c25: pop ebp ; retn 0x0008 ;  (1 found)
0x0012714b: pop ebp ; retn 0x0008 ;  (1 found)
0x00017e79: pop ebp ; retn 0x0010 ;  (1 found)
0x000d9f43: pop ebp ; retn 0x0014 ;  (1 found)
0x00177545: pop ebp ; shr esi, 1  ; jmp dword [edx] ;  (1 found)
0x0016777d: pop ebp ; std  ; call dword [esi+0x5C] ;  (1 found)
0x0016775d: pop ebp ; std  ; jmp dword [edx+0x5C] ;  (1 found)
0x00167769: pop ebp ; std  ; jmp dword [edx+0x5D] ;  (1 found)
0x00169e40: pop ebp ; xor ecx, esi ; jmp dword [edi+edi+0x316D0001] ;  (1 found)
0x00199b65: pop ebx ; clc  ; call dword [ecx] ;  (1 found)
0x00186042: pop ebx ; jmp dword [edx] ;  (1 found)
0x00186072: pop ebx ; jmp dword [edx] ;  (1 found)
0x00055453: pop ebx ; mov eax, edx ; ret  ;  (1 found)
0x000e7c72: pop ebx ; mov eax, edx ; ret  ;  (1 found)
0x00094166: pop ebx ; pop edi ; ret  ;  (1 found)
0x00094172: pop ebx ; pop edi ; ret  ;  (1 found)
0x00055c48: pop ebx ; pop esi ; ret  ;  (1 found)
0x0007402e: pop ebx ; pop esi ; ret  ;  (1 found)
0x00094a2b: pop ebx ; pop esi ; ret  ;  (1 found)
0x00094a41: pop ebx ; pop esi ; ret  ;  (1 found)
0x00094a63: pop ebx ; pop esi ; ret  ;  (1 found)
0x00094b25: pop ebx ; pop esi ; ret  ;  (1 found)
0x00094b49: pop ebx ; pop esi ; ret  ;  (1 found)
0x00094b69: pop ebx ; pop esi ; ret  ;  (1 found)
0x00094c25: pop ebx ; pop esi ; ret  ;  (1 found)
0x00094c4b: pop ebx ; pop esi ; ret  ;  (1 found)
0x00094c69: pop ebx ; pop esi ; ret  ;  (1 found)
0x00094d2f: pop ebx ; pop esi ; ret  ;  (1 found)
0x00094d5f: pop ebx ; pop esi ; ret  ;  (1 found)
0x00094e3a: pop ebx ; pop esi ; ret  ;  (1 found)
0x000b6c6e: pop ebx ; pop esi ; ret  ;  (1 found)
0x000b717e: pop ebx ; pop esi ; ret  ;  (1 found)
0x000c5d6c: pop ebx ; pop esi ; ret  ;  (1 found)
0x000d943b: pop ebx ; pop esi ; ret  ;  (1 found)
0x000d943c: pop ebx ; pop esi ; ret  ;  (1 found)
0x000d946a: pop ebx ; pop esi ; ret  ;  (1 found)
0x000d946b: pop ebx ; pop esi ; ret  ;  (1 found)
0x000e8447: pop ebx ; pop esi ; ret  ;  (1 found)
0x000f492e: pop ebx ; pop esi ; ret  ;  (1 found)
0x000f674d: pop ebx ; pop esi ; ret  ;  (1 found)
0x000f674e: pop ebx ; pop esi ; ret  ;  (1 found)
0x00106679: pop ebx ; pop esi ; ret  ;  (1 found)
0x00106f69: pop ebx ; pop esi ; ret  ;  (1 found)
0x00107850: pop ebx ; pop esi ; ret  ;  (1 found)
0x00108670: pop ebx ; pop esi ; ret  ;  (1 found)
0x0010875e: pop ebx ; pop esi ; ret  ;  (1 found)
0x00108c70: pop ebx ; pop esi ; ret  ;  (1 found)
0x00124d36: pop ebx ; pop esi ; ret  ;  (1 found)
0x00126e39: pop ebx ; pop esi ; ret  ;  (1 found)
0x00126e66: pop ebx ; pop esi ; ret  ;  (1 found)
0x00128c4d: pop ebx ; pop esi ; ret  ;  (1 found)
0x00128c4e: pop ebx ; pop esi ; ret  ;  (1 found)
0x00128c70: pop ebx ; pop esi ; ret  ;  (1 found)
0x00128c71: pop ebx ; pop esi ; ret  ;  (1 found)
0x0001934e: pop ebx ; ret  ;  (1 found)
0x00019620: pop ebx ; ret  ;  (1 found)
0x00019b41: pop ebx ; ret  ;  (1 found)
0x00024a20: pop ebx ; ret  ;  (1 found)
0x00027736: pop ebx ; ret  ;  (1 found)
0x00028e4e: pop ebx ; ret  ;  (1 found)
0x00034033: pop ebx ; ret  ;  (1 found)
0x00035a4b: pop ebx ; ret  ;  (1 found)
0x00035b4b: pop ebx ; ret  ;  (1 found)
0x00047a42: pop ebx ; ret  ;  (1 found)
0x0005474e: pop ebx ; ret  ;  (1 found)
0x00065c76: pop ebx ; ret  ;  (1 found)
0x00068b5e: pop ebx ; ret  ;  (1 found)
0x00077b58: pop ebx ; ret  ;  (1 found)
0x00087133: pop ebx ; ret  ;  (1 found)
0x00087177: pop ebx ; ret  ;  (1 found)
0x00087430: pop ebx ; ret  ;  (1 found)
0x00087453: pop ebx ; ret  ;  (1 found)
0x00087475: pop ebx ; ret  ;  (1 found)
0x0008753f: pop ebx ; ret  ;  (1 found)
0x0008756d: pop ebx ; ret  ;  (1 found)
0x00087623: pop ebx ; ret  ;  (1 found)
0x00087636: pop ebx ; ret  ;  (1 found)
0x00087642: pop ebx ; ret  ;  (1 found)
0x00087655: pop ebx ; ret  ;  (1 found)
0x00087666: pop ebx ; ret  ;  (1 found)
0x00087675: pop ebx ; ret  ;  (1 found)
0x00087832: pop ebx ; ret  ;  (1 found)
0x00087854: pop ebx ; ret  ;  (1 found)
0x0008787a: pop ebx ; ret  ;  (1 found)
0x0008793c: pop ebx ; ret  ;  (1 found)
0x0008795e: pop ebx ; ret  ;  (1 found)
0x0008797c: pop ebx ; ret  ;  (1 found)
0x00087a20: pop ebx ; ret  ;  (1 found)
0x00087a46: pop ebx ; ret  ;  (1 found)
0x00088369: pop ebx ; ret  ;  (1 found)
0x00088436: pop ebx ; ret  ;  (1 found)
0x00096832: pop ebx ; ret  ;  (1 found)
0x00097c31: pop ebx ; ret  ;  (1 found)
0x00097d52: pop ebx ; ret  ;  (1 found)
0x00097e72: pop ebx ; ret  ;  (1 found)
0x00098132: pop ebx ; ret  ;  (1 found)
0x00098e4e: pop ebx ; ret  ;  (1 found)
0x00099a53: pop ebx ; ret  ;  (1 found)
0x00099b43: pop ebx ; ret  ;  (1 found)
0x00099c33: pop ebx ; ret  ;  (1 found)
0x00099c7b: pop ebx ; ret  ;  (1 found)
0x00099d3b: pop ebx ; ret  ;  (1 found)
0x00099d7b: pop ebx ; ret  ;  (1 found)
0x000a7c20: pop ebx ; ret  ;  (1 found)
0x000a7c5e: pop ebx ; ret  ;  (1 found)
0x000a8437: pop ebx ; ret  ;  (1 found)
0x000a9368: pop ebx ; ret  ;  (1 found)
0x000b5c43: pop ebx ; ret  ;  (1 found)
0x000b8772: pop ebx ; ret  ;  (1 found)
0x000b8a72: pop ebx ; ret  ;  (1 found)
0x000b9149: pop ebx ; ret  ;  (1 found)
0x000b9927: pop ebx ; ret  ;  (1 found)
0x000b996d: pop ebx ; ret  ;  (1 found)
0x000b9975: pop ebx ; ret  ;  (1 found)
0x000b997d: pop ebx ; ret  ;  (1 found)
0x000c524e: pop ebx ; ret  ;  (1 found)
0x000c534e: pop ebx ; ret  ;  (1 found)
0x000c5c72: pop ebx ; ret  ;  (1 found)
0x000d773a: pop ebx ; ret  ;  (1 found)
0x000e502a: pop ebx ; ret  ;  (1 found)
0x000e5e32: pop ebx ; ret  ;  (1 found)
0x000e7a2b: pop ebx ; ret  ;  (1 found)
0x000e877a: pop ebx ; ret  ;  (1 found)
0x000e883d: pop ebx ; ret  ;  (1 found)
0x000e8a44: pop ebx ; ret  ;  (1 found)
0x000e8c57: pop ebx ; ret  ;  (1 found)
0x000e9a49: pop ebx ; ret  ;  (1 found)
0x000f4851: pop ebx ; ret  ;  (1 found)
0x000f5d23: pop ebx ; ret  ;  (1 found)
0x000f7242: pop ebx ; ret  ;  (1 found)
0x00104737: pop ebx ; ret  ;  (1 found)
0x00104834: pop ebx ; ret  ;  (1 found)
0x00104a34: pop ebx ; ret  ;  (1 found)
0x00104c44: pop ebx ; ret  ;  (1 found)
0x00104d2c: pop ebx ; ret  ;  (1 found)
0x00104e53: pop ebx ; ret  ;  (1 found)
0x00107771: pop ebx ; ret  ;  (1 found)
0x0011947c: pop ebx ; ret  ;  (1 found)
0x00119838: pop ebx ; ret  ;  (1 found)
0x00124120: pop ebx ; ret  ;  (1 found)
0x00124a75: pop ebx ; ret  ;  (1 found)
0x00124b3a: pop ebx ; ret  ;  (1 found)
0x00124c6f: pop ebx ; ret  ;  (1 found)
0x00126527: pop ebx ; ret  ;  (1 found)
0x0012654e: pop ebx ; ret  ;  (1 found)
0x0012656e: pop ebx ; ret  ;  (1 found)
0x00126c6f: pop ebx ; ret  ;  (1 found)
0x00126f34: pop ebx ; ret  ;  (1 found)
0x00128b46: pop ebx ; ret  ;  (1 found)
0x00129971: pop ebx ; ret  ;  (1 found)
0x00134039: pop ebx ; ret  ;  (1 found)
0x0013406a: pop ebx ; ret  ;  (1 found)
0x0013412c: pop ebx ; ret  ;  (1 found)
0x0013415f: pop ebx ; ret  ;  (1 found)
0x00134242: pop ebx ; ret  ;  (1 found)
0x00134e4c: pop ebx ; ret  ;  (1 found)
0x00134f3d: pop ebx ; ret  ;  (1 found)
0x00135065: pop ebx ; ret  ;  (1 found)
0x00135145: pop ebx ; ret  ;  (1 found)
0x00135179: pop ebx ; ret  ;  (1 found)
0x0013524a: pop ebx ; ret  ;  (1 found)
0x00135270: pop ebx ; ret  ;  (1 found)
0x00135321: pop ebx ; ret  ;  (1 found)
0x00135357: pop ebx ; ret  ;  (1 found)
0x00135561: pop ebx ; ret  ;  (1 found)
0x0013563c: pop ebx ; ret  ;  (1 found)
0x0013632e: pop ebx ; ret  ;  (1 found)
0x00136371: pop ebx ; ret  ;  (1 found)
0x0013644c: pop ebx ; ret  ;  (1 found)
0x00136536: pop ebx ; ret  ;  (1 found)
0x0013654e: pop ebx ; ret  ;  (1 found)
0x0013657d: pop ebx ; ret  ;  (1 found)
0x0013662e: pop ebx ; ret  ;  (1 found)
0x00136654: pop ebx ; ret  ;  (1 found)
0x0013674f: pop ebx ; ret  ;  (1 found)
0x0013695a: pop ebx ; ret  ;  (1 found)
0x00136a48: pop ebx ; ret  ;  (1 found)
0x00136b49: pop ebx ; ret  ;  (1 found)
0x0013775c: pop ebx ; ret  ;  (1 found)
0x0013784d: pop ebx ; ret  ;  (1 found)
0x0013792b: pop ebx ; ret  ;  (1 found)
0x00137975: pop ebx ; ret  ;  (1 found)
0x00137a55: pop ebx ; ret  ;  (1 found)
0x00137b26: pop ebx ; ret  ;  (1 found)
0x00137b5a: pop ebx ; ret  ;  (1 found)
0x00137c31: pop ebx ; ret  ;  (1 found)
0x00137c67: pop ebx ; ret  ;  (1 found)
0x00137e24: pop ebx ; ret  ;  (1 found)
0x00137e71: pop ebx ; ret  ;  (1 found)
0x00137f4c: pop ebx ; ret  ;  (1 found)
0x00138d46: pop ebx ; ret  ;  (1 found)
0x00138d60: pop ebx ; ret  ;  (1 found)
0x00138e65: pop ebx ; ret  ;  (1 found)
0x0013905b: pop ebx ; ret  ;  (1 found)
0x00139d24: pop ebx ; ret  ;  (1 found)
0x00139d3e: pop ebx ; ret  ;  (1 found)
0x00139e33: pop ebx ; ret  ;  (1 found)
0x0014527c: pop ebx ; ret  ;  (1 found)
0x00145332: pop ebx ; ret  ;  (1 found)
0x00145362: pop ebx ; ret  ;  (1 found)
0x00145437: pop ebx ; ret  ;  (1 found)
0x0014544d: pop ebx ; ret  ;  (1 found)
0x0014572f: pop ebx ; ret  ;  (1 found)
0x0014693c: pop ebx ; ret  ;  (1 found)
0x00146c5c: pop ebx ; ret  ;  (1 found)
0x0014972a: pop ebx ; ret  ;  (1 found)
0x0014973b: pop ebx ; ret  ;  (1 found)
0x00149742: pop ebx ; ret  ;  (1 found)
0x00198c4e: pop ebx ; ret  ;  (1 found)
0x00145456: pop ebx ; xor eax, eax ; ret  ;  (1 found)
0x00174a51: pop ecx ; add al, 0x0A ; ret  ;  (1 found)
0x00187068: pop ecx ; add ebx, esi ; call dword [eax] ;  (1 found)
0x00168159: pop ecx ; in al, dx ; call eax ;  (1 found)
0x00168151: pop ecx ; in al, dx ; jmp dword [ebp+ebx*4+0x59D40000] ;  (1 found)
0x00134621: pop edi ; add ebx, dword [ebx+ecx*4] ; jmp ebx ;  (1 found)
0x00134741: pop edi ; add ebx, dword [ebx+ecx*4] ; jmp ebx ;  (1 found)
0x00134861: pop edi ; add ebx, dword [ebx+ecx*4] ; jmp ebx ;  (1 found)
0x00134b31: pop edi ; add ebx, dword [ebx+ecx*4] ; jmp ebx ;  (1 found)
0x00134c51: pop edi ; add ebx, dword [ebx+ecx*4] ; jmp ebx ;  (1 found)
0x00134d71: pop edi ; add ebx, dword [ebx+ecx*4] ; jmp ebx ;  (1 found)
0x00135b41: pop edi ; add ebx, dword [ebx+ecx*4] ; jmp ebx ;  (1 found)
0x00135c61: pop edi ; add ebx, dword [ebx+ecx*4] ; jmp ebx ;  (1 found)
0x00135f31: pop edi ; add ebx, dword [ebx+ecx*4] ; jmp ebx ;  (1 found)
0x00136051: pop edi ; add ebx, dword [ebx+ecx*4] ; jmp ebx ;  (1 found)
0x00136171: pop edi ; add ebx, dword [ebx+ecx*4] ; jmp ebx ;  (1 found)
0x00136f31: pop edi ; add ebx, dword [ebx+ecx*4] ; jmp ebx ;  (1 found)
0x00137051: pop edi ; add ebx, dword [ebx+ecx*4] ; jmp ebx ;  (1 found)
0x00137171: pop edi ; add ebx, dword [ebx+ecx*4] ; jmp ebx ;  (1 found)
0x00137321: pop edi ; add ebx, dword [ebx+ecx*4] ; jmp ebx ;  (1 found)
0x00137441: pop edi ; add ebx, dword [ebx+ecx*4] ; jmp ebx ;  (1 found)
0x00137561: pop edi ; add ebx, dword [ebx+ecx*4] ; jmp ebx ;  (1 found)
0x00138631: pop edi ; add ebx, dword [ebx+ecx*4] ; jmp ebx ;  (1 found)
0x00138751: pop edi ; add ebx, dword [ebx+ecx*4] ; jmp ebx ;  (1 found)
0x00138871: pop edi ; add ebx, dword [ebx+ecx*4] ; jmp ebx ;  (1 found)
0x00138a21: pop edi ; add ebx, dword [ebx+ecx*4] ; jmp ebx ;  (1 found)
0x00138b41: pop edi ; add ebx, dword [ebx+ecx*4] ; jmp ebx ;  (1 found)
0x00138c61: pop edi ; add ebx, dword [ebx+ecx*4] ; jmp ebx ;  (1 found)
0x00139731: pop edi ; add ebx, dword [ebx+ecx*4] ; jmp ebx ;  (1 found)
0x00139851: pop edi ; add ebx, dword [ebx+ecx*4] ; jmp ebx ;  (1 found)
0x00139971: pop edi ; add ebx, dword [ebx+ecx*4] ; jmp ebx ;  (1 found)
0x00139b21: pop edi ; add ebx, dword [ebx+ecx*4] ; jmp ebx ;  (1 found)
0x00139c41: pop edi ; add ebx, dword [ebx+ecx*4] ; jmp ebx ;  (1 found)
0x0001706e: pop edi ; pop ebp ; ret  ;  (1 found)
0x0001734d: pop edi ; pop ebp ; ret  ;  (1 found)
0x0001753a: pop edi ; pop ebp ; ret  ;  (1 found)
0x0001923c: pop edi ; pop ebp ; ret  ;  (1 found)
0x00024252: pop edi ; pop ebp ; ret  ;  (1 found)
0x0002587d: pop edi ; pop ebp ; ret  ;  (1 found)
0x00026379: pop edi ; pop ebp ; ret  ;  (1 found)
0x0002673d: pop edi ; pop ebp ; ret  ;  (1 found)
0x00026764: pop edi ; pop ebp ; ret  ;  (1 found)
0x00027445: pop edi ; pop ebp ; ret  ;  (1 found)
0x00028a73: pop edi ; pop ebp ; ret  ;  (1 found)
0x00036033: pop edi ; pop ebp ; ret  ;  (1 found)
0x0003675b: pop edi ; pop ebp ; ret  ;  (1 found)
0x00037122: pop edi ; pop ebp ; ret  ;  (1 found)
0x00038e53: pop edi ; pop ebp ; ret  ;  (1 found)
0x00039f5a: pop edi ; pop ebp ; ret  ;  (1 found)
0x0004793e: pop edi ; pop ebp ; ret  ;  (1 found)
0x00048069: pop edi ; pop ebp ; ret  ;  (1 found)
0x00055351: pop edi ; pop ebp ; ret  ;  (1 found)
0x00055e4e: pop edi ; pop ebp ; ret  ;  (1 found)
0x00056063: pop edi ; pop ebp ; ret  ;  (1 found)
0x00056532: pop edi ; pop ebp ; ret  ;  (1 found)
0x00056553: pop edi ; pop ebp ; ret  ;  (1 found)
0x0005673d: pop edi ; pop ebp ; ret  ;  (1 found)
0x00064649: pop edi ; pop ebp ; ret  ;  (1 found)
0x0006475a: pop edi ; pop ebp ; ret  ;  (1 found)
0x00065b79: pop edi ; pop ebp ; ret  ;  (1 found)
0x00065d5d: pop edi ; pop ebp ; ret  ;  (1 found)
0x0006607f: pop edi ; pop ebp ; ret  ;  (1 found)
0x00067c60: pop edi ; pop ebp ; ret  ;  (1 found)
0x0006852c: pop edi ; pop ebp ; ret  ;  (1 found)
0x00069c4c: pop edi ; pop ebp ; ret  ;  (1 found)
0x00074331: pop edi ; pop ebp ; ret  ;  (1 found)
0x00075675: pop edi ; pop ebp ; ret  ;  (1 found)
0x00076138: pop edi ; pop ebp ; ret  ;  (1 found)
0x00078261: pop edi ; pop ebp ; ret  ;  (1 found)
0x0007833b: pop edi ; pop ebp ; ret  ;  (1 found)
0x0008405e: pop edi ; pop ebp ; ret  ;  (1 found)
0x00094f51: pop edi ; pop ebp ; ret  ;  (1 found)
0x00095a65: pop edi ; pop ebp ; ret  ;  (1 found)
0x00095a6f: pop edi ; pop ebp ; ret  ;  (1 found)
0x00095a79: pop edi ; pop ebp ; ret  ;  (1 found)
0x00095e74: pop edi ; pop ebp ; ret  ;  (1 found)
0x00095e7e: pop edi ; pop ebp ; ret  ;  (1 found)
0x00096020: pop edi ; pop ebp ; ret  ;  (1 found)
0x00096521: pop edi ; pop ebp ; ret  ;  (1 found)
0x00097b7c: pop edi ; pop ebp ; ret  ;  (1 found)
0x00097f2f: pop edi ; pop ebp ; ret  ;  (1 found)
0x00098077: pop edi ; pop ebp ; ret  ;  (1 found)
0x00098176: pop edi ; pop ebp ; ret  ;  (1 found)
0x00098556: pop edi ; pop ebp ; ret  ;  (1 found)
0x00098b4a: pop edi ; pop ebp ; ret  ;  (1 found)
0x0009937a: pop edi ; pop ebp ; ret  ;  (1 found)
0x000a5474: pop edi ; pop ebp ; ret  ;  (1 found)
0x000a5620: pop edi ; pop ebp ; ret  ;  (1 found)
0x000a5661: pop edi ; pop ebp ; ret  ;  (1 found)
0x000a5733: pop edi ; pop ebp ; ret  ;  (1 found)
0x000a573e: pop edi ; pop ebp ; ret  ;  (1 found)
0x000a7e66: pop edi ; pop ebp ; ret  ;  (1 found)
0x000a8262: pop edi ; pop ebp ; ret  ;  (1 found)
0x000a8277: pop edi ; pop ebp ; ret  ;  (1 found)
0x000a8a67: pop edi ; pop ebp ; ret  ;  (1 found)
0x000b4061: pop edi ; pop ebp ; ret  ;  (1 found)
0x000b4072: pop edi ; pop ebp ; ret  ;  (1 found)
0x000b4837: pop edi ; pop ebp ; ret  ;  (1 found)
0x000b4a37: pop edi ; pop ebp ; ret  ;  (1 found)
0x000b4f6a: pop edi ; pop ebp ; ret  ;  (1 found)
0x000b5f7a: pop edi ; pop ebp ; ret  ;  (1 found)
0x000b644f: pop edi ; pop ebp ; ret  ;  (1 found)
0x000b672d: pop edi ; pop ebp ; ret  ;  (1 found)
0x000b6d7b: pop edi ; pop ebp ; ret  ;  (1 found)
0x000b732a: pop edi ; pop ebp ; ret  ;  (1 found)
0x000b774d: pop edi ; pop ebp ; ret  ;  (1 found)
0x000b7946: pop edi ; pop ebp ; ret  ;  (1 found)
0x000b8071: pop edi ; pop ebp ; ret  ;  (1 found)
0x000b8445: pop edi ; pop ebp ; ret  ;  (1 found)
0x000b8821: pop edi ; pop ebp ; ret  ;  (1 found)
0x000b8c36: pop edi ; pop ebp ; ret  ;  (1 found)
0x000b8c57: pop edi ; pop ebp ; ret  ;  (1 found)
0x000c4257: pop edi ; pop ebp ; ret  ;  (1 found)
0x000c5e7c: pop edi ; pop ebp ; ret  ;  (1 found)
0x000c635a: pop edi ; pop ebp ; ret  ;  (1 found)
0x000c6e22: pop edi ; pop ebp ; ret  ;  (1 found)
0x000c6e65: pop edi ; pop ebp ; ret  ;  (1 found)
0x000c727f: pop edi ; pop ebp ; ret  ;  (1 found)
0x000c7343: pop edi ; pop ebp ; ret  ;  (1 found)
0x000c7359: pop edi ; pop ebp ; ret  ;  (1 found)
0x000d4360: pop edi ; pop ebp ; ret  ;  (1 found)
0x000d614a: pop edi ; pop ebp ; ret  ;  (1 found)
0x000d7628: pop edi ; pop ebp ; ret  ;  (1 found)
0x000d8623: pop edi ; pop ebp ; ret  ;  (1 found)
0x000d9823: pop edi ; pop ebp ; ret  ;  (1 found)
0x000e4662: pop edi ; pop ebp ; ret  ;  (1 found)
0x000e564a: pop edi ; pop ebp ; ret  ;  (1 found)
0x000e5f37: pop edi ; pop ebp ; ret  ;  (1 found)
0x000e5f5f: pop edi ; pop ebp ; ret  ;  (1 found)
0x000e836d: pop edi ; pop ebp ; ret  ;  (1 found)
0x000e8b3b: pop edi ; pop ebp ; ret  ;  (1 found)
0x000e8f7c: pop edi ; pop ebp ; ret  ;  (1 found)
0x000e952d: pop edi ; pop ebp ; ret  ;  (1 found)
0x000e9537: pop edi ; pop ebp ; ret  ;  (1 found)
0x000e9b6f: pop edi ; pop ebp ; ret  ;  (1 found)
0x000f5121: pop edi ; pop ebp ; ret  ;  (1 found)
0x000f517f: pop edi ; pop ebp ; ret  ;  (1 found)
0x000f5845: pop edi ; pop ebp ; ret  ;  (1 found)
0x000f6036: pop edi ; pop ebp ; ret  ;  (1 found)
0x000f665f: pop edi ; pop ebp ; ret  ;  (1 found)
0x000f6e70: pop edi ; pop ebp ; ret  ;  (1 found)
0x000f7b55: pop edi ; pop ebp ; ret  ;  (1 found)
0x000f7b73: pop edi ; pop ebp ; ret  ;  (1 found)
0x000f8526: pop edi ; pop ebp ; ret  ;  (1 found)
0x000f8b20: pop edi ; pop ebp ; ret  ;  (1 found)
0x000f8b39: pop edi ; pop ebp ; ret  ;  (1 found)
0x000f8d43: pop edi ; pop ebp ; ret  ;  (1 found)
0x000f8f2d: pop edi ; pop ebp ; ret  ;  (1 found)
0x000f8f48: pop edi ; pop ebp ; ret  ;  (1 found)
0x00104960: pop edi ; pop ebp ; ret  ;  (1 found)
0x00104f41: pop edi ; pop ebp ; ret  ;  (1 found)
0x00104f7e: pop edi ; pop ebp ; ret  ;  (1 found)
0x00105733: pop edi ; pop ebp ; ret  ;  (1 found)
0x00105e26: pop edi ; pop ebp ; ret  ;  (1 found)
0x00106222: pop edi ; pop ebp ; ret  ;  (1 found)
0x00107125: pop edi ; pop ebp ; ret  ;  (1 found)
0x00107132: pop edi ; pop ebp ; ret  ;  (1 found)
0x00107b36: pop edi ; pop ebp ; ret  ;  (1 found)
0x00108276: pop edi ; pop ebp ; ret  ;  (1 found)
0x0010886b: pop edi ; pop ebp ; ret  ;  (1 found)
0x00109542: pop edi ; pop ebp ; ret  ;  (1 found)
0x0010972c: pop edi ; pop ebp ; ret  ;  (1 found)
0x00109a37: pop edi ; pop ebp ; ret  ;  (1 found)
0x0011427d: pop edi ; pop ebp ; ret  ;  (1 found)
0x0011433a: pop edi ; pop ebp ; ret  ;  (1 found)
0x00114343: pop edi ; pop ebp ; ret  ;  (1 found)
0x00114a69: pop edi ; pop ebp ; ret  ;  (1 found)
0x00114a7c: pop edi ; pop ebp ; ret  ;  (1 found)
0x0011637f: pop edi ; pop ebp ; ret  ;  (1 found)
0x00116437: pop edi ; pop ebp ; ret  ;  (1 found)
0x0011665c: pop edi ; pop ebp ; ret  ;  (1 found)
0x00117243: pop edi ; pop ebp ; ret  ;  (1 found)
0x0011742b: pop edi ; pop ebp ; ret  ;  (1 found)
0x00119157: pop edi ; pop ebp ; ret  ;  (1 found)
0x00119167: pop edi ; pop ebp ; ret  ;  (1 found)
0x0012545a: pop edi ; pop ebp ; ret  ;  (1 found)
0x00125822: pop edi ; pop ebp ; ret  ;  (1 found)
0x0012687f: pop edi ; pop ebp ; ret  ;  (1 found)
0x00127b78: pop edi ; pop ebp ; ret  ;  (1 found)
0x00127e24: pop edi ; pop ebp ; ret  ;  (1 found)
0x00127f29: pop edi ; pop ebp ; ret  ;  (1 found)
0x0012904b: pop edi ; pop ebp ; ret  ;  (1 found)
0x0012972f: pop edi ; pop ebp ; ret  ;  (1 found)
0x00129870: pop edi ; pop ebp ; ret  ;  (1 found)
0x0001715e: pop edi ; pop ebp ; retn 0x0004 ;  (1 found)
0x00027a20: pop edi ; pop ebp ; retn 0x0004 ;  (1 found)
0x00028f49: pop edi ; pop ebp ; retn 0x0004 ;  (1 found)
0x000e7536: pop edi ; pop ebp ; retn 0x0004 ;  (1 found)
0x000e7557: pop edi ; pop ebp ; retn 0x0004 ;  (1 found)
0x00027c24: pop edi ; pop ebp ; retn 0x0008 ;  (1 found)
0x0012714a: pop edi ; pop ebp ; retn 0x0008 ;  (1 found)
0x00017e78: pop edi ; pop ebp ; retn 0x0010 ;  (1 found)
0x000d9f42: pop edi ; pop ebp ; retn 0x0014 ;  (1 found)
0x00087132: pop edi ; pop ebx ; ret  ;  (1 found)
0x00087176: pop edi ; pop ebx ; ret  ;  (1 found)
0x0008742f: pop edi ; pop ebx ; ret  ;  (1 found)
0x00087452: pop edi ; pop ebx ; ret  ;  (1 found)
0x00087474: pop edi ; pop ebx ; ret  ;  (1 found)
0x0008753e: pop edi ; pop ebx ; ret  ;  (1 found)
0x0008756c: pop edi ; pop ebx ; ret  ;  (1 found)
0x000a7131: pop edi ; pop esi ; ret  ;  (1 found)
0x000a714c: pop edi ; pop esi ; ret  ;  (1 found)
0x000a7167: pop edi ; pop esi ; ret  ;  (1 found)
0x000a7178: pop edi ; pop esi ; ret  ;  (1 found)
0x00026a5c: pop edi ; ret  ;  (1 found)
0x00047b3a: pop edi ; ret  ;  (1 found)
0x00047b6f: pop edi ; ret  ;  (1 found)
0x0008563a: pop edi ; ret  ;  (1 found)
0x00085646: pop edi ; ret  ;  (1 found)
0x00085658: pop edi ; ret  ;  (1 found)
0x0008566e: pop edi ; ret  ;  (1 found)
0x0008567c: pop edi ; ret  ;  (1 found)
0x00085734: pop edi ; ret  ;  (1 found)
0x00085754: pop edi ; ret  ;  (1 found)
0x00089947: pop edi ; ret  ;  (1 found)
0x0008997b: pop edi ; ret  ;  (1 found)
0x00089a2f: pop edi ; ret  ;  (1 found)
0x00089a4d: pop edi ; ret  ;  (1 found)
0x00089a5f: pop edi ; ret  ;  (1 found)
0x00089a7d: pop edi ; ret  ;  (1 found)
0x00089b35: pop edi ; ret  ;  (1 found)
0x00094167: pop edi ; ret  ;  (1 found)
0x00094173: pop edi ; ret  ;  (1 found)
0x0009512a: pop edi ; ret  ;  (1 found)
0x0009523e: pop edi ; ret  ;  (1 found)
0x0009527b: pop edi ; ret  ;  (1 found)
0x0009534a: pop edi ; ret  ;  (1 found)
0x00095522: pop edi ; ret  ;  (1 found)
0x00095558: pop edi ; ret  ;  (1 found)
0x00095566: pop edi ; ret  ;  (1 found)
0x00095567: pop edi ; ret  ;  (1 found)
0x00095575: pop edi ; ret  ;  (1 found)
0x00095929: pop edi ; ret  ;  (1 found)
0x0009596a: pop edi ; ret  ;  (1 found)
0x00095977: pop edi ; ret  ;  (1 found)
0x00095d50: pop edi ; ret  ;  (1 found)
0x0009996c: pop edi ; ret  ;  (1 found)
0x000a726e: pop edi ; ret  ;  (1 found)
0x000a7539: pop edi ; ret  ;  (1 found)
0x000a7557: pop edi ; ret  ;  (1 found)
0x000b5563: pop edi ; ret  ;  (1 found)
0x000c5b46: pop edi ; ret  ;  (1 found)
0x000c9531: pop edi ; ret  ;  (1 found)
0x000d922b: pop edi ; ret  ;  (1 found)
0x000e5061: pop edi ; ret  ;  (1 found)
0x000e512c: pop edi ; ret  ;  (1 found)
0x000f732a: pop edi ; ret  ;  (1 found)
0x00109b3f: pop edi ; ret  ;  (1 found)
0x00118a67: pop edi ; ret  ;  (1 found)
0x00127853: pop edi ; ret  ;  (1 found)
0x00129b3f: pop edi ; ret  ;  (1 found)
0x00147270: pop edi ; ret  ;  (1 found)
0x00147359: pop edi ; ret  ;  (1 found)
0x00147423: pop edi ; ret  ;  (1 found)
0x00147433: pop edi ; ret  ;  (1 found)
0x00147443: pop edi ; ret  ;  (1 found)
0x00147453: pop edi ; ret  ;  (1 found)
0x00147463: pop edi ; ret  ;  (1 found)
0x00147473: pop edi ; ret  ;  (1 found)
0x00147644: pop edi ; ret  ;  (1 found)
0x00147835: pop edi ; ret  ;  (1 found)
0x00147836: pop edi ; ret  ;  (1 found)
0x0014785b: pop edi ; ret  ;  (1 found)
0x00147923: pop edi ; ret  ;  (1 found)
0x00147933: pop edi ; ret  ;  (1 found)
0x00147943: pop edi ; ret  ;  (1 found)
0x00147953: pop edi ; ret  ;  (1 found)
0x00147963: pop edi ; ret  ;  (1 found)
0x00147972: pop edi ; ret  ;  (1 found)
0x00147a58: pop edi ; ret  ;  (1 found)
0x00147a6b: pop edi ; ret  ;  (1 found)
0x00147a7b: pop edi ; ret  ;  (1 found)
0x00147d38: pop edi ; ret  ;  (1 found)
0x00147d5b: pop edi ; ret  ;  (1 found)
0x00147e2a: pop edi ; ret  ;  (1 found)
0x00147e32: pop edi ; ret  ;  (1 found)
0x00147e43: pop edi ; ret  ;  (1 found)
0x00147e53: pop edi ; ret  ;  (1 found)
0x00147e63: pop edi ; ret  ;  (1 found)
0x00147e73: pop edi ; ret  ;  (1 found)
0x00147f23: pop edi ; ret  ;  (1 found)
0x00147f54: pop edi ; ret  ;  (1 found)
0x00148028: pop edi ; ret  ;  (1 found)
0x00148038: pop edi ; ret  ;  (1 found)
0x00148048: pop edi ; ret  ;  (1 found)
0x00148058: pop edi ; ret  ;  (1 found)
0x00148068: pop edi ; ret  ;  (1 found)
0x00148078: pop edi ; ret  ;  (1 found)
0x00148822: pop edi ; ret  ;  (1 found)
0x00148e38: pop edi ; ret  ;  (1 found)
0x00148e5e: pop edi ; ret  ;  (1 found)
0x00148f54: pop edi ; ret  ;  (1 found)
0x00149028: pop edi ; ret  ;  (1 found)
0x00149038: pop edi ; ret  ;  (1 found)
0x00149048: pop edi ; ret  ;  (1 found)
0x00149058: pop edi ; ret  ;  (1 found)
0x00149068: pop edi ; ret  ;  (1 found)
0x00149078: pop edi ; ret  ;  (1 found)
0x0014915b: pop edi ; ret  ;  (1 found)
0x00149220: pop edi ; ret  ;  (1 found)
0x00149225: pop edi ; ret  ;  (1 found)
0x0014922a: pop edi ; ret  ;  (1 found)
0x0014922f: pop edi ; ret  ;  (1 found)
0x00149234: pop edi ; ret  ;  (1 found)
0x00149239: pop edi ; ret  ;  (1 found)
0x00149b6f: pop edi ; ret  ;  (1 found)
0x00149b70: pop edi ; ret  ;  (1 found)
0x00149c23: pop edi ; ret  ;  (1 found)
0x00149c38: pop edi ; ret  ;  (1 found)
0x00149c43: pop edi ; ret  ;  (1 found)
0x00149c53: pop edi ; ret  ;  (1 found)
0x00149c62: pop edi ; ret  ;  (1 found)
0x0016782d: pop edi ; std  ; call dword [esi+ebx*2] ;  (1 found)
0x00195224: pop edi ; xor al, 0xF7 ; call dword [eax] ;  (1 found)
0x00196525: pop edx ; add dword [edx], ecx ; ret  ;  (1 found)
0x00168171: pop edx ; in al, dx ; call dword [eax] ;  (1 found)
0x00168178: pop edx ; in al, dx ; jmp dword [esi+ebx*4] ;  (1 found)
0x00168179: pop edx ; in al, dx ; jmp dword [esi+ebx*4] ;  (1 found)
0x00169559: pop edx ; jmp dword [0x5C340001+edx] ;  (1 found)
0x00185e2e: pop edx ; jmp dword [edx] ;  (1 found)
0x00185e5e: pop edx ; jmp dword [edx] ;  (1 found)
0x000b5153: pop es ; add byte [ebx-0x0000F77D], cl ; jmp dword [ebp+0x03] ;  (1 found)
0x0001925a: pop es ; add byte [ecx-0x47FBDBBC], cl ; retn 0x0000 ;  (1 found)
0x0013485f: pop es ; add eax, 0x8B1C035F ; jmp ebx ;  (1 found)
0x0013716f: pop es ; add eax, 0x8B1C035F ; jmp ebx ;  (1 found)
0x0013874f: pop es ; add eax, 0x8B1C035F ; jmp ebx ;  (1 found)
0x0013972f: pop es ; add eax, 0x8B1C035F ; jmp ebx ;  (1 found)
0x00088355: pop es ; idiv bh ; jmp dword [esi+0x0F] ;  (1 found)
0x0008582d: pop es ; mov eax, edx ; ret  ;  (1 found)
0x0013616f: pop es ; or eax, 0x8B1C035F ; jmp ebx ;  (1 found)
0x0008997a: pop es ; pop edi ; ret  ;  (1 found)
0x0014726f: pop es ; pop edi ; ret  ;  (1 found)
0x00147d5a: pop es ; pop edi ; ret  ;  (1 found)
0x00147f53: pop es ; pop edi ; ret  ;  (1 found)
0x00148e5d: pop es ; pop edi ; ret  ;  (1 found)
0x00148a2a: pop es ; ret  ;  (1 found)
0x00166e55: pop es ; std  ; jmp eax ;  (1 found)
0x000a866d: pop esi ; add eax, edx ; ret  ;  (1 found)
0x00199d41: pop esi ; clc  ; jmp dword [ebx] ;  (1 found)
0x00199d79: pop esi ; clc  ; jmp dword [ebx] ;  (1 found)
0x000c6b2b: pop esi ; mov eax, edx ; ret  ;  (1 found)
0x0014693b: pop esi ; pop ebx ; ret  ;  (1 found)
0x00149729: pop esi ; pop ebx ; ret  ;  (1 found)
0x0014973a: pop esi ; pop ebx ; ret  ;  (1 found)
0x00149741: pop esi ; pop ebx ; ret  ;  (1 found)
0x00026a5b: pop esi ; pop edi ; ret  ;  (1 found)
0x00047b39: pop esi ; pop edi ; ret  ;  (1 found)
0x00047b6e: pop esi ; pop edi ; ret  ;  (1 found)
0x00095d4f: pop esi ; pop edi ; ret  ;  (1 found)
0x0009996b: pop esi ; pop edi ; ret  ;  (1 found)
0x000a726d: pop esi ; pop edi ; ret  ;  (1 found)
0x000a7538: pop esi ; pop edi ; ret  ;  (1 found)
0x000a7556: pop esi ; pop edi ; ret  ;  (1 found)
0x000b5562: pop esi ; pop edi ; ret  ;  (1 found)
0x000c9530: pop esi ; pop edi ; ret  ;  (1 found)
0x000d922a: pop esi ; pop edi ; ret  ;  (1 found)
0x000e5060: pop esi ; pop edi ; ret  ;  (1 found)
0x000e512b: pop esi ; pop edi ; ret  ;  (1 found)
0x000f7329: pop esi ; pop edi ; ret  ;  (1 found)
0x00109b3e: pop esi ; pop edi ; ret  ;  (1 found)
0x00118a66: pop esi ; pop edi ; ret  ;  (1 found)
0x00127852: pop esi ; pop edi ; ret  ;  (1 found)
0x00129b3e: pop esi ; pop edi ; ret  ;  (1 found)
0x00055c49: pop esi ; ret  ;  (1 found)
0x0007402f: pop esi ; ret  ;  (1 found)
0x00094a2c: pop esi ; ret  ;  (1 found)
0x00094a42: pop esi ; ret  ;  (1 found)
0x00094a64: pop esi ; ret  ;  (1 found)
0x00094b26: pop esi ; ret  ;  (1 found)
0x00094b4a: pop esi ; ret  ;  (1 found)
0x00094b6a: pop esi ; ret  ;  (1 found)
0x00094c26: pop esi ; ret  ;  (1 found)
0x00094c4c: pop esi ; ret  ;  (1 found)
0x00094c6a: pop esi ; ret  ;  (1 found)
0x00094d30: pop esi ; ret  ;  (1 found)
0x00094d60: pop esi ; ret  ;  (1 found)
0x00094e3b: pop esi ; ret  ;  (1 found)
0x000a7132: pop esi ; ret  ;  (1 found)
0x000a714d: pop esi ; ret  ;  (1 found)
0x000a7168: pop esi ; ret  ;  (1 found)
0x000a7179: pop esi ; ret  ;  (1 found)
0x000b6c6f: pop esi ; ret  ;  (1 found)
0x000b717f: pop esi ; ret  ;  (1 found)
0x000c5c37: pop esi ; ret  ;  (1 found)
0x000c5d6d: pop esi ; ret  ;  (1 found)
0x000d943d: pop esi ; ret  ;  (1 found)
0x000d946c: pop esi ; ret  ;  (1 found)
0x000e8448: pop esi ; ret  ;  (1 found)
0x000f492f: pop esi ; ret  ;  (1 found)
0x000f674f: pop esi ; ret  ;  (1 found)
0x0010667a: pop esi ; ret  ;  (1 found)
0x00106f6a: pop esi ; ret  ;  (1 found)
0x00107851: pop esi ; ret  ;  (1 found)
0x00108671: pop esi ; ret  ;  (1 found)
0x0010875f: pop esi ; ret  ;  (1 found)
0x00108c71: pop esi ; ret  ;  (1 found)
0x00124d37: pop esi ; ret  ;  (1 found)
0x00126e3a: pop esi ; ret  ;  (1 found)
0x00126e67: pop esi ; ret  ;  (1 found)
0x00128c4f: pop esi ; ret  ;  (1 found)
0x00128c72: pop esi ; ret  ;  (1 found)
0x00129e45: pop esi ; ret  ;  (1 found)
0x00167861: pop esi ; std  ; call dword [edx+0x5E] ;  (1 found)
0x00167865: pop esi ; std  ; jmp dword [edx-0x0D0002A2] ;  (1 found)
0x00167831: pop esi ; std  ; jmp dword [esi+ebx*2-0x03] ;  (1 found)
0x00187a44: pop esp ; and dh, bl ; jmp dword [eax+0x03] ;  (1 found)
0x00169561: pop esp ; call dword [eax+0x15] ;  (1 found)
0x00199c59: pop esp ; clc  ; call dword [eax+0x00] ;  (1 found)
0x00174f54: pop esp ; imul ebp ; jmp dword [ebx] ;  (1 found)
0x000b6b5a: pop esp ; ret  ;  (1 found)
0x00118d62: pop esp ; ret  ;  (1 found)
0x00124440: pop esp ; ret  ;  (1 found)
0x00129936: pop esp ; ret  ;  (1 found)
0x00167765: pop esp ; std  ; call dword [edx] ;  (1 found)
0x00167731: pop esp ; std  ; call esp ;  (1 found)
0x00167735: pop esp ; std  ; jmp dword [0x5D74FFFD+ebx*2] ;  (1 found)
0x00027269: pop ss ; add byte [ebx-0x00008F7F], cl ; jmp dword [ebp+0x03] ;  (1 found)
0x00027249: pop ss ; add byte [ebx-0x0000BF7F], cl ; jmp dword [ebp+0x03] ;  (1 found)
0x00027229: pop ss ; add byte [ebx-0x00012F7F], cl ; jmp dword [ebp+0x03] ;  (1 found)
0x00025d7a: pop ss ; add byte [ebx-0x0001577D], cl ; jmp dword [ebp-0x75] ;  (1 found)
0x00045933: pop ss ; std  ; call dword [edi-0x77] ;  (1 found)
0x00187d5a: popad  ; ret  ;  (1 found)
0x00168978: popfd  ; in eax, dx ; jmp dword [eax] ;  (1 found)
0x00168979: popfd  ; in eax, dx ; jmp dword [eax] ;  (1 found)
0x00184a35: popfd  ; int1  ; jmp dword [edx] ;  (1 found)
0x00184a36: popfd  ; int1  ; jmp dword [edx] ;  (1 found)
0x00168254: push 0x240000A1 ; in al, dx ; call dword [eax-0x2BFFFF5F] ;  (1 found)
0x00185268: push 0x24000160 ; sub al, 0xF2 ; jmp dword [ebp+0x05] ;  (1 found)
0x000e6827: push 0x7401F883 ; and ecx, dword [ebx-0x0000F77D] ; jmp dword [ebp-0x39] ;  (1 found)
0x000e9264: push 0x83000001 ; retn 0x0F01 ;  (1 found)
0x00187468: push 0x84000182 ; or ebx, esi ; call edi ;  (1 found)
0x000b9067: push 0x90000000 ; lea esi, dword [esi+0x00] ; ret  ;  (1 found)
0x00198c46: push 0xC6040E0A ; ret  ;  (1 found)
0x00174968: push 0xE4000057 ; xor ch, ch ; call dword [ebx+0x01] ;  (1 found)
0x00188a68: push 0xF4000198 ; sbb esp, esi ; call eax ;  (1 found)
0x00174344: push 0xFFFFFFD5 ; in al, dx ; call dword [eax] ;  (1 found)
0x0017916d: push 0xFFFFFFFF ; out dx, al ; jmp dword [edx] ;  (1 found)
0x00175a24: push cs ; adc al, 0x41 ; ret  ;  (1 found)
0x00176722: push cs ; adc al, 0x41 ; ret  ;  (1 found)
0x00178870: push cs ; adc al, 0x41 ; ret  ;  (1 found)
0x00178871: push cs ; adc al, 0x41 ; ret  ;  (1 found)
0x00179f47: push cs ; adc al, 0x41 ; ret  ;  (1 found)
0x00184071: push cs ; adc al, 0x41 ; ret  ;  (1 found)
0x0018422f: push cs ; adc al, 0x41 ; ret  ;  (1 found)
0x0018446c: push cs ; adc al, 0x41 ; ret  ;  (1 found)
0x00185721: push cs ; adc al, 0x41 ; ret  ;  (1 found)
0x0018733f: push cs ; adc al, 0x41 ; ret  ;  (1 found)
0x00188752: push cs ; adc al, 0x41 ; ret  ;  (1 found)
0x00189135: push cs ; adc al, 0x41 ; ret  ;  (1 found)
0x00189639: push cs ; adc al, 0x41 ; ret  ;  (1 found)
0x0018984c: push cs ; adc al, 0x41 ; ret  ;  (1 found)
0x0018995d: push cs ; adc al, 0x41 ; ret  ;  (1 found)
0x00189974: push cs ; adc al, 0x41 ; ret  ;  (1 found)
0x00194a56: push cs ; adc al, 0x41 ; ret  ;  (1 found)
0x00195861: push cs ; adc al, 0x41 ; ret  ;  (1 found)
0x00197d4c: push cs ; adc al, 0x41 ; ret  ;  (1 found)
0x00197e3b: push cs ; adc al, 0x41 ; ret  ;  (1 found)
0x00199043: push cs ; adc al, 0x41 ; ret  ;  (1 found)
0x0017467e: push cs ; adc al, 0x43 ; ret  ;  (1 found)
0x0017473e: push cs ; adc al, 0x43 ; ret  ;  (1 found)
0x00174c71: push cs ; adc al, 0x43 ; ret  ;  (1 found)
0x0017735d: push cs ; adc al, 0x43 ; ret  ;  (1 found)
0x00186c70: push cs ; adc al, 0x43 ; ret  ;  (1 found)
0x00187b69: push cs ; adc al, 0x43 ; ret  ;  (1 found)
0x00189b72: push cs ; adc al, 0x43 ; ret  ;  (1 found)
0x00194357: push cs ; adc al, 0x43 ; ret  ;  (1 found)
0x00195d28: push cs ; adc al, 0x43 ; ret  ;  (1 found)
0x00196455: push cs ; adc al, 0x43 ; ret  ;  (1 found)
0x0019646d: push cs ; adc al, 0x43 ; ret  ;  (1 found)
0x00198063: push cs ; adc al, 0x43 ; ret  ;  (1 found)
0x0019807a: push cs ; adc al, 0x43 ; ret  ;  (1 found)
0x0019944e: push cs ; adc al, 0x43 ; ret  ;  (1 found)
0x0017416d: push cs ; adc al, 0x46 ; ret  ;  (1 found)
0x00198e54: push cs ; adc byte [ebx+0x0C0E7E04], al ; ret  ;  (1 found)
0x00174228: push cs ; add al, 0xC6 ; ret  ;  (1 found)
0x00178b70: push cs ; add al, 0xC6 ; ret  ;  (1 found)
0x00178d24: push cs ; add al, 0xC6 ; ret  ;  (1 found)
0x00179824: push cs ; add al, 0xC6 ; ret  ;  (1 found)
0x00179c74: push cs ; add al, 0xC6 ; ret  ;  (1 found)
0x00179d3b: push cs ; add al, 0xC6 ; ret  ;  (1 found)
0x00185834: push cs ; add al, 0xC6 ; ret  ;  (1 found)
0x00185c25: push cs ; add al, 0xC6 ; ret  ;  (1 found)
0x00186b50: push cs ; add al, 0xC6 ; ret  ;  (1 found)
0x00187220: push cs ; add al, 0xC6 ; ret  ;  (1 found)
0x00188d70: push cs ; add al, 0xC6 ; ret  ;  (1 found)
0x0019576c: push cs ; add al, 0xC6 ; ret  ;  (1 found)
0x00195963: push cs ; add al, 0xC6 ; ret  ;  (1 found)
0x00195b47: push cs ; add al, 0xC6 ; ret  ;  (1 found)
0x00196868: push cs ; add al, 0xC6 ; ret  ;  (1 found)
0x00196a31: push cs ; add al, 0xC6 ; ret  ;  (1 found)
0x00196d21: push cs ; add al, 0xC6 ; ret  ;  (1 found)
0x0019703b: push cs ; add al, 0xC6 ; ret  ;  (1 found)
0x0019752c: push cs ; add al, 0xC6 ; ret  ;  (1 found)
0x00198170: push cs ; add al, 0xC6 ; ret  ;  (1 found)
0x00198c48: push cs ; add al, 0xC6 ; ret  ;  (1 found)
0x00187940: push cs ; add al, 0xC7 ; ret  ;  (1 found)
0x00187964: push cs ; add al, 0xC7 ; ret  ;  (1 found)
0x00124a50: push cs ; add byte [eax], al ; call dword [eax+0x04] ;  (1 found)
0x00169179: push cs ; call dword [eax-0x06] ;  (1 found)
0x00169171: push cs ; jmp dword [eax] ;  (1 found)
0x0017403f: push cs ; or al, 0x44 ; ret  ;  (1 found)
0x00184e4c: push cs ; or byte [ebx+0x040E4502], al ; ret  ;  (1 found)
0x00184d57: push cs ; or byte [ebx+0x040E4802], al ; ret  ;  (1 found)
0x00184d72: push cs ; or byte [ebx+0x040E4902], al ; ret  ;  (1 found)
0x0018575e: push cs ; or byte [ebx+0x040E5902], al ; ret  ;  (1 found)
0x0018823a: push cs ; or byte [ebx+0x040E5902], al ; ret  ;  (1 found)
0x00198226: push cs ; or byte [ebx+0x040E6F02], al ; ret  ;  (1 found)
0x00184d4e: push cs ; or byte [ebx+0x040E7302], al ; ret  ;  (1 found)
0x00199c6b: push cs ; or byte [esi+ecx+0x04], al ; ret  ;  (1 found)
0x00186041: push cs ; pop ebx ; jmp dword [edx] ;  (1 found)
0x00089b34: push cs ; pop edi ; ret  ;  (1 found)
0x00148077: push cs ; pop edi ; ret  ;  (1 found)
0x00149233: push cs ; pop edi ; ret  ;  (1 found)
0x00148727: push cs ; ret  ;  (1 found)
0x00148b32: push cs ; ret  ;  (1 found)
0x00178541: push ds ; fdiv st2, st0 ; jmp dword [edx] ;  (1 found)
0x00169c21: push ds ; int1  ; call dword [esp+ecx*2+0x01] ;  (1 found)
0x00166f79: push ds ; std  ; call dword [edi+ebx] ;  (1 found)
0x00166f21: push ds ; std  ; call dword [edx-0x1D0002E2] ;  (1 found)
0x00166f55: push ds ; std  ; call eax ;  (1 found)
0x00166f45: push ds ; std  ; call esi ;  (1 found)
0x00166f59: push ds ; std  ; jmp dword [eax] ;  (1 found)
0x00166f49: push ds ; std  ; jmp dword [esi] ;  (1 found)
0x00166f25: push ds ; std  ; jmp edx ;  (1 found)
0x0016622b: push dword [0x65FFFCD4] ; aam 0xFC ; call dword [ebp-0x3A00032C] ;  (1 found)
0x0016623f: push dword [0x65FFFCD5] ; aad 0xFC ; jmp dword [ebp-0x1A00032B] ;  (1 found)
0x00167353: push dword [eax+0x00FFFD3A] ; cmp edi, ebp ; call dword [eax+0x3B] ;  (1 found)
0x00169f4b: push dword [eax+0x3400014F] ; cmp esi, ecx ; call eax ;  (1 found)
0x00166e2b: push dword [eax+0x40FFFD01] ; add bh, ch ; call eax ;  (1 found)
0x00168e23: push dword [eax+0x480000E6] ; fucomi st0, st7 ; jmp eax ;  (1 found)
0x0016916a: push dword [eax+0x740000FA] ; push cs ; jmp dword [eax] ;  (1 found)
0x0016916b: push dword [eax+0x740000FA] ; push cs ; jmp dword [eax] ;  (1 found)
0x0016684f: push dword [eax-0x1A] ; cld  ; call dword [eax] ;  (1 found)
0x00166763: push dword [eax-0x1F000327] ; frndint  ; call dword [eax] ;  (1 found)
0x00166773: push dword [eax-0x26] ; cld  ; jmp dword [eax-0x2F000326] ;  (1 found)
0x0016927a: push dword [eax-0x2EFFFF01] ; push ds ; jmp eax ;  (1 found)
0x0016927b: push dword [eax-0x2EFFFF01] ; push ds ; jmp eax ;  (1 found)
0x0016627f: push dword [eax] ; aad 0xFC ; jmp dword [eax-0x2B] ;  (1 found)
0x0016626b: push dword [eax] ; aam 0xFC ; jmp dword [eax-0x2C] ;  (1 found)
0x00166723: push dword [ebp-0x1A000327] ; frndint  ; call dword [0x45FFFCDA] ;  (1 found)
0x00166733: push dword [ebp-0x26] ; cld  ; jmp dword [ebp-0x2A000326] ;  (1 found)
0x000a847c: push dword [ebx+0x01] ; ret  ;  (1 found)
0x000b7d49: push dword [ebx+0x01] ; ret  ;  (1 found)
0x000b8235: push dword [ebx+0x01] ; ret  ;  (1 found)
0x000b9378: push dword [ebx+0x01] ; ret  ;  (1 found)
0x000c544e: push dword [ebx+0x01] ; ret  ;  (1 found)
0x000c5548: push dword [ebx+0x01] ; ret  ;  (1 found)
0x000e4f30: push dword [ebx+0x01] ; ret  ;  (1 found)
0x000e7d5c: push dword [ebx+0x01] ; ret  ;  (1 found)
0x000e7e2c: push dword [ebx+0x01] ; ret  ;  (1 found)
0x000e8028: push dword [ebx+0x01] ; ret  ;  (1 found)
0x000e8068: push dword [ebx+0x01] ; ret  ;  (1 found)
0x000e8162: push dword [ebx+0x2D] ; ret  ;  (1 found)
0x000b462f: push dword [ebx+ebp-0x77] ; retn 0xE283 ;  (1 found)
0x0016753f: push dword [ebx+ecx*2] ; std  ; jmp esp ;  (1 found)
0x0016615f: push dword [ebx+edx*8-0x2C1B0004] ; cld  ; call dword [esp+edx*8] ;  (1 found)
0x0016607f: push dword [ebx-0x2F] ; cld  ; call dword [ebx-0x4C00032F] ;  (1 found)
0x00165e27: push dword [ebx-0x30] ; cld  ; jmp dword [ebx-0x2C000330] ;  (1 found)
0x00165e37: push dword [ebx] ; sar esp, 1  ; jmp dword [ebx-0x2F] ;  (1 found)
0x00064638: push dword [ecx] ; jmp dword [ebp-0x39] ;  (1 found)
0x0007755d: push dword [ecx] ; jmp dword [ebp-0x39] ;  (1 found)
0x00055530: push dword [ecx] ; shr byte [ecx], cl ; retn 0x8965 ;  (1 found)
0x000b7d5d: push dword [ecx] ; shr byte [ecx], cl ; retn 0x8965 ;  (1 found)
0x000b8249: push dword [ecx] ; shr byte [ecx], cl ; retn 0x8965 ;  (1 found)
0x000c5420: push dword [ecx] ; shr byte [ecx], cl ; retn 0x8965 ;  (1 found)
0x000c5462: push dword [ecx] ; shr byte [ecx], cl ; retn 0x8965 ;  (1 found)
0x000c555c: push dword [ecx] ; shr byte [ecx], cl ; retn 0x8965 ;  (1 found)
0x000e4f44: push dword [ecx] ; shr byte [ecx], cl ; retn 0x8965 ;  (1 found)
0x000e6d32: push dword [ecx] ; shr byte [ecx], cl ; retn 0x8965 ;  (1 found)
0x000e7d70: push dword [ecx] ; shr byte [ecx], cl ; retn 0x8965 ;  (1 found)
0x000e7e40: push dword [ecx] ; shr byte [ecx], cl ; retn 0x8965 ;  (1 found)
0x000e803c: push dword [ecx] ; shr byte [ecx], cl ; retn 0x8965 ;  (1 found)
0x000e807c: push dword [ecx] ; shr byte [ecx], cl ; retn 0x8965 ;  (1 found)
0x000e8124: push dword [ecx] ; shr byte [ecx], cl ; retn 0x8965 ;  (1 found)
0x00167267: push dword [edx+0x2E] ; std  ; call edx ;  (1 found)
0x00166677: push dword [edx+ebx*8-0x251B0004] ; cld  ; call dword [ebx+ebx*8] ;  (1 found)
0x0016652f: push dword [edx-0x28] ; cld  ; call dword [edx-0x4D000328] ;  (1 found)
0x0016727f: push dword [esi+0x06FFFD2D] ; std  ; jmp dword [esi+0x2E] ;  (1 found)
0x00167343: push dword [esi+0x06FFFD3A] ; cmp edi, ebp ; call dword [esi+0x3B] ;  (1 found)
0x0016997b: push dword [esi+ebp-0x485BFFFF] ; call esp ;  (1 found)
0x0016997a: push dword [esi+ebp-0x485BFFFF] ; call esp ;  (1 found)
0x00166c57: push dword [esi+edi*8] ; cld  ; call esp ;  (1 found)
0x0016606f: push dword [esi-0x2F] ; cld  ; call dword [esi-0x4900032F] ;  (1 found)
0x00095921: push dword [esp+ebx*2+0x0F] ; mov ebp, 0x5FF801FF ; ret  ;  (1 found)
0x0016772f: push dword [esp+ebx*2-0x03] ; call esp ;  (1 found)
0x00167557: push dword [esp+ecx*2] ; std  ; jmp esp ;  (1 found)
0x00166d7f: push dword [esp+ecx] ; std  ; call dword [0x0DE4FFFD+ecx] ;  (1 found)
0x0016616f: push dword [esp+edx*8-0x04] ; jmp dword [esp+edx*8-0x2B2B0004] ;  (1 found)
0x00189c20: push eax ; aam 0xF4 ; call dword [edx] ;  (1 found)
0x00124a54: push eax ; add al, 0x89 ; retn 0x8365 ;  (1 found)
0x00114136: push eax ; add al, 0x89 ; retn 0xC031 ;  (1 found)
0x00126f3e: push eax ; add al, 0x89 ; retn 0xEBEB ;  (1 found)
0x0002607b: push eax ; and al, 0x81 ; retn 0x0100 ;  (1 found)
0x00026e2b: push eax ; and eax, 0x00000200 ; ret  ;  (1 found)
0x00026f3b: push eax ; and eax, 0x00001000 ; ret  ;  (1 found)
0x0002717e: push eax ; and eax, 0x00002000 ; ret  ;  (1 found)
0x0002713e: push eax ; and eax, 0x00004000 ; ret  ;  (1 found)
0x00026e5b: push eax ; and eax, 0x00008000 ; ret  ;  (1 found)
0x0002705e: push eax ; and eax, 0x01 ; ret  ;  (1 found)
0x0002715e: push eax ; and eax, 0x04 ; ret  ;  (1 found)
0x0002707e: push eax ; and eax, 0x08 ; ret  ;  (1 found)
0x00188d30: push eax ; and esp, esi ; jmp dword [edi+0x00000000] ;  (1 found)
0x00167454: push eax ; cmp al, 0xFD ; jmp dword [eax-0x0F0002C4] ;  (1 found)
0x0016735c: push eax ; cmp edi, ebp ; call dword [eax+0x2E] ;  (1 found)
0x00129926: push eax ; ret  ;  (1 found)
0x00056a63: push eax ; sbb al, 0x89 ; retn 0x478B ;  (1 found)
0x00167360: push eax ; std  ; call dword [eax] ;  (1 found)
0x00167374: push eax ; xor edi, ebp ; jmp eax ;  (1 found)
0x00174a7d: push ebp ; in eax, dx ; call dword [eax] ;  (1 found)
0x000a5447: push ebp ; mov ah, 0x83 ; retn 0x3901 ;  (1 found)
0x00187f71: push ebx ; add cl, byte [edx] ; ret  ;  (1 found)
0x00166350: push ebx ; frndint  ; call dword [ebx-0x2C000327] ;  (1 found)
0x00165e47: push ebx ; sar esp, 1  ; jmp dword [ebx] ;  (1 found)
0x000f7a52: push ecx ; adc al, 0x39 ; retn 0x0A7D ;  (1 found)
0x00087653: push ecx ; add al, 0x5B ; ret  ;  (1 found)
0x00087664: push ecx ; add al, 0x5B ; ret  ;  (1 found)
0x00186545: push ecx ; add dword [edx], ecx ; ret  ;  (1 found)
0x00184541: push ecx ; call edi ;  (1 found)
0x00186675: push ecx ; jmp dword [bp+si] ;  (1 found)
0x00176628: push edi ; add edi, ebp ; call dword [eax] ;  (1 found)
0x0018583a: push edi ; ret  ;  (1 found)
0x00186e69: push edx ; call dword [eax] ;  (1 found)
0x00158849: push es ; cld  ; ret  ;  (1 found)
0x00167440: push es ; cmp al, 0xFD ; call dword [esi+0x3C] ;  (1 found)
0x00167348: push es ; cmp edi, ebp ; call dword [esi+0x3B] ;  (1 found)
0x00089c71: push es ; lea eax, dword [edx+0x0D] ; ret  ;  (1 found)
0x0011496a: push es ; mov dword [esp], eax ; call dword [esi+0x20] ;  (1 found)
0x00176c71: push es ; out dx, eax ; jmp dword [esi+0x00000000] ;  (1 found)
0x00089a7c: push es ; pop edi ; ret  ;  (1 found)
0x00147462: push es ; pop edi ; ret  ;  (1 found)
0x00149037: push es ; pop edi ; ret  ;  (1 found)
0x00185e5d: push es ; pop edx ; jmp dword [edx] ;  (1 found)
0x00148472: push es ; ret  ;  (1 found)
0x00187f43: push es ; ret  ;  (1 found)
0x00166e51: push es ; std  ; call dword [eax+0x07] ;  (1 found)
0x000f8b51: push es ; xor eax, eax ; ret  ;  (1 found)
0x0011887b: push esi ; add al, 0x83 ; retn 0x8901 ;  (1 found)
0x0011484f: push esi ; cmp al, 0x01 ; retn 0x4689 ;  (1 found)
0x00167444: push esi ; cmp al, 0xFD ; jmp dword [esi-0x090002C4] ;  (1 found)
0x0017462a: push esi ; ret  ;  (1 found)
0x0018752c: push esi ; ret  ;  (1 found)
0x00148f35: push esi ; retn 0x0F02 ;  (1 found)
0x00064156: push esi ; sbb al, 0x83 ; retn 0x8901 ;  (1 found)
0x00114268: push esi ; sub al, 0x01 ; retn 0x5689 ;  (1 found)
0x00116261: push esp ; and al, 0x04 ; call dword [eax+0x0C] ;  (1 found)
0x0006704d: push esp ; and al, 0x04 ; call dword [eax+0x2C] ;  (1 found)
0x00079864: push esp ; and al, 0x04 ; call eax ;  (1 found)
0x00079b63: push esp ; and al, 0x04 ; call eax ;  (1 found)
0x00079536: push esp ; and al, 0x08 ; call eax ;  (1 found)
0x000f8422: push esp ; and al, 0x08 ; call eax ;  (1 found)
0x00076e26: push esp ; and al, 0x28 ; call dword [ebp+0x00] ;  (1 found)
0x00166667: push esp ; frndint  ; jmp dword [edx+ebx*8] ;  (1 found)
0x00168e30: push esp ; fucomi st0, st7 ; call eax ;  (1 found)
0x00064a6c: push esp ; mov dword [esp], eax ; call dword [eax+0x10] ;  (1 found)
0x00065530: push esp ; mov dword [esp], eax ; call dword [eax+0x10] ;  (1 found)
0x00067463: push esp ; mov dword [esp], eax ; call dword [eax+0x10] ;  (1 found)
0x0006765f: push esp ; mov dword [esp], eax ; call dword [eax+0x10] ;  (1 found)
0x00179569: push esp ; out dx, eax ; jmp ebp ;  (1 found)
0x000c9f69: push esp ; retn 0xFFFB ;  (1 found)
0x00167b50: push esp ; sbb bl, ch ; call dword [eax] ;  (1 found)
0x00168b48: push esp ; shr dh, 1  ; call dword [eax+0x340000D5] ;  (1 found)
0x00168069: push ss ; in al, dx ; call dword [eax-0x68] ;  (1 found)
0x00166270: pushad  ; aam 0xFC ; call dword [eax-0x3F00032C] ;  (1 found)
0x0018892e: pushad  ; hlt  ; jmp dword [edx] ;  (1 found)
0x00185b60: pushad  ; imul eax, dword [ecx], 0xF2D96C00 ; jmp dword [ecx+eax+0x00] ;  (1 found)
0x000b615d: pushad  ; mov dword [esp], eax ; call dword [esp+0x3C] ;  (1 found)
0x000f4a3d: pushad  ; mov dword [esp], eax ; call dword [esp+0x3C] ;  (1 found)
0x00106969: pushad  ; mov dword [esp], eax ; call dword [esp+0x3C] ;  (1 found)
0x0010743d: pushad  ; mov dword [esp], eax ; call dword [esp+0x3C] ;  (1 found)
0x00108d7d: pushad  ; mov dword [esp], eax ; call dword [esp+0x3C] ;  (1 found)
0x00108f5d: pushad  ; mov dword [esp], eax ; call dword [esp+0x3C] ;  (1 found)
0x00114b77: pushad  ; mov dword [esp], edx ; call eax ;  (1 found)
0x00186e68: pushad  ; push edx ; call dword [eax] ;  (1 found)
0x000d904c: pushad  ; ret  ;  (1 found)
0x0016883c: pushad  ; ret  ;  (1 found)
0x00188570: pushad  ; xlatb  ; jmp dword [ecx] ;  (1 found)
0x00174644: pushfd  ; fsubr st0, st4 ; jmp dword [edi] ;  (1 found)
0x00138e7d: rcl byte [eax], 0xFFFFFF83 ; retn 0x8310 ;  (1 found)
0x00139e4d: rcl byte [eax], 0xFFFFFF83 ; retn 0x8310 ;  (1 found)
0x00025d79: rcl byte [edi], cl ; add byte [ebx-0x0001577D], cl ; jmp dword [ebp-0x75] ;  (1 found)
0x00167974: rcl byte [edx-0x6CBF0004], 0xFFFFFFFC ; call eax ;  (1 found)
0x00095635: rcl dword [eax], 0xFFFFFF83 ; retn 0x2910 ;  (1 found)
0x00098527: rcl dword [eax], 0xFFFFFF85 ; div byte [ebx+esi-0x7D] ; retn 0x8310 ;  (1 found)
0x00135721: rcl dword [ebx+eax], 0x00000000 ; add ebx, dword [ebx+ecx*4] ; jmp ebx ;  (1 found)
0x00094873: rcl dword [edx+0x03000C60], 0x0C ; xchg eax, ecx ; jmp ecx ;  (1 found)
0x00185c60: rcr ah, 1  ; jmp dword [eax+eax+0x00] ;  (1 found)
0x0002587a: rcr byte [ebx+0x5E], 0x0000005F ; pop ebp ; ret  ;  (1 found)
0x000b672a: rcr byte [ebx+0x5E], 0x0000005F ; pop ebp ; ret  ;  (1 found)
0x000d8620: rcr byte [ebx+0x5E], 0x0000005F ; pop ebp ; ret  ;  (1 found)
0x000e5f34: rcr byte [ebx+0x5E], 0x0000005F ; pop ebp ; ret  ;  (1 found)
0x000e5f5c: rcr byte [ebx+0x5E], 0x0000005F ; pop ebp ; ret  ;  (1 found)
0x000e9534: rcr byte [ebx+0x5E], 0x0000005F ; pop ebp ; ret  ;  (1 found)
0x00109729: rcr byte [ebx+0x5E], 0x0000005F ; pop ebp ; ret  ;  (1 found)
0x00117240: rcr byte [ebx+0x5E], 0x0000005F ; pop ebp ; ret  ;  (1 found)
0x00119164: rcr byte [ebx+0x5E], 0x0000005F ; pop ebp ; ret  ;  (1 found)
0x000d9f3f: rcr byte [ebx+0x5E], 0x0000005F ; pop ebp ; retn 0x0014 ;  (1 found)
0x00124d35: rcr byte [ebx+0x5E], 1  ; ret  ;  (1 found)
0x000a5660: rcr byte [edi+0x5D], 1  ; ret  ;  (1 found)
0x00146939: rcr byte [edi+0x5E], 1  ; pop ebx ; ret  ;  (1 found)
0x00167050: rcr byte [edi], 1  ; std  ; jmp dword [eax] ;  (1 found)
0x00095e7c: rcr byte [esi+0x5F], 0x0000005D ; ret  ;  (1 found)
0x000a573c: rcr byte [esi+0x5F], 0x0000005D ; ret  ;  (1 found)
0x000a5472: rcr byte [esi+0x5F], 1  ; pop ebp ; ret  ;  (1 found)
0x000e5648: rcr byte [esi+0x5F], 1  ; pop ebp ; ret  ;  (1 found)
0x000e836b: rcr byte [esi+0x5F], 1  ; pop ebp ; ret  ;  (1 found)
0x00118a65: rcr byte [esi+0x5F], 1  ; ret  ;  (1 found)
0x00166f58: rcr byte [esi], 1  ; std  ; jmp dword [eax] ;  (1 found)
0x00166934: rcr dh, 0xFFFFFFFC ; call dword [eax-0x21] ;  (1 found)
0x00166348: rcr eax, cl ; cld  ; call dword [ebx] ;  (1 found)
0x00166358: rcr ecx, cl ; cld  ; call dword [ebx] ;  (1 found)
0x00019350: rep ret  ;  (1 found)
0x00026f7e: rep ret  ;  (1 found)
0x0006812d: rep ret  ;  (1 found)
0x00098936: rep ret  ;  (1 found)
0x000a845e: rep ret  ;  (1 found)
0x000b903e: rep ret  ;  (1 found)
0x000b9a67: rep ret  ;  (1 found)
0x000d8a20: rep ret  ;  (1 found)
0x000d934e: rep ret  ;  (1 found)
0x000e9926: rep ret  ;  (1 found)
0x00115f40: rep ret  ;  (1 found)
0x00118a70: rep ret  ;  (1 found)
0x00005844: ret  ;  (1 found)
0x0000587c: ret  ;  (1 found)
0x00007144: ret  ;  (1 found)
0x0000796c: ret  ;  (1 found)
0x00009544: ret  ;  (1 found)
0x00016f79: ret  ;  (1 found)
0x00017070: ret  ;  (1 found)
0x00017171: ret  ;  (1 found)
0x0001734f: ret  ;  (1 found)
0x0001735e: ret  ;  (1 found)
0x0001753c: ret  ;  (1 found)
0x00017552: ret  ;  (1 found)
0x00017738: ret  ;  (1 found)
0x00017820: ret  ;  (1 found)
0x00019038: ret  ;  (1 found)
0x0001923e: ret  ;  (1 found)
0x00019327: ret  ;  (1 found)
0x0001934f: ret  ;  (1 found)
0x00019351: ret  ;  (1 found)
0x0001936d: ret  ;  (1 found)
0x0001942a: ret  ;  (1 found)
0x0001954f: ret  ;  (1 found)
0x00019621: ret  ;  (1 found)
0x00019641: ret  ;  (1 found)
0x00019661: ret  ;  (1 found)
0x00019677: ret  ;  (1 found)
0x00019874: ret  ;  (1 found)
0x0001993c: ret  ;  (1 found)
0x00019b27: ret  ;  (1 found)
0x00019b42: ret  ;  (1 found)
0x00019b68: ret  ;  (1 found)
0x00019e49: ret  ;  (1 found)
0x00019f42: ret  ;  (1 found)
0x00019f60: ret  ;  (1 found)
0x00024254: ret  ;  (1 found)
0x00024a21: ret  ;  (1 found)
0x00024a41: ret  ;  (1 found)
0x00024e7e: ret  ;  (1 found)
0x0002587f: ret  ;  (1 found)
0x00025d77: ret  ;  (1 found)
0x00025f30: ret  ;  (1 found)
0x00025f7f: ret  ;  (1 found)
0x0002637b: ret  ;  (1 found)
0x0002673f: ret  ;  (1 found)
0x00026766: ret  ;  (1 found)
0x00026870: ret  ;  (1 found)
0x00026934: ret  ;  (1 found)
0x00026970: ret  ;  (1 found)
0x00026a5d: ret  ;  (1 found)
0x00026c57: ret  ;  (1 found)
0x00026c59: ret  ;  (1 found)
0x00026e31: ret  ;  (1 found)
0x00026e61: ret  ;  (1 found)
0x00026f41: ret  ;  (1 found)
0x00026f7f: ret  ;  (1 found)
0x00027024: ret  ;  (1 found)
0x00027037: ret  ;  (1 found)
0x0002704d: ret  ;  (1 found)
0x00027062: ret  ;  (1 found)
0x00027124: ret  ;  (1 found)
0x00027144: ret  ;  (1 found)
0x00027162: ret  ;  (1 found)
0x00027238: ret  ;  (1 found)
0x00027258: ret  ;  (1 found)
0x00027278: ret  ;  (1 found)
0x00027447: ret  ;  (1 found)
0x00027737: ret  ;  (1 found)
0x00027762: ret  ;  (1 found)
0x00027a45: ret  ;  (1 found)
0x00028a75: ret  ;  (1 found)
0x00028e4f: ret  ;  (1 found)
0x00028e5e: ret  ;  (1 found)
0x00029938: ret  ;  (1 found)
0x00034034: ret  ;  (1 found)
0x00034047: ret  ;  (1 found)
0x00034b22: ret  ;  (1 found)
0x00034b4b: ret  ;  (1 found)
0x00035765: ret  ;  (1 found)
0x00035a4c: ret  ;  (1 found)
0x00035a57: ret  ;  (1 found)
0x00035b4c: ret  ;  (1 found)
0x00035b57: ret  ;  (1 found)
0x00036035: ret  ;  (1 found)
0x0003612e: ret  ;  (1 found)
0x0003675d: ret  ;  (1 found)
0x00037124: ret  ;  (1 found)
0x0003893b: ret  ;  (1 found)
0x00038e55: ret  ;  (1 found)
0x00038f4e: ret  ;  (1 found)
0x00039f5c: ret  ;  (1 found)
0x00044d78: ret  ;  (1 found)
0x00047940: ret  ;  (1 found)
0x00047a43: ret  ;  (1 found)
0x00047a61: ret  ;  (1 found)
0x00047b3b: ret  ;  (1 found)
0x00047b70: ret  ;  (1 found)
0x0004806b: ret  ;  (1 found)
0x0004935b: ret  ;  (1 found)
0x00049f6a: ret  ;  (1 found)
0x0005466e: ret  ;  (1 found)
0x00054736: ret  ;  (1 found)
0x0005474f: ret  ;  (1 found)
0x00054763: ret  ;  (1 found)
0x00054a53: ret  ;  (1 found)
0x00054b33: ret  ;  (1 found)
0x00054d56: ret  ;  (1 found)
0x00054d7a: ret  ;  (1 found)
0x00054e49: ret  ;  (1 found)
0x00054e61: ret  ;  (1 found)
0x00055353: ret  ;  (1 found)
0x00055456: ret  ;  (1 found)
0x0005546a: ret  ;  (1 found)
0x00055560: ret  ;  (1 found)
0x00055651: ret  ;  (1 found)
0x00055675: ret  ;  (1 found)
0x00055945: ret  ;  (1 found)
0x00055a65: ret  ;  (1 found)
0x00055c4a: ret  ;  (1 found)
0x00055c5a: ret  ;  (1 found)
0x00055e50: ret  ;  (1 found)
0x00056065: ret  ;  (1 found)
0x0005637c: ret  ;  (1 found)
0x00056534: ret  ;  (1 found)
0x00056555: ret  ;  (1 found)
0x0005673f: ret  ;  (1 found)
0x00057d30: ret  ;  (1 found)
0x00059330: ret  ;  (1 found)
0x00064261: ret  ;  (1 found)
0x00064350: ret  ;  (1 found)
0x00064529: ret  ;  (1 found)
0x0006464b: ret  ;  (1 found)
0x0006475c: ret  ;  (1 found)
0x00064938: ret  ;  (1 found)
0x00064d5b: ret  ;  (1 found)
0x00064e66: ret  ;  (1 found)
0x00064f36: ret  ;  (1 found)
0x00065033: ret  ;  (1 found)
0x00065048: ret  ;  (1 found)
0x0006536d: ret  ;  (1 found)
0x00065433: ret  ;  (1 found)
0x00065635: ret  ;  (1 found)
0x00065b7b: ret  ;  (1 found)
0x00065c3e: ret  ;  (1 found)
0x00065c77: ret  ;  (1 found)
0x00065d5f: ret  ;  (1 found)
0x00065e3d: ret  ;  (1 found)
0x00065f62: ret  ;  (1 found)
0x0006634e: ret  ;  (1 found)
0x0006675a: ret  ;  (1 found)
0x00066a57: ret  ;  (1 found)
0x00066c35: ret  ;  (1 found)
0x00066c37: ret  ;  (1 found)
0x00066f65: ret  ;  (1 found)
0x00067145: ret  ;  (1 found)
0x00067223: ret  ;  (1 found)
0x0006775d: ret  ;  (1 found)
0x0006792a: ret  ;  (1 found)
0x0006795c: ret  ;  (1 found)
0x00067a3b: ret  ;  (1 found)
0x00067c62: ret  ;  (1 found)
0x00067e64: ret  ;  (1 found)
0x00067f56: ret  ;  (1 found)
0x0006812e: ret  ;  (1 found)
0x00068142: ret  ;  (1 found)
0x00068165: ret  ;  (1 found)
0x0006852e: ret  ;  (1 found)
0x00068745: ret  ;  (1 found)
0x0006884d: ret  ;  (1 found)
0x00068975: ret  ;  (1 found)
0x00068a57: ret  ;  (1 found)
0x00068a6d: ret  ;  (1 found)
0x00068b33: ret  ;  (1 found)
0x00068b47: ret  ;  (1 found)
0x00068b5f: ret  ;  (1 found)
0x00068b75: ret  ;  (1 found)
0x00068d55: ret  ;  (1 found)
0x00068e33: ret  ;  (1 found)
0x00068f62: ret  ;  (1 found)
0x0006915e: ret  ;  (1 found)
0x0006922a: ret  ;  (1 found)
0x0006934d: ret  ;  (1 found)
0x00069479: ret  ;  (1 found)
0x00069c4e: ret  ;  (1 found)
0x00069e25: ret  ;  (1 found)
0x00074030: ret  ;  (1 found)
0x00074042: ret  ;  (1 found)
0x00074333: ret  ;  (1 found)
0x0007437d: ret  ;  (1 found)
0x00074640: ret  ;  (1 found)
0x00074c27: ret  ;  (1 found)
0x00074d32: ret  ;  (1 found)
0x0007557a: ret  ;  (1 found)
0x00075677: ret  ;  (1 found)
0x00076062: ret  ;  (1 found)
0x0007613a: ret  ;  (1 found)
0x00077342: ret  ;  (1 found)
0x00077367: ret  ;  (1 found)
0x00077b59: ret  ;  (1 found)
0x00077b75: ret  ;  (1 found)
0x00077c65: ret  ;  (1 found)
0x00077f5a: ret  ;  (1 found)
0x00078227: ret  ;  (1 found)
0x00078232: ret  ;  (1 found)
0x0007824a: ret  ;  (1 found)
0x00078263: ret  ;  (1 found)
0x0007833d: ret  ;  (1 found)
0x00078d4d: ret  ;  (1 found)
0x00078f4d: ret  ;  (1 found)
0x0007902d: ret  ;  (1 found)
0x0007906a: ret  ;  (1 found)
0x00079227: ret  ;  (1 found)
0x0007957c: ret  ;  (1 found)
0x00079a79: ret  ;  (1 found)
0x00079b7d: ret  ;  (1 found)
0x00079c71: ret  ;  (1 found)
0x00079e29: ret  ;  (1 found)
0x00079f28: ret  ;  (1 found)
0x00084060: ret  ;  (1 found)
0x0008563b: ret  ;  (1 found)
0x00085647: ret  ;  (1 found)
0x00085659: ret  ;  (1 found)
0x0008566f: ret  ;  (1 found)
0x0008567d: ret  ;  (1 found)
0x00085735: ret  ;  (1 found)
0x00085755: ret  ;  (1 found)
0x00085766: ret  ;  (1 found)
0x00085778: ret  ;  (1 found)
0x00085830: ret  ;  (1 found)
0x00085850: ret  ;  (1 found)
0x00085874: ret  ;  (1 found)
0x00085b51: ret  ;  (1 found)
0x00085e70: ret  ;  (1 found)
0x00086150: ret  ;  (1 found)
0x00086570: ret  ;  (1 found)
0x00086830: ret  ;  (1 found)
0x00086c50: ret  ;  (1 found)
0x00087070: ret  ;  (1 found)
0x00087134: ret  ;  (1 found)
0x00087178: ret  ;  (1 found)
0x00087351: ret  ;  (1 found)
0x00087431: ret  ;  (1 found)
0x00087454: ret  ;  (1 found)
0x00087476: ret  ;  (1 found)
0x00087540: ret  ;  (1 found)
0x0008756e: ret  ;  (1 found)
0x00087624: ret  ;  (1 found)
0x00087637: ret  ;  (1 found)
0x00087643: ret  ;  (1 found)
0x00087656: ret  ;  (1 found)
0x00087667: ret  ;  (1 found)
0x00087676: ret  ;  (1 found)
0x00087833: ret  ;  (1 found)
0x00087855: ret  ;  (1 found)
0x0008787b: ret  ;  (1 found)
0x0008793d: ret  ;  (1 found)
0x0008795f: ret  ;  (1 found)
0x0008797d: ret  ;  (1 found)
0x00087a21: ret  ;  (1 found)
0x00087a47: ret  ;  (1 found)
0x00087a55: ret  ;  (1 found)
0x00087d6a: ret  ;  (1 found)
0x00087e26: ret  ;  (1 found)
0x00087f54: ret  ;  (1 found)
0x00088074: ret  ;  (1 found)
0x00088132: ret  ;  (1 found)
0x00088242: ret  ;  (1 found)
0x0008836a: ret  ;  (1 found)
0x00088437: ret  ;  (1 found)
0x0008864f: ret  ;  (1 found)
0x00089948: ret  ;  (1 found)
0x0008997c: ret  ;  (1 found)
0x00089a30: ret  ;  (1 found)
0x00089a4e: ret  ;  (1 found)
0x00089a60: ret  ;  (1 found)
0x00089a7e: ret  ;  (1 found)
0x00089b36: ret  ;  (1 found)
0x00089b46: ret  ;  (1 found)
0x00089b59: ret  ;  (1 found)
0x00089b6f: ret  ;  (1 found)
0x00089b77: ret  ;  (1 found)
0x00089c31: ret  ;  (1 found)
0x00089c55: ret  ;  (1 found)
0x00089c75: ret  ;  (1 found)
0x00089f31: ret  ;  (1 found)
0x00094168: ret  ;  (1 found)
0x00094174: ret  ;  (1 found)
0x00094635: ret  ;  (1 found)
0x00094949: ret  ;  (1 found)
0x00094a2d: ret  ;  (1 found)
0x00094a43: ret  ;  (1 found)
0x00094a65: ret  ;  (1 found)
0x00094b27: ret  ;  (1 found)
0x00094b4b: ret  ;  (1 found)
0x00094b6b: ret  ;  (1 found)
0x00094c27: ret  ;  (1 found)
0x00094c4d: ret  ;  (1 found)
0x00094c6b: ret  ;  (1 found)
0x00094d31: ret  ;  (1 found)
0x00094d61: ret  ;  (1 found)
0x00094e3c: ret  ;  (1 found)
0x00094e4b: ret  ;  (1 found)
0x00094f53: ret  ;  (1 found)
0x0009512b: ret  ;  (1 found)
0x00095137: ret  ;  (1 found)
0x00095236: ret  ;  (1 found)
0x0009523f: ret  ;  (1 found)
0x00095249: ret  ;  (1 found)
0x0009527c: ret  ;  (1 found)
0x0009534b: ret  ;  (1 found)
0x00095523: ret  ;  (1 found)
0x00095559: ret  ;  (1 found)
0x00095568: ret  ;  (1 found)
0x00095576: ret  ;  (1 found)
0x0009567f: ret  ;  (1 found)
0x0009573e: ret  ;  (1 found)
0x0009575e: ret  ;  (1 found)
0x00095825: ret  ;  (1 found)
0x00095837: ret  ;  (1 found)
0x00095847: ret  ;  (1 found)
0x00095857: ret  ;  (1 found)
0x0009586c: ret  ;  (1 found)
0x0009587e: ret  ;  (1 found)
0x0009592a: ret  ;  (1 found)
0x0009596b: ret  ;  (1 found)
0x00095978: ret  ;  (1 found)
0x00095a67: ret  ;  (1 found)
0x00095a71: ret  ;  (1 found)
0x00095a7b: ret  ;  (1 found)
0x00095b21: ret  ;  (1 found)
0x00095b75: ret  ;  (1 found)
0x00095c5e: ret  ;  (1 found)
0x00095c6e: ret  ;  (1 found)
0x00095c76: ret  ;  (1 found)
0x00095c77: ret  ;  (1 found)
0x00095d51: ret  ;  (1 found)
0x00095e76: ret  ;  (1 found)
0x00095f23: ret  ;  (1 found)
0x00096022: ret  ;  (1 found)
0x00096451: ret  ;  (1 found)
0x00096523: ret  ;  (1 found)
0x00096833: ret  ;  (1 found)
0x00096851: ret  ;  (1 found)
0x00097b7e: ret  ;  (1 found)
0x00097c32: ret  ;  (1 found)
0x00097d27: ret  ;  (1 found)
0x00097d53: ret  ;  (1 found)
0x00097d67: ret  ;  (1 found)
0x00097e3c: ret  ;  (1 found)
0x00097e47: ret  ;  (1 found)
0x00097e73: ret  ;  (1 found)
0x00097f31: ret  ;  (1 found)
0x00098079: ret  ;  (1 found)
0x00098133: ret  ;  (1 found)
0x00098178: ret  ;  (1 found)
0x00098425: ret  ;  (1 found)
0x0009842a: ret  ;  (1 found)
0x00098433: ret  ;  (1 found)
0x00098440: ret  ;  (1 found)
0x00098443: ret  ;  (1 found)
0x00098457: ret  ;  (1 found)
0x00098558: ret  ;  (1 found)
0x00098937: ret  ;  (1 found)
0x00098947: ret  ;  (1 found)
0x00098b4c: ret  ;  (1 found)
0x00098e4f: ret  ;  (1 found)
0x00098e5a: ret  ;  (1 found)
0x0009937c: ret  ;  (1 found)
0x0009957a: ret  ;  (1 found)
0x0009996d: ret  ;  (1 found)
0x00099a54: ret  ;  (1 found)
0x00099a67: ret  ;  (1 found)
0x00099b44: ret  ;  (1 found)
0x00099b57: ret  ;  (1 found)
0x00099c34: ret  ;  (1 found)
0x00099c47: ret  ;  (1 found)
0x00099c7c: ret  ;  (1 found)
0x00099d3c: ret  ;  (1 found)
0x00099d47: ret  ;  (1 found)
0x00099d7c: ret  ;  (1 found)
0x000a4220: ret  ;  (1 found)
0x000a4a21: ret  ;  (1 found)
0x000a5476: ret  ;  (1 found)
0x000a5622: ret  ;  (1 found)
0x000a5663: ret  ;  (1 found)
0x000a5735: ret  ;  (1 found)
0x000a5740: ret  ;  (1 found)
0x000a5764: ret  ;  (1 found)
0x000a582c: ret  ;  (1 found)
0x000a5a4c: ret  ;  (1 found)
0x000a5b55: ret  ;  (1 found)
0x000a6325: ret  ;  (1 found)
0x000a6445: ret  ;  (1 found)
0x000a6b68: ret  ;  (1 found)
0x000a6f31: ret  ;  (1 found)
0x000a7133: ret  ;  (1 found)
0x000a714e: ret  ;  (1 found)
0x000a7169: ret  ;  (1 found)
0x000a717a: ret  ;  (1 found)
0x000a7229: ret  ;  (1 found)
0x000a7232: ret  ;  (1 found)
0x000a726f: ret  ;  (1 found)
0x000a7425: ret  ;  (1 found)
0x000a7435: ret  ;  (1 found)
0x000a7445: ret  ;  (1 found)
0x000a7455: ret  ;  (1 found)
0x000a7465: ret  ;  (1 found)
0x000a753a: ret  ;  (1 found)
0x000a7558: ret  ;  (1 found)
0x000a7574: ret  ;  (1 found)
0x000a793d: ret  ;  (1 found)
0x000a7b46: ret  ;  (1 found)
0x000a7b7a: ret  ;  (1 found)
0x000a7c21: ret  ;  (1 found)
0x000a7c3e: ret  ;  (1 found)
0x000a7c5f: ret  ;  (1 found)
0x000a7c67: ret  ;  (1 found)
0x000a7d4c: ret  ;  (1 found)
0x000a7e68: ret  ;  (1 found)
0x000a8264: ret  ;  (1 found)
0x000a8279: ret  ;  (1 found)
0x000a8438: ret  ;  (1 found)
0x000a845f: ret  ;  (1 found)
0x000a847f: ret  ;  (1 found)
0x000a8670: ret  ;  (1 found)
0x000a892f: ret  ;  (1 found)
0x000a8a69: ret  ;  (1 found)
0x000a915d: ret  ;  (1 found)
0x000a9321: ret  ;  (1 found)
0x000a9369: ret  ;  (1 found)
0x000a937c: ret  ;  (1 found)
0x000a9441: ret  ;  (1 found)
0x000b4063: ret  ;  (1 found)
0x000b4074: ret  ;  (1 found)
0x000b4352: ret  ;  (1 found)
0x000b436a: ret  ;  (1 found)
0x000b465c: ret  ;  (1 found)
0x000b4839: ret  ;  (1 found)
0x000b4a39: ret  ;  (1 found)
0x000b4b51: ret  ;  (1 found)
0x000b4b6d: ret  ;  (1 found)
0x000b4f6c: ret  ;  (1 found)
0x000b5564: ret  ;  (1 found)
0x000b5622: ret  ;  (1 found)
0x000b5834: ret  ;  (1 found)
0x000b5b21: ret  ;  (1 found)
0x000b5c44: ret  ;  (1 found)
0x000b5c57: ret  ;  (1 found)
0x000b5e3a: ret  ;  (1 found)
0x000b5f7c: ret  ;  (1 found)
0x000b6451: ret  ;  (1 found)
0x000b672f: ret  ;  (1 found)
0x000b684a: ret  ;  (1 found)
0x000b6b5b: ret  ;  (1 found)
0x000b6c70: ret  ;  (1 found)
0x000b6d7d: ret  ;  (1 found)
0x000b6f61: ret  ;  (1 found)
0x000b732c: ret  ;  (1 found)
0x000b744a: ret  ;  (1 found)
0x000b774f: ret  ;  (1 found)
0x000b7948: ret  ;  (1 found)
0x000b7c4d: ret  ;  (1 found)
0x000b7d4c: ret  ;  (1 found)
0x000b7e30: ret  ;  (1 found)
0x000b7e5f: ret  ;  (1 found)
0x000b7f27: ret  ;  (1 found)
0x000b8073: ret  ;  (1 found)
0x000b8238: ret  ;  (1 found)
0x000b826c: ret  ;  (1 found)
0x000b8447: ret  ;  (1 found)
0x000b8622: ret  ;  (1 found)
0x000b8668: ret  ;  (1 found)
0x000b873c: ret  ;  (1 found)
0x000b8747: ret  ;  (1 found)
0x000b8773: ret  ;  (1 found)
0x000b8823: ret  ;  (1 found)
0x000b8a47: ret  ;  (1 found)
0x000b8a73: ret  ;  (1 found)
0x000b8c38: ret  ;  (1 found)
0x000b8c59: ret  ;  (1 found)
0x000b903f: ret  ;  (1 found)
0x000b9070: ret  ;  (1 found)
0x000b914a: ret  ;  (1 found)
0x000b9227: ret  ;  (1 found)
0x000b932c: ret  ;  (1 found)
0x000b935a: ret  ;  (1 found)
0x000b937b: ret  ;  (1 found)
0x000b9422: ret  ;  (1 found)
0x000b9458: ret  ;  (1 found)
0x000b9541: ret  ;  (1 found)
0x000b957e: ret  ;  (1 found)
0x000b9928: ret  ;  (1 found)
0x000b9948: ret  ;  (1 found)
0x000b996e: ret  ;  (1 found)
0x000b9976: ret  ;  (1 found)
0x000b997e: ret  ;  (1 found)
0x000b9a3d: ret  ;  (1 found)
0x000b9a68: ret  ;  (1 found)
0x000b9b42: ret  ;  (1 found)
0x000b9b5c: ret  ;  (1 found)
0x000b9b74: ret  ;  (1 found)
0x000c4259: ret  ;  (1 found)
0x000c4570: ret  ;  (1 found)
0x000c524f: ret  ;  (1 found)
0x000c525e: ret  ;  (1 found)
0x000c534f: ret  ;  (1 found)
0x000c535e: ret  ;  (1 found)
0x000c5451: ret  ;  (1 found)
0x000c554b: ret  ;  (1 found)
0x000c5620: ret  ;  (1 found)
0x000c564c: ret  ;  (1 found)
0x000c5849: ret  ;  (1 found)
0x000c5929: ret  ;  (1 found)
0x000c5a69: ret  ;  (1 found)
0x000c5b47: ret  ;  (1 found)
0x000c5b57: ret  ;  (1 found)
0x000c5c38: ret  ;  (1 found)
0x000c5c47: ret  ;  (1 found)
0x000c5c73: ret  ;  (1 found)
0x000c5d32: ret  ;  (1 found)
0x000c5d4b: ret  ;  (1 found)
0x000c5d6e: ret  ;  (1 found)
0x000c5e7e: ret  ;  (1 found)
0x000c635c: ret  ;  (1 found)
0x000c6b2e: ret  ;  (1 found)
0x000c6b55: ret  ;  (1 found)
0x000c6e24: ret  ;  (1 found)
0x000c6e67: ret  ;  (1 found)
0x000c7134: ret  ;  (1 found)
0x000c715e: ret  ;  (1 found)
0x000c7345: ret  ;  (1 found)
0x000c735b: ret  ;  (1 found)
0x000c736a: ret  ;  (1 found)
0x000c9532: ret  ;  (1 found)
0x000c955a: ret  ;  (1 found)
0x000d4322: ret  ;  (1 found)
0x000d4362: ret  ;  (1 found)
0x000d564d: ret  ;  (1 found)
0x000d614c: ret  ;  (1 found)
0x000d6340: ret  ;  (1 found)
0x000d6d7d: ret  ;  (1 found)
0x000d6e29: ret  ;  (1 found)
0x000d6e45: ret  ;  (1 found)
0x000d7064: ret  ;  (1 found)
0x000d762a: ret  ;  (1 found)
0x000d772b: ret  ;  (1 found)
0x000d773b: ret  ;  (1 found)
0x000d7863: ret  ;  (1 found)
0x000d7c20: ret  ;  (1 found)
0x000d7f31: ret  ;  (1 found)
0x000d8041: ret  ;  (1 found)
0x000d8065: ret  ;  (1 found)
0x000d812e: ret  ;  (1 found)
0x000d833d: ret  ;  (1 found)
0x000d843c: ret  ;  (1 found)
0x000d8469: ret  ;  (1 found)
0x000d8477: ret  ;  (1 found)
0x000d8559: ret  ;  (1 found)
0x000d8625: ret  ;  (1 found)
0x000d863d: ret  ;  (1 found)
0x000d8676: ret  ;  (1 found)
0x000d8720: ret  ;  (1 found)
0x000d8747: ret  ;  (1 found)
0x000d8a21: ret  ;  (1 found)
0x000d8a31: ret  ;  (1 found)
0x000d8a4f: ret  ;  (1 found)
0x000d8a5d: ret  ;  (1 found)
0x000d8a6e: ret  ;  (1 found)
0x000d904d: ret  ;  (1 found)
0x000d922c: ret  ;  (1 found)
0x000d934f: ret  ;  (1 found)
0x000d935c: ret  ;  (1 found)
0x000d9372: ret  ;  (1 found)
0x000d943e: ret  ;  (1 found)
0x000d946d: ret  ;  (1 found)
0x000d947d: ret  ;  (1 found)
0x000d9547: ret  ;  (1 found)
0x000d9825: ret  ;  (1 found)
0x000d9949: ret  ;  (1 found)
0x000d9a23: ret  ;  (1 found)
0x000d9b37: ret  ;  (1 found)
0x000e4664: ret  ;  (1 found)
0x000e4751: ret  ;  (1 found)
0x000e4841: ret  ;  (1 found)
0x000e4d7e: ret  ;  (1 found)
0x000e4e5c: ret  ;  (1 found)
0x000e4f33: ret  ;  (1 found)
0x000e4f6b: ret  ;  (1 found)
0x000e502b: ret  ;  (1 found)
0x000e503d: ret  ;  (1 found)
0x000e5062: ret  ;  (1 found)
0x000e512d: ret  ;  (1 found)
0x000e5147: ret  ;  (1 found)
0x000e564c: ret  ;  (1 found)
0x000e5879: ret  ;  (1 found)
0x000e5939: ret  ;  (1 found)
0x000e5c39: ret  ;  (1 found)
0x000e5d57: ret  ;  (1 found)
0x000e5e33: ret  ;  (1 found)
0x000e5e4b: ret  ;  (1 found)
0x000e5f39: ret  ;  (1 found)
0x000e5f61: ret  ;  (1 found)
0x000e6264: ret  ;  (1 found)
0x000e634a: ret  ;  (1 found)
0x000e6455: ret  ;  (1 found)
0x000e647b: ret  ;  (1 found)
0x000e657b: ret  ;  (1 found)
0x000e6650: ret  ;  (1 found)
0x000e6740: ret  ;  (1 found)
0x000e684a: ret  ;  (1 found)
0x000e6964: ret  ;  (1 found)
0x000e6a2c: ret  ;  (1 found)
0x000e6a6d: ret  ;  (1 found)
0x000e6a7b: ret  ;  (1 found)
0x000e6c3d: ret  ;  (1 found)
0x000e6c3f: ret  ;  (1 found)
0x000e6d21: ret  ;  (1 found)
0x000e6d61: ret  ;  (1 found)
0x000e6e21: ret  ;  (1 found)
0x000e6e5a: ret  ;  (1 found)
0x000e7071: ret  ;  (1 found)
0x000e713e: ret  ;  (1 found)
0x000e7355: ret  ;  (1 found)
0x000e7371: ret  ;  (1 found)
0x000e745f: ret  ;  (1 found)
0x000e7637: ret  ;  (1 found)
0x000e7875: ret  ;  (1 found)
0x000e7921: ret  ;  (1 found)
0x000e7977: ret  ;  (1 found)
0x000e7a2c: ret  ;  (1 found)
0x000e7b41: ret  ;  (1 found)
0x000e7c47: ret  ;  (1 found)
0x000e7c75: ret  ;  (1 found)
0x000e7d20: ret  ;  (1 found)
0x000e7d5f: ret  ;  (1 found)
0x000e7e2f: ret  ;  (1 found)
0x000e802b: ret  ;  (1 found)
0x000e8033: ret  ;  (1 found)
0x000e806b: ret  ;  (1 found)
0x000e8165: ret  ;  (1 found)
0x000e8234: ret  ;  (1 found)
0x000e825c: ret  ;  (1 found)
0x000e836f: ret  ;  (1 found)
0x000e837c: ret  ;  (1 found)
0x000e8449: ret  ;  (1 found)
0x000e853d: ret  ;  (1 found)
0x000e857e: ret  ;  (1 found)
0x000e8651: ret  ;  (1 found)
0x000e866e: ret  ;  (1 found)
0x000e874e: ret  ;  (1 found)
0x000e877b: ret  ;  (1 found)
0x000e883e: ret  ;  (1 found)
0x000e8935: ret  ;  (1 found)
0x000e8944: ret  ;  (1 found)
0x000e8975: ret  ;  (1 found)
0x000e8a27: ret  ;  (1 found)
0x000e8a45: ret  ;  (1 found)
0x000e8a57: ret  ;  (1 found)
0x000e8b3d: ret  ;  (1 found)
0x000e8c22: ret  ;  (1 found)
0x000e8c3e: ret  ;  (1 found)
0x000e8c58: ret  ;  (1 found)
0x000e8c77: ret  ;  (1 found)
0x000e8f7e: ret  ;  (1 found)
0x000e952f: ret  ;  (1 found)
0x000e9539: ret  ;  (1 found)
0x000e956b: ret  ;  (1 found)
0x000e9632: ret  ;  (1 found)
0x000e9744: ret  ;  (1 found)
0x000e9776: ret  ;  (1 found)
0x000e9838: ret  ;  (1 found)
0x000e9862: ret  ;  (1 found)
0x000e9927: ret  ;  (1 found)
0x000e993f: ret  ;  (1 found)
0x000e9a27: ret  ;  (1 found)
0x000e9a4a: ret  ;  (1 found)
0x000e9b71: ret  ;  (1 found)
0x000e9e2a: ret  ;  (1 found)
0x000f414a: ret  ;  (1 found)
0x000f4852: ret  ;  (1 found)
0x000f4872: ret  ;  (1 found)
0x000f4930: ret  ;  (1 found)
0x000f4b7d: ret  ;  (1 found)
0x000f4c79: ret  ;  (1 found)
0x000f4f35: ret  ;  (1 found)
0x000f5123: ret  ;  (1 found)
0x000f546c: ret  ;  (1 found)
0x000f5532: ret  ;  (1 found)
0x000f5533: ret  ;  (1 found)
0x000f5744: ret  ;  (1 found)
0x000f5847: ret  ;  (1 found)
0x000f5a71: ret  ;  (1 found)
0x000f5c2e: ret  ;  (1 found)
0x000f5c4b: ret  ;  (1 found)
0x000f5d24: ret  ;  (1 found)
0x000f5d37: ret  ;  (1 found)
0x000f6038: ret  ;  (1 found)
0x000f6469: ret  ;  (1 found)
0x000f6661: ret  ;  (1 found)
0x000f6750: ret  ;  (1 found)
0x000f6771: ret  ;  (1 found)
0x000f6d28: ret  ;  (1 found)
0x000f6d4d: ret  ;  (1 found)
0x000f6d7a: ret  ;  (1 found)
0x000f6e72: ret  ;  (1 found)
0x000f6f6c: ret  ;  (1 found)
0x000f7022: ret  ;  (1 found)
0x000f7045: ret  ;  (1 found)
0x000f7072: ret  ;  (1 found)
0x000f7139: ret  ;  (1 found)
0x000f7238: ret  ;  (1 found)
0x000f7243: ret  ;  (1 found)
0x000f725e: ret  ;  (1 found)
0x000f732b: ret  ;  (1 found)
0x000f733a: ret  ;  (1 found)
0x000f7a25: ret  ;  (1 found)
0x000f7b57: ret  ;  (1 found)
0x000f7b75: ret  ;  (1 found)
0x000f7d2e: ret  ;  (1 found)
0x000f7d63: ret  ;  (1 found)
0x000f7e36: ret  ;  (1 found)
0x000f7e4d: ret  ;  (1 found)
0x000f8139: ret  ;  (1 found)
0x000f826a: ret  ;  (1 found)
0x000f8528: ret  ;  (1 found)
0x000f8859: ret  ;  (1 found)
0x000f8948: ret  ;  (1 found)
0x000f8b22: ret  ;  (1 found)
0x000f8b3b: ret  ;  (1 found)
0x000f8b54: ret  ;  (1 found)
0x000f8d45: ret  ;  (1 found)
0x000f8e2a: ret  ;  (1 found)
0x000f8e54: ret  ;  (1 found)
0x000f8e70: ret  ;  (1 found)
0x000f8f2f: ret  ;  (1 found)
0x000f8f4a: ret  ;  (1 found)
0x000f8f71: ret  ;  (1 found)
0x000f9165: ret  ;  (1 found)
0x00104035: ret  ;  (1 found)
0x0010416d: ret  ;  (1 found)
0x00104248: ret  ;  (1 found)
0x00104642: ret  ;  (1 found)
0x00104677: ret  ;  (1 found)
0x00104738: ret  ;  (1 found)
0x00104835: ret  ;  (1 found)
0x00104962: ret  ;  (1 found)
0x00104a35: ret  ;  (1 found)
0x00104a7a: ret  ;  (1 found)
0x00104c45: ret  ;  (1 found)
0x00104c5e: ret  ;  (1 found)
0x00104d2d: ret  ;  (1 found)
0x00104d4e: ret  ;  (1 found)
0x00104e54: ret  ;  (1 found)
0x00104f43: ret  ;  (1 found)
0x00105036: ret  ;  (1 found)
0x0010504d: ret  ;  (1 found)
0x00105061: ret  ;  (1 found)
0x00105131: ret  ;  (1 found)
0x00105348: ret  ;  (1 found)
0x00105364: ret  ;  (1 found)
0x00105735: ret  ;  (1 found)
0x00105c78: ret  ;  (1 found)
0x00105e28: ret  ;  (1 found)
0x00106020: ret  ;  (1 found)
0x00106224: ret  ;  (1 found)
0x00106451: ret  ;  (1 found)
0x0010667b: ret  ;  (1 found)
0x00106d41: ret  ;  (1 found)
0x00106f6b: ret  ;  (1 found)
0x00107127: ret  ;  (1 found)
0x00107134: ret  ;  (1 found)
0x00107244: ret  ;  (1 found)
0x00107631: ret  ;  (1 found)
0x00107772: ret  ;  (1 found)
0x00107852: ret  ;  (1 found)
0x00107b38: ret  ;  (1 found)
0x00107d5a: ret  ;  (1 found)
0x00107d71: ret  ;  (1 found)
0x0010812a: ret  ;  (1 found)
0x00108141: ret  ;  (1 found)
0x00108278: ret  ;  (1 found)
0x00108420: ret  ;  (1 found)
0x00108451: ret  ;  (1 found)
0x00108672: ret  ;  (1 found)
0x00108760: ret  ;  (1 found)
0x0010886d: ret  ;  (1 found)
0x00108a51: ret  ;  (1 found)
0x00108c72: ret  ;  (1 found)
0x00109544: ret  ;  (1 found)
0x00109577: ret  ;  (1 found)
0x0010972e: ret  ;  (1 found)
0x0010984a: ret  ;  (1 found)
0x00109936: ret  ;  (1 found)
0x00109a39: ret  ;  (1 found)
0x00109b40: ret  ;  (1 found)
0x00109b5c: ret  ;  (1 found)
0x00109c67: ret  ;  (1 found)
0x00109d23: ret  ;  (1 found)
0x00109f41: ret  ;  (1 found)
0x00114120: ret  ;  (1 found)
0x00114228: ret  ;  (1 found)
0x0011427f: ret  ;  (1 found)
0x0011433c: ret  ;  (1 found)
0x00114345: ret  ;  (1 found)
0x00114420: ret  ;  (1 found)
0x0011452c: ret  ;  (1 found)
0x0011457a: ret  ;  (1 found)
0x00114635: ret  ;  (1 found)
0x00114727: ret  ;  (1 found)
0x00114a6b: ret  ;  (1 found)
0x00114a7e: ret  ;  (1 found)
0x00114c2a: ret  ;  (1 found)
0x00114e58: ret  ;  (1 found)
0x00114f38: ret  ;  (1 found)
0x00114f7a: ret  ;  (1 found)
0x0011505d: ret  ;  (1 found)
0x0011515a: ret  ;  (1 found)
0x00115355: ret  ;  (1 found)
0x0011566c: ret  ;  (1 found)
0x00115f3b: ret  ;  (1 found)
0x00115f41: ret  ;  (1 found)
0x00115f69: ret  ;  (1 found)
0x00116439: ret  ;  (1 found)
0x0011652e: ret  ;  (1 found)
0x0011665e: ret  ;  (1 found)
0x0011684a: ret  ;  (1 found)
0x00116b2f: ret  ;  (1 found)
0x00116b56: ret  ;  (1 found)
0x00116b6d: ret  ;  (1 found)
0x00116c2e: ret  ;  (1 found)
0x00116d3e: ret  ;  (1 found)
0x00116d60: ret  ;  (1 found)
0x00116e44: ret  ;  (1 found)
0x00117039: ret  ;  (1 found)
0x00117121: ret  ;  (1 found)
0x0011714a: ret  ;  (1 found)
0x0011717b: ret  ;  (1 found)
0x00117245: ret  ;  (1 found)
0x0011742d: ret  ;  (1 found)
0x0011756c: ret  ;  (1 found)
0x0011764f: ret  ;  (1 found)
0x00117825: ret  ;  (1 found)
0x0011784f: ret  ;  (1 found)
0x00117c39: ret  ;  (1 found)
0x0011827b: ret  ;  (1 found)
0x00118353: ret  ;  (1 found)
0x00118763: ret  ;  (1 found)
0x00118a68: ret  ;  (1 found)
0x00118a71: ret  ;  (1 found)
0x00118b2d: ret  ;  (1 found)
0x00118d31: ret  ;  (1 found)
0x00118d63: ret  ;  (1 found)
0x00119159: ret  ;  (1 found)
0x00119169: ret  ;  (1 found)
0x00119221: ret  ;  (1 found)
0x00119439: ret  ;  (1 found)
0x0011944a: ret  ;  (1 found)
0x0011947d: ret  ;  (1 found)
0x00119760: ret  ;  (1 found)
0x00119839: ret  ;  (1 found)
0x00119853: ret  ;  (1 found)
0x00119967: ret  ;  (1 found)
0x00119a3e: ret  ;  (1 found)
0x00119c44: ret  ;  (1 found)
0x00119f61: ret  ;  (1 found)
0x0012403f: ret  ;  (1 found)
0x00124121: ret  ;  (1 found)
0x0012414d: ret  ;  (1 found)
0x00124441: ret  ;  (1 found)
0x00124720: ret  ;  (1 found)
0x00124741: ret  ;  (1 found)
0x00124778: ret  ;  (1 found)
0x0012485c: ret  ;  (1 found)
0x00124876: ret  ;  (1 found)
0x00124944: ret  ;  (1 found)
0x0012495e: ret  ;  (1 found)
0x00124967: ret  ;  (1 found)
0x00124a21: ret  ;  (1 found)
0x00124a76: ret  ;  (1 found)
0x00124b3b: ret  ;  (1 found)
0x00124c37: ret  ;  (1 found)
0x00124c70: ret  ;  (1 found)
0x00124d38: ret  ;  (1 found)
0x00124e2a: ret  ;  (1 found)
0x0012545c: ret  ;  (1 found)
0x00125824: ret  ;  (1 found)
0x00125d45: ret  ;  (1 found)
0x00126270: ret  ;  (1 found)
0x00126336: ret  ;  (1 found)
0x00126426: ret  ;  (1 found)
0x00126528: ret  ;  (1 found)
0x00126537: ret  ;  (1 found)
0x0012654f: ret  ;  (1 found)
0x00126557: ret  ;  (1 found)
0x0012656f: ret  ;  (1 found)
0x00126577: ret  ;  (1 found)
0x00126634: ret  ;  (1 found)
0x00126677: ret  ;  (1 found)
0x00126c47: ret  ;  (1 found)
0x00126c49: ret  ;  (1 found)
0x00126c70: ret  ;  (1 found)
0x00126d3f: ret  ;  (1 found)
0x00126d55: ret  ;  (1 found)
0x00126e3b: ret  ;  (1 found)
0x00126e68: ret  ;  (1 found)
0x00126f35: ret  ;  (1 found)
0x00126f57: ret  ;  (1 found)
0x00127854: ret  ;  (1 found)
0x00127941: ret  ;  (1 found)
0x0012794d: ret  ;  (1 found)
0x00127959: ret  ;  (1 found)
0x00127b7a: ret  ;  (1 found)
0x00127e26: ret  ;  (1 found)
0x00127e61: ret  ;  (1 found)
0x00127e6d: ret  ;  (1 found)
0x00127e79: ret  ;  (1 found)
0x00127f2b: ret  ;  (1 found)
0x0012895b: ret  ;  (1 found)
0x00128a35: ret  ;  (1 found)
0x00128a73: ret  ;  (1 found)
0x00128b47: ret  ;  (1 found)
0x00128b57: ret  ;  (1 found)
0x00128c50: ret  ;  (1 found)
0x00128c73: ret  ;  (1 found)
0x00128e5d: ret  ;  (1 found)
0x0012904d: ret  ;  (1 found)
0x00129731: ret  ;  (1 found)
0x00129872: ret  ;  (1 found)
0x00129927: ret  ;  (1 found)
0x00129937: ret  ;  (1 found)
0x0012994a: ret  ;  (1 found)
0x00129972: ret  ;  (1 found)
0x00129a54: ret  ;  (1 found)
0x00129a60: ret  ;  (1 found)
0x00129a70: ret  ;  (1 found)
0x00129a7d: ret  ;  (1 found)
0x00129b40: ret  ;  (1 found)
0x00129c61: ret  ;  (1 found)
0x00129d21: ret  ;  (1 found)
0x00129d76: ret  ;  (1 found)
0x00129d7a: ret  ;  (1 found)
0x00129d7e: ret  ;  (1 found)
0x00129e46: ret  ;  (1 found)
0x00129e6e: ret  ;  (1 found)
0x00129f47: ret  ;  (1 found)
0x0013403a: ret  ;  (1 found)
0x0013406b: ret  ;  (1 found)
0x0013412d: ret  ;  (1 found)
0x00134160: ret  ;  (1 found)
0x00134243: ret  ;  (1 found)
0x00134631: ret  ;  (1 found)
0x00134751: ret  ;  (1 found)
0x00134871: ret  ;  (1 found)
0x00134a21: ret  ;  (1 found)
0x00134b41: ret  ;  (1 found)
0x00134c61: ret  ;  (1 found)
0x00134e4d: ret  ;  (1 found)
0x00134f3e: ret  ;  (1 found)
0x00135066: ret  ;  (1 found)
0x00135146: ret  ;  (1 found)
0x0013517a: ret  ;  (1 found)
0x0013524b: ret  ;  (1 found)
0x00135271: ret  ;  (1 found)
0x00135322: ret  ;  (1 found)
0x00135358: ret  ;  (1 found)
0x00135562: ret  ;  (1 found)
0x0013563d: ret  ;  (1 found)
0x00135720: ret  ;  (1 found)
0x0013574c: ret  ;  (1 found)
0x0013576a: ret  ;  (1 found)
0x00135829: ret  ;  (1 found)
0x00135a21: ret  ;  (1 found)
0x00135a31: ret  ;  (1 found)
0x00135b51: ret  ;  (1 found)
0x00135c71: ret  ;  (1 found)
0x00135e21: ret  ;  (1 found)
0x00135f41: ret  ;  (1 found)
0x00136061: ret  ;  (1 found)
0x0013632f: ret  ;  (1 found)
0x00136372: ret  ;  (1 found)
0x0013644d: ret  ;  (1 found)
0x00136537: ret  ;  (1 found)
0x0013654f: ret  ;  (1 found)
0x0013657e: ret  ;  (1 found)
0x0013662f: ret  ;  (1 found)
0x00136655: ret  ;  (1 found)
0x00136750: ret  ;  (1 found)
0x0013695b: ret  ;  (1 found)
0x00136a49: ret  ;  (1 found)
0x00136b4a: ret  ;  (1 found)
0x00136f41: ret  ;  (1 found)
0x00137061: ret  ;  (1 found)
0x00137331: ret  ;  (1 found)
0x00137451: ret  ;  (1 found)
0x00137571: ret  ;  (1 found)
0x0013775d: ret  ;  (1 found)
0x0013784e: ret  ;  (1 found)
0x0013792c: ret  ;  (1 found)
0x00137976: ret  ;  (1 found)
0x00137a20: ret  ;  (1 found)
0x00137a56: ret  ;  (1 found)
0x00137b27: ret  ;  (1 found)
0x00137b5b: ret  ;  (1 found)
0x00137c32: ret  ;  (1 found)
0x00137c68: ret  ;  (1 found)
0x00137e25: ret  ;  (1 found)
0x00137e72: ret  ;  (1 found)
0x00137f4d: ret  ;  (1 found)
0x0013804d: ret  ;  (1 found)
0x00138160: ret  ;  (1 found)
0x00138170: ret  ;  (1 found)
0x00138269: ret  ;  (1 found)
0x00138279: ret  ;  (1 found)
0x00138370: ret  ;  (1 found)
0x0013847a: ret  ;  (1 found)
0x00138521: ret  ;  (1 found)
0x00138641: ret  ;  (1 found)
0x00138761: ret  ;  (1 found)
0x00138a31: ret  ;  (1 found)
0x00138b51: ret  ;  (1 found)
0x00138c71: ret  ;  (1 found)
0x00138d47: ret  ;  (1 found)
0x00138d61: ret  ;  (1 found)
0x00138e66: ret  ;  (1 found)
0x00138f6f: ret  ;  (1 found)
0x0013905c: ret  ;  (1 found)
0x00139140: ret  ;  (1 found)
0x00139150: ret  ;  (1 found)
0x0013917c: ret  ;  (1 found)
0x00139249: ret  ;  (1 found)
0x00139259: ret  ;  (1 found)
0x00139350: ret  ;  (1 found)
0x0013945a: ret  ;  (1 found)
0x00139471: ret  ;  (1 found)
0x00139621: ret  ;  (1 found)
0x00139741: ret  ;  (1 found)
0x00139861: ret  ;  (1 found)
0x00139b31: ret  ;  (1 found)
0x00139c51: ret  ;  (1 found)
0x00139d25: ret  ;  (1 found)
0x00139d3f: ret  ;  (1 found)
0x00139e34: ret  ;  (1 found)
0x00139f3f: ret  ;  (1 found)
0x00144359: ret  ;  (1 found)
0x00144363: ret  ;  (1 found)
0x00144431: ret  ;  (1 found)
0x00144a49: ret  ;  (1 found)
0x00144a53: ret  ;  (1 found)
0x00145139: ret  ;  (1 found)
0x00145143: ret  ;  (1 found)
0x0014527d: ret  ;  (1 found)
0x00145333: ret  ;  (1 found)
0x00145363: ret  ;  (1 found)
0x00145438: ret  ;  (1 found)
0x0014544e: ret  ;  (1 found)
0x00145459: ret  ;  (1 found)
0x00145730: ret  ;  (1 found)
0x00145771: ret  ;  (1 found)
0x0014693d: ret  ;  (1 found)
0x00146c5d: ret  ;  (1 found)
0x00147063: ret  ;  (1 found)
0x00147271: ret  ;  (1 found)
0x0014735a: ret  ;  (1 found)
0x00147424: ret  ;  (1 found)
0x00147434: ret  ;  (1 found)
0x00147444: ret  ;  (1 found)
0x00147454: ret  ;  (1 found)
0x00147464: ret  ;  (1 found)
0x00147474: ret  ;  (1 found)
0x0014755b: ret  ;  (1 found)
0x00147645: ret  ;  (1 found)
0x00147659: ret  ;  (1 found)
0x00147749: ret  ;  (1 found)
0x00147837: ret  ;  (1 found)
0x0014785c: ret  ;  (1 found)
0x00147924: ret  ;  (1 found)
0x00147934: ret  ;  (1 found)
0x00147944: ret  ;  (1 found)
0x00147954: ret  ;  (1 found)
0x00147964: ret  ;  (1 found)
0x00147973: ret  ;  (1 found)
0x00147a20: ret  ;  (1 found)
0x00147a59: ret  ;  (1 found)
0x00147a6c: ret  ;  (1 found)
0x00147a7c: ret  ;  (1 found)
0x00147c60: ret  ;  (1 found)
0x00147d39: ret  ;  (1 found)
0x00147d5c: ret  ;  (1 found)
0x00147e2b: ret  ;  (1 found)
0x00147e33: ret  ;  (1 found)
0x00147e44: ret  ;  (1 found)
0x00147e54: ret  ;  (1 found)
0x00147e64: ret  ;  (1 found)
0x00147e74: ret  ;  (1 found)
0x00147f24: ret  ;  (1 found)
0x00147f55: ret  ;  (1 found)
0x00148029: ret  ;  (1 found)
0x00148039: ret  ;  (1 found)
0x00148049: ret  ;  (1 found)
0x00148059: ret  ;  (1 found)
0x00148069: ret  ;  (1 found)
0x00148079: ret  ;  (1 found)
0x0014817e: ret  ;  (1 found)
0x00148255: ret  ;  (1 found)
0x00148340: ret  ;  (1 found)
0x0014837c: ret  ;  (1 found)
0x0014842e: ret  ;  (1 found)
0x00148433: ret  ;  (1 found)
0x00148443: ret  ;  (1 found)
0x00148453: ret  ;  (1 found)
0x00148463: ret  ;  (1 found)
0x00148473: ret  ;  (1 found)
0x00148529: ret  ;  (1 found)
0x0014856c: ret  ;  (1 found)
0x0014864d: ret  ;  (1 found)
0x00148677: ret  ;  (1 found)
0x00148728: ret  ;  (1 found)
0x00148738: ret  ;  (1 found)
0x00148742: ret  ;  (1 found)
0x00148772: ret  ;  (1 found)
0x00148823: ret  ;  (1 found)
0x0014892e: ret  ;  (1 found)
0x00148a2b: ret  ;  (1 found)
0x00148a55: ret  ;  (1 found)
0x00148a7e: ret  ;  (1 found)
0x00148b23: ret  ;  (1 found)
0x00148b33: ret  ;  (1 found)
0x00148b42: ret  ;  (1 found)
0x00148e39: ret  ;  (1 found)
0x00148e5f: ret  ;  (1 found)
0x00148f55: ret  ;  (1 found)
0x00149029: ret  ;  (1 found)
0x00149039: ret  ;  (1 found)
0x00149049: ret  ;  (1 found)
0x00149059: ret  ;  (1 found)
0x00149069: ret  ;  (1 found)
0x00149079: ret  ;  (1 found)
0x0014915c: ret  ;  (1 found)
0x00149221: ret  ;  (1 found)
0x00149226: ret  ;  (1 found)
0x0014922b: ret  ;  (1 found)
0x00149230: ret  ;  (1 found)
0x00149235: ret  ;  (1 found)
0x0014923a: ret  ;  (1 found)
0x00149272: ret  ;  (1 found)
0x0014972b: ret  ;  (1 found)
0x0014973c: ret  ;  (1 found)
0x00149743: ret  ;  (1 found)
0x0014982a: ret  ;  (1 found)
0x00149830: ret  ;  (1 found)
0x00149b71: ret  ;  (1 found)
0x00149c24: ret  ;  (1 found)
0x00149c39: ret  ;  (1 found)
0x00149c44: ret  ;  (1 found)
0x00149c54: ret  ;  (1 found)
0x00149c63: ret  ;  (1 found)
0x00149e53: ret  ;  (1 found)
0x00157a63: ret  ;  (1 found)
0x0015884b: ret  ;  (1 found)
0x00158d36: ret  ;  (1 found)
0x0015923e: ret  ;  (1 found)
0x0015926f: ret  ;  (1 found)
0x00165e44: ret  ;  (1 found)
0x00165e58: ret  ;  (1 found)
0x00166334: ret  ;  (1 found)
0x0016883d: ret  ;  (1 found)
0x00168845: ret  ;  (1 found)
0x0016884d: ret  ;  (1 found)
0x00174036: ret  ;  (1 found)
0x00174042: ret  ;  (1 found)
0x0017413f: ret  ;  (1 found)
0x00174170: ret  ;  (1 found)
0x0017422b: ret  ;  (1 found)
0x00174230: ret  ;  (1 found)
0x00174238: ret  ;  (1 found)
0x00174260: ret  ;  (1 found)
0x00174421: ret  ;  (1 found)
0x00174435: ret  ;  (1 found)
0x00174445: ret  ;  (1 found)
0x0017462b: ret  ;  (1 found)
0x0017466d: ret  ;  (1 found)
0x0017472d: ret  ;  (1 found)
0x00174741: ret  ;  (1 found)
0x00174862: ret  ;  (1 found)
0x00174932: ret  ;  (1 found)
0x00174963: ret  ;  (1 found)
0x00174a54: ret  ;  (1 found)
0x00174b48: ret  ;  (1 found)
0x00174c26: ret  ;  (1 found)
0x00174c5f: ret  ;  (1 found)
0x00174c74: ret  ;  (1 found)
0x00174e3b: ret  ;  (1 found)
0x00174e5b: ret  ;  (1 found)
0x00174e7b: ret  ;  (1 found)
0x00174f20: ret  ;  (1 found)
0x00174f4b: ret  ;  (1 found)
0x0017502c: ret  ;  (1 found)
0x00175059: ret  ;  (1 found)
0x00175148: ret  ;  (1 found)
0x00175251: ret  ;  (1 found)
0x00175558: ret  ;  (1 found)
0x00175656: ret  ;  (1 found)
0x0017582c: ret  ;  (1 found)
0x0017583a: ret  ;  (1 found)
0x0017584a: ret  ;  (1 found)
0x00175947: ret  ;  (1 found)
0x00175979: ret  ;  (1 found)
0x00175a27: ret  ;  (1 found)
0x00175a61: ret  ;  (1 found)
0x00175b7f: ret  ;  (1 found)
0x00175d53: ret  ;  (1 found)
0x00175d60: ret  ;  (1 found)
0x00175e32: ret  ;  (1 found)
0x00175e5b: ret  ;  (1 found)
0x00175e7f: ret  ;  (1 found)
0x00175f36: ret  ;  (1 found)
0x00175f5d: ret  ;  (1 found)
0x00176148: ret  ;  (1 found)
0x00176451: ret  ;  (1 found)
0x0017667a: ret  ;  (1 found)
0x00176725: ret  ;  (1 found)
0x00176770: ret  ;  (1 found)
0x00176857: ret  ;  (1 found)
0x00176944: ret  ;  (1 found)
0x00176a30: ret  ;  (1 found)
0x00176c3c: ret  ;  (1 found)
0x00176c65: ret  ;  (1 found)
0x00176d4f: ret  ;  (1 found)
0x00176d73: ret  ;  (1 found)
0x00176e30: ret  ;  (1 found)
0x00176f79: ret  ;  (1 found)
0x00177130: ret  ;  (1 found)
0x0017734a: ret  ;  (1 found)
0x00177360: ret  ;  (1 found)
0x0017742c: ret  ;  (1 found)
0x0017763b: ret  ;  (1 found)
0x00177820: ret  ;  (1 found)
0x00177851: ret  ;  (1 found)
0x0017787b: ret  ;  (1 found)
0x00177920: ret  ;  (1 found)
0x0017794d: ret  ;  (1 found)
0x0017796f: ret  ;  (1 found)
0x00177a48: ret  ;  (1 found)
0x00177d73: ret  ;  (1 found)
0x00177e78: ret  ;  (1 found)
0x00177f47: ret  ;  (1 found)
0x00177f74: ret  ;  (1 found)
0x00178231: ret  ;  (1 found)
0x0017825a: ret  ;  (1 found)
0x00178457: ret  ;  (1 found)
0x00178658: ret  ;  (1 found)
0x0017867c: ret  ;  (1 found)
0x00178754: ret  ;  (1 found)
0x0017877e: ret  ;  (1 found)
0x0017882c: ret  ;  (1 found)
0x00178861: ret  ;  (1 found)
0x00178874: ret  ;  (1 found)
0x0017896c: ret  ;  (1 found)
0x00178a3e: ret  ;  (1 found)
0x00178b44: ret  ;  (1 found)
0x00178b73: ret  ;  (1 found)
0x00178b78: ret  ;  (1 found)
0x00178c73: ret  ;  (1 found)
0x00178d27: ret  ;  (1 found)
0x00178d48: ret  ;  (1 found)
0x00178d4f: ret  ;  (1 found)
0x00178d7b: ret  ;  (1 found)
0x00178f28: ret  ;  (1 found)
0x00178f6e: ret  ;  (1 found)
0x00179045: ret  ;  (1 found)
0x0017906f: ret  ;  (1 found)
0x00179244: ret  ;  (1 found)
0x00179363: ret  ;  (1 found)
0x00179448: ret  ;  (1 found)
0x00179474: ret  ;  (1 found)
0x00179534: ret  ;  (1 found)
0x0017955f: ret  ;  (1 found)
0x00179663: ret  ;  (1 found)
0x00179720: ret  ;  (1 found)
0x00179827: ret  ;  (1 found)
0x0017984b: ret  ;  (1 found)
0x0017986b: ret  ;  (1 found)
0x00179972: ret  ;  (1 found)
0x00179a53: ret  ;  (1 found)
0x00179a7f: ret  ;  (1 found)
0x00179b44: ret  ;  (1 found)
0x00179c4e: ret  ;  (1 found)
0x00179c77: ret  ;  (1 found)
0x00179d3e: ret  ;  (1 found)
0x00179d68: ret  ;  (1 found)
0x00179e37: ret  ;  (1 found)
0x00179f35: ret  ;  (1 found)
0x00179f4a: ret  ;  (1 found)
0x00184027: ret  ;  (1 found)
0x0018405e: ret  ;  (1 found)
0x00184074: ret  ;  (1 found)
0x0018413f: ret  ;  (1 found)
0x00184176: ret  ;  (1 found)
0x00184232: ret  ;  (1 found)
0x0018426b: ret  ;  (1 found)
0x00184334: ret  ;  (1 found)
0x00184374: ret  ;  (1 found)
0x0018442a: ret  ;  (1 found)
0x0018445c: ret  ;  (1 found)
0x0018446f: ret  ;  (1 found)
0x00184529: ret  ;  (1 found)
0x0018455c: ret  ;  (1 found)
0x0018456a: ret  ;  (1 found)
0x00184744: ret  ;  (1 found)
0x00184774: ret  ;  (1 found)
0x00184826: ret  ;  (1 found)
0x00184a64: ret  ;  (1 found)
0x00184b20: ret  ;  (1 found)
0x00184d24: ret  ;  (1 found)
0x00184d2e: ret  ;  (1 found)
0x00184d38: ret  ;  (1 found)
0x00184d42: ret  ;  (1 found)
0x00184d4c: ret  ;  (1 found)
0x00184d55: ret  ;  (1 found)
0x00184d5e: ret  ;  (1 found)
0x00184d79: ret  ;  (1 found)
0x00184e22: ret  ;  (1 found)
0x00184e31: ret  ;  (1 found)
0x00184e40: ret  ;  (1 found)
0x00184e4a: ret  ;  (1 found)
0x00184e53: ret  ;  (1 found)
0x0018514f: ret  ;  (1 found)
0x00185340: ret  ;  (1 found)
0x0018552c: ret  ;  (1 found)
0x00185560: ret  ;  (1 found)
0x00185640: ret  ;  (1 found)
0x00185667: ret  ;  (1 found)
0x00185724: ret  ;  (1 found)
0x00185765: ret  ;  (1 found)
0x00185837: ret  ;  (1 found)
0x0018583b: ret  ;  (1 found)
0x0018585f: ret  ;  (1 found)
0x00185952: ret  ;  (1 found)
0x00185a48: ret  ;  (1 found)
0x00185a7f: ret  ;  (1 found)
0x00185b4c: ret  ;  (1 found)
0x00185c28: ret  ;  (1 found)
0x00185c54: ret  ;  (1 found)
0x00185c79: ret  ;  (1 found)
0x00185d54: ret  ;  (1 found)
0x00186148: ret  ;  (1 found)
0x00186248: ret  ;  (1 found)
0x00186369: ret  ;  (1 found)
0x0018644a: ret  ;  (1 found)
0x00186471: ret  ;  (1 found)
0x00186538: ret  ;  (1 found)
0x00186548: ret  ;  (1 found)
0x00186738: ret  ;  (1 found)
0x00186a34: ret  ;  (1 found)
0x00186a5d: ret  ;  (1 found)
0x00186b25: ret  ;  (1 found)
0x00186b53: ret  ;  (1 found)
0x00186c5d: ret  ;  (1 found)
0x00186c73: ret  ;  (1 found)
0x00186d6d: ret  ;  (1 found)
0x00186e59: ret  ;  (1 found)
0x0018712d: ret  ;  (1 found)
0x0018717d: ret  ;  (1 found)
0x00187223: ret  ;  (1 found)
0x0018732c: ret  ;  (1 found)
0x00187342: ret  ;  (1 found)
0x00187421: ret  ;  (1 found)
0x0018745e: ret  ;  (1 found)
0x0018752d: ret  ;  (1 found)
0x00187558: ret  ;  (1 found)
0x00187567: ret  ;  (1 found)
0x00187631: ret  ;  (1 found)
0x00187671: ret  ;  (1 found)
0x00187720: ret  ;  (1 found)
0x00187834: ret  ;  (1 found)
0x00187841: ret  ;  (1 found)
0x00187943: ret  ;  (1 found)
0x00187967: ret  ;  (1 found)
0x00187a39: ret  ;  (1 found)
0x00187a66: ret  ;  (1 found)
0x00187b58: ret  ;  (1 found)
0x00187b6c: ret  ;  (1 found)
0x00187c40: ret  ;  (1 found)
0x00187c70: ret  ;  (1 found)
0x00187d5b: ret  ;  (1 found)
0x00187e20: ret  ;  (1 found)
0x00187e50: ret  ;  (1 found)
0x00187f44: ret  ;  (1 found)
0x00187f74: ret  ;  (1 found)
0x00188061: ret  ;  (1 found)
0x00188121: ret  ;  (1 found)
0x00188148: ret  ;  (1 found)
0x0018816c: ret  ;  (1 found)
0x00188241: ret  ;  (1 found)
0x00188327: ret  ;  (1 found)
0x00188335: ret  ;  (1 found)
0x00188363: ret  ;  (1 found)
0x00188422: ret  ;  (1 found)
0x00188463: ret  ;  (1 found)
0x00188673: ret  ;  (1 found)
0x00188741: ret  ;  (1 found)
0x00188755: ret  ;  (1 found)
0x00188835: ret  ;  (1 found)
0x00188844: ret  ;  (1 found)
0x00188870: ret  ;  (1 found)
0x00188b22: ret  ;  (1 found)
0x00188b47: ret  ;  (1 found)
0x00188b71: ret  ;  (1 found)
0x00188c35: ret  ;  (1 found)
0x00188c5c: ret  ;  (1 found)
0x00188c64: ret  ;  (1 found)
0x00188c6f: ret  ;  (1 found)
0x00188d25: ret  ;  (1 found)
0x00188d50: ret  ;  (1 found)
0x00188d73: ret  ;  (1 found)
0x00188e50: ret  ;  (1 found)
0x00188f44: ret  ;  (1 found)
0x00189078: ret  ;  (1 found)
0x00189122: ret  ;  (1 found)
0x00189138: ret  ;  (1 found)
0x00189258: ret  ;  (1 found)
0x00189352: ret  ;  (1 found)
0x00189449: ret  ;  (1 found)
0x00189525: ret  ;  (1 found)
0x00189565: ret  ;  (1 found)
0x00189627: ret  ;  (1 found)
0x0018963c: ret  ;  (1 found)
0x00189747: ret  ;  (1 found)
0x00189839: ret  ;  (1 found)
0x0018984f: ret  ;  (1 found)
0x0018994a: ret  ;  (1 found)
0x00189960: ret  ;  (1 found)
0x00189977: ret  ;  (1 found)
0x00189a40: ret  ;  (1 found)
0x00189b60: ret  ;  (1 found)
0x00189b75: ret  ;  (1 found)
0x00189c3c: ret  ;  (1 found)
0x00189c4b: ret  ;  (1 found)
0x00189c7e: ret  ;  (1 found)
0x00189d4c: ret  ;  (1 found)
0x00189d77: ret  ;  (1 found)
0x00189e63: ret  ;  (1 found)
0x00189f2e: ret  ;  (1 found)
0x00189f7f: ret  ;  (1 found)
0x00194269: ret  ;  (1 found)
0x00194345: ret  ;  (1 found)
0x0019435a: ret  ;  (1 found)
0x00194435: ret  ;  (1 found)
0x0019457c: ret  ;  (1 found)
0x00194855: ret  ;  (1 found)
0x00194a45: ret  ;  (1 found)
0x00194a59: ret  ;  (1 found)
0x00194b40: ret  ;  (1 found)
0x00194c4d: ret  ;  (1 found)
0x00195142: ret  ;  (1 found)
0x0019532c: ret  ;  (1 found)
0x00195350: ret  ;  (1 found)
0x00195379: ret  ;  (1 found)
0x00195554: ret  ;  (1 found)
0x00195741: ret  ;  (1 found)
0x0019576f: ret  ;  (1 found)
0x00195850: ret  ;  (1 found)
0x00195864: ret  ;  (1 found)
0x00195947: ret  ;  (1 found)
0x00195966: ret  ;  (1 found)
0x00195b4a: ret  ;  (1 found)
0x00195b58: ret  ;  (1 found)
0x00195b7d: ret  ;  (1 found)
0x00195c64: ret  ;  (1 found)
0x00195d2b: ret  ;  (1 found)
0x00195d5b: ret  ;  (1 found)
0x00195d7d: ret  ;  (1 found)
0x00195e33: ret  ;  (1 found)
0x00195e43: ret  ;  (1 found)
0x00195e77: ret  ;  (1 found)
0x00196038: ret  ;  (1 found)
0x0019614b: ret  ;  (1 found)
0x0019617b: ret  ;  (1 found)
0x0019622b: ret  ;  (1 found)
0x00196238: ret  ;  (1 found)
0x00196275: ret  ;  (1 found)
0x00196442: ret  ;  (1 found)
0x00196458: ret  ;  (1 found)
0x00196470: ret  ;  (1 found)
0x00196528: ret  ;  (1 found)
0x00196674: ret  ;  (1 found)
0x00196765: ret  ;  (1 found)
0x0019683d: ret  ;  (1 found)
0x0019686b: ret  ;  (1 found)
0x0019694b: ret  ;  (1 found)
0x00196a34: ret  ;  (1 found)
0x00196a39: ret  ;  (1 found)
0x00196a62: ret  ;  (1 found)
0x00196b48: ret  ;  (1 found)
0x00196d24: ret  ;  (1 found)
0x00196d4b: ret  ;  (1 found)
0x00196e43: ret  ;  (1 found)
0x00196e64: ret  ;  (1 found)
0x00196e6c: ret  ;  (1 found)
0x00196e75: ret  ;  (1 found)
0x00196f6b: ret  ;  (1 found)
0x0019703e: ret  ;  (1 found)
0x0019705f: ret  ;  (1 found)
0x0019712b: ret  ;  (1 found)
0x00197157: ret  ;  (1 found)
0x0019724f: ret  ;  (1 found)
0x00197353: ret  ;  (1 found)
0x00197432: ret  ;  (1 found)
0x00197436: ret  ;  (1 found)
0x00197445: ret  ;  (1 found)
0x00197462: ret  ;  (1 found)
0x0019752f: ret  ;  (1 found)
0x00197556: ret  ;  (1 found)
0x00197678: ret  ;  (1 found)
0x00197c40: ret  ;  (1 found)
0x00197c6a: ret  ;  (1 found)
0x00197d3a: ret  ;  (1 found)
0x00197d4f: ret  ;  (1 found)
0x00197e2a: ret  ;  (1 found)
0x00197e3e: ret  ;  (1 found)
0x00197f47: ret  ;  (1 found)
0x00197f7e: ret  ;  (1 found)
0x00198051: ret  ;  (1 found)
0x00198066: ret  ;  (1 found)
0x0019807d: ret  ;  (1 found)
0x00198125: ret  ;  (1 found)
0x0019814f: ret  ;  (1 found)
0x00198173: ret  ;  (1 found)
0x0019822d: ret  ;  (1 found)
0x00198266: ret  ;  (1 found)
0x00198333: ret  ;  (1 found)
0x00198436: ret  ;  (1 found)
0x0019846e: ret  ;  (1 found)
0x00198533: ret  ;  (1 found)
0x00198554: ret  ;  (1 found)
0x0019855b: ret  ;  (1 found)
0x0019873f: ret  ;  (1 found)
0x00198773: ret  ;  (1 found)
0x00198832: ret  ;  (1 found)
0x0019885b: ret  ;  (1 found)
0x00198948: ret  ;  (1 found)
0x00198a38: ret  ;  (1 found)
0x00198a5b: ret  ;  (1 found)
0x00198b31: ret  ;  (1 found)
0x00198b63: ret  ;  (1 found)
0x00198c28: ret  ;  (1 found)
0x00198c4b: ret  ;  (1 found)
0x00198c4f: ret  ;  (1 found)
0x00198d6a: ret  ;  (1 found)
0x00198e5b: ret  ;  (1 found)
0x00198f3c: ret  ;  (1 found)
0x00199032: ret  ;  (1 found)
0x00199046: ret  ;  (1 found)
0x00199254: ret  ;  (1 found)
0x00199270: ret  ;  (1 found)
0x0019936f: ret  ;  (1 found)
0x0019943d: ret  ;  (1 found)
0x00199451: ret  ;  (1 found)
0x00199758: ret  ;  (1 found)
0x0019975d: ret  ;  (1 found)
0x00199823: ret  ;  (1 found)
0x00199c35: ret  ;  (1 found)
0x00199c70: ret  ;  (1 found)
0x00199d34: ret  ;  (1 found)
0x00199d57: ret  ;  (1 found)
0x00199e33: ret  ;  (1 found)
0x00199f24: ret  ;  (1 found)
0x00199f4b: ret  ;  (1 found)
0x00199f7e: ret  ;  (1 found)
0x00019261: retn 0x0000 ;  (1 found)
0x00027d3b: retn 0x0000 ;  (1 found)
0x0005405e: retn 0x0000 ;  (1 found)
0x00064565: retn 0x0000 ;  (1 found)
0x00065f71: retn 0x0000 ;  (1 found)
0x000b7742: retn 0x0000 ;  (1 found)
0x00149148: retn 0x0000 ;  (1 found)
0x0016885d: retn 0x0000 ;  (1 found)
0x00168865: retn 0x0000 ;  (1 found)
0x0016886d: retn 0x0000 ;  (1 found)
0x00168875: retn 0x0000 ;  (1 found)
0x0016887d: retn 0x0000 ;  (1 found)
0x00138066: retn 0x0001 ;  (1 found)
0x00036332: retn 0x0002 ;  (1 found)
0x000d577b: retn 0x0002 ;  (1 found)
0x0013807c: retn 0x0002 ;  (1 found)
0x00055d22: retn 0x0003 ;  (1 found)
0x000c8b4e: retn 0x0003 ;  (1 found)
0x00017160: retn 0x0004 ;  (1 found)
0x00027a22: retn 0x0004 ;  (1 found)
0x00028f4b: retn 0x0004 ;  (1 found)
0x00039046: retn 0x0004 ;  (1 found)
0x000e7538: retn 0x0004 ;  (1 found)
0x000e7559: retn 0x0004 ;  (1 found)
0x00127564: retn 0x0004 ;  (1 found)
0x00009559: retn 0x0007 ;  (1 found)
0x00126d57: retn 0x0007 ;  (1 found)
0x00027c26: retn 0x0008 ;  (1 found)
0x000a692a: retn 0x0008 ;  (1 found)
0x000d9c69: retn 0x0008 ;  (1 found)
0x000f564a: retn 0x0008 ;  (1 found)
0x0012714c: retn 0x0008 ;  (1 found)
0x00106d43: retn 0x0009 ;  (1 found)
0x000a674a: retn 0x000A ;  (1 found)
0x000f6d4f: retn 0x000A ;  (1 found)
0x000a662a: retn 0x000B ;  (1 found)
0x000e6d2a: retn 0x000B ;  (1 found)
0x000e6d63: retn 0x000B ;  (1 found)
0x00056f7d: retn 0x000D ;  (1 found)
0x00017e7a: retn 0x0010 ;  (1 found)
0x000a8545: retn 0x0010 ;  (1 found)
0x00005379: retn 0x0012 ;  (1 found)
0x000d9f44: retn 0x0014 ;  (1 found)
0x0008664a: retn 0x0015 ;  (1 found)
0x00026d78: retn 0x0017 ;  (1 found)
0x00009444: retn 0x0038 ;  (1 found)
0x000d486a: retn 0x003D ;  (1 found)
0x00004234: retn 0x0052 ;  (1 found)
0x0002607e: retn 0x0100 ;  (1 found)
0x00025330: retn 0x0101 ;  (1 found)
0x0001806b: retn 0x0108 ;  (1 found)
0x0013447e: retn 0x0110 ;  (1 found)
0x00138362: retn 0x0110 ;  (1 found)
0x0013846c: retn 0x0110 ;  (1 found)
0x00139342: retn 0x0110 ;  (1 found)
0x0013944c: retn 0x0110 ;  (1 found)
0x000e6162: retn 0x0180 ;  (1 found)
0x000a8538: retn 0x018B ;  (1 found)
0x000a7f38: retn 0x01B8 ;  (1 found)
0x00095079: retn 0x0275 ;  (1 found)
0x00099961: retn 0x048B ;  (1 found)
0x000a5423: retn 0x048B ;  (1 found)
0x000a7f51: retn 0x048D ;  (1 found)
0x000f7729: retn 0x048D ;  (1 found)
0x00038a64: retn 0x0689 ;  (1 found)
0x000d9a6c: retn 0x0689 ;  (1 found)
0x00066b74: retn 0x068B ;  (1 found)
0x00066d4c: retn 0x068B ;  (1 found)
0x000a563f: retn 0x068B ;  (1 found)
0x000a796b: retn 0x076C ;  (1 found)
0x000d9d66: retn 0x078B ;  (1 found)
0x00018750: retn 0x0904 ;  (1 found)
0x000f7a55: retn 0x0A7D ;  (1 found)
0x00195373: retn 0x0C0E ;  (1 found)
0x00096c2d: retn 0x0C74 ;  (1 found)
0x00096e27: retn 0x0C74 ;  (1 found)
0x000d8849: retn 0x0CB8 ;  (1 found)
0x00189a39: retn 0x0E0A ;  (1 found)
0x00069533: retn 0x0E75 ;  (1 found)
0x00148562: retn 0x0F00 ;  (1 found)
0x00034679: retn 0x0F01 ;  (1 found)
0x00035361: retn 0x0F01 ;  (1 found)
0x000a8b36: retn 0x0F01 ;  (1 found)
0x000c6049: retn 0x0F01 ;  (1 found)
0x000c6e29: retn 0x0F01 ;  (1 found)
0x000e907d: retn 0x0F01 ;  (1 found)
0x000e9127: retn 0x0F01 ;  (1 found)
0x000e9269: retn 0x0F01 ;  (1 found)
0x00148f2e: retn 0x0F01 ;  (1 found)
0x00148e24: retn 0x0F02 ;  (1 found)
0x00148f37: retn 0x0F02 ;  (1 found)
0x00148e2d: retn 0x0F04 ;  (1 found)
0x00148f40: retn 0x0F04 ;  (1 found)
0x00148642: retn 0x0F08 ;  (1 found)
0x0014866c: retn 0x0F0C ;  (1 found)
0x00149979: retn 0x0F0F ;  (1 found)
0x00147243: retn 0x0F10 ;  (1 found)
0x00148e41: retn 0x0F10 ;  (1 found)
0x00148f61: retn 0x0F10 ;  (1 found)
0x00147254: retn 0x0F20 ;  (1 found)
0x00148e4a: retn 0x0F20 ;  (1 found)
0x00148f6a: retn 0x0F20 ;  (1 found)
0x00147265: retn 0x0F40 ;  (1 found)
0x00148e53: retn 0x0F40 ;  (1 found)
0x00148f73: retn 0x0F40 ;  (1 found)
0x00084273: retn 0x0F66 ;  (1 found)
0x0008435b: retn 0x0F66 ;  (1 found)
0x0008484b: retn 0x0F66 ;  (1 found)
0x0008497b: retn 0x0F66 ;  (1 found)
0x00084e3b: retn 0x0F66 ;  (1 found)
0x00084f6b: retn 0x0F66 ;  (1 found)
0x0008542b: retn 0x0F66 ;  (1 found)
0x00085b2c: retn 0x0F66 ;  (1 found)
0x00085c3b: retn 0x0F66 ;  (1 found)
0x0008634b: retn 0x0F66 ;  (1 found)
0x0008676b: retn 0x0F66 ;  (1 found)
0x00086a2b: retn 0x0F66 ;  (1 found)
0x00086e4b: retn 0x0F66 ;  (1 found)
0x00088633: retn 0x0F66 ;  (1 found)
0x0008885b: retn 0x0F66 ;  (1 found)
0x00088d3b: retn 0x0F66 ;  (1 found)
0x00088e6b: retn 0x0F66 ;  (1 found)
0x0008932b: retn 0x0F66 ;  (1 found)
0x0008945b: retn 0x0F66 ;  (1 found)
0x00089e78: retn 0x0F66 ;  (1 found)
0x00094577: retn 0x0F66 ;  (1 found)
0x000a6876: retn 0x0F66 ;  (1 found)
0x000a6c38: retn 0x0F66 ;  (1 found)
0x000a6c67: retn 0x0F66 ;  (1 found)
0x00149d73: retn 0x0F66 ;  (1 found)
0x00109c2b: retn 0x1079 ;  (1 found)
0x00054f30: retn 0x1174 ;  (1 found)
0x000a544d: retn 0x1375 ;  (1 found)
0x00068e34: retn 0x13A1 ;  (1 found)
0x000a5034: retn 0x1403 ;  (1 found)
0x000f7a77: retn 0x1474 ;  (1 found)
0x00054b34: retn 0x14E4 ;  (1 found)
0x00127c78: retn 0x1574 ;  (1 found)
0x00045368: retn 0x16EB ;  (1 found)
0x00038350: retn 0x18E9 ;  (1 found)
0x00056a71: retn 0x1974 ;  (1 found)
0x0005972b: retn 0x1C77 ;  (1 found)
0x0009505e: retn 0x1D75 ;  (1 found)
0x00136b6e: retn 0x1E72 ;  (1 found)
0x000f7a63: retn 0x1E7E ;  (1 found)
0x0014993e: retn 0x1F75 ;  (1 found)
0x000d9520: retn 0x2574 ;  (1 found)
0x00095877: retn 0x267C ;  (1 found)
0x0008453a: retn 0x280F ;  (1 found)
0x0008467a: retn 0x280F ;  (1 found)
0x00084b4a: retn 0x280F ;  (1 found)
0x00084c7a: retn 0x280F ;  (1 found)
0x0008513a: retn 0x280F ;  (1 found)
0x0008526a: retn 0x280F ;  (1 found)
0x00088a3a: retn 0x280F ;  (1 found)
0x00088b7a: retn 0x280F ;  (1 found)
0x0008903a: retn 0x280F ;  (1 found)
0x0008916a: retn 0x280F ;  (1 found)
0x0008962a: retn 0x280F ;  (1 found)
0x0008975a: retn 0x280F ;  (1 found)
0x00149f74: retn 0x280F ;  (1 found)
0x00094826: retn 0x2910 ;  (1 found)
0x00095638: retn 0x2910 ;  (1 found)
0x00045241: retn 0x29EB ;  (1 found)
0x00097c52: retn 0x2A76 ;  (1 found)
0x000a8c37: retn 0x2B3C ;  (1 found)
0x000a8d5e: retn 0x2B3C ;  (1 found)
0x00045865: retn 0x3274 ;  (1 found)
0x00017f26: retn 0x348D ;  (1 found)
0x00107156: retn 0x3574 ;  (1 found)
0x00095867: retn 0x367C ;  (1 found)
0x00107f66: retn 0x3775 ;  (1 found)
0x00108336: retn 0x3775 ;  (1 found)
0x00095043: retn 0x3875 ;  (1 found)
0x0003476e: retn 0x3901 ;  (1 found)
0x00035477: retn 0x3901 ;  (1 found)
0x00095e66: retn 0x3901 ;  (1 found)
0x00097b36: retn 0x3901 ;  (1 found)
0x000a516b: retn 0x3901 ;  (1 found)
0x000a544a: retn 0x3901 ;  (1 found)
0x000f697f: retn 0x3901 ;  (1 found)
0x000f6a6c: retn 0x3901 ;  (1 found)
0x00095d39: retn 0x3904 ;  (1 found)
0x000a725b: retn 0x3904 ;  (1 found)
0x000e5a3e: retn 0x3904 ;  (1 found)
0x00025723: retn 0x3910 ;  (1 found)
0x00057b6b: retn 0x3A74 ;  (1 found)
0x00149923: retn 0x3A75 ;  (1 found)
0x00024b2b: retn 0x3B01 ;  (1 found)
0x00034539: retn 0x3B01 ;  (1 found)
0x00034a5d: retn 0x3B01 ;  (1 found)
0x00035928: retn 0x3B01 ;  (1 found)
0x00057e70: retn 0x3B01 ;  (1 found)
0x00075750: retn 0x3B30 ;  (1 found)
0x00028343: retn 0x3C01 ;  (1 found)
0x000a8876: retn 0x3C8D ;  (1 found)
0x00105f7e: retn 0x4075 ;  (1 found)
0x00027d40: retn 0x408B ;  (1 found)
0x0002952c: retn 0x40C7 ;  (1 found)
0x0011423a: retn 0x4375 ;  (1 found)
0x00077929: retn 0x440B ;  (1 found)
0x00037a7f: retn 0x4489 ;  (1 found)
0x00055249: retn 0x4489 ;  (1 found)
0x00098964: retn 0x4489 ;  (1 found)
0x000f4342: retn 0x4489 ;  (1 found)
0x000f624c: retn 0x4489 ;  (1 found)
0x00034f3b: retn 0x448B ;  (1 found)
0x00037c2c: retn 0x448B ;  (1 found)
0x00084029: retn 0x448B ;  (1 found)
0x000c6c33: retn 0x448B ;  (1 found)
0x000d466c: retn 0x448B ;  (1 found)
0x000d4d6b: retn 0x448B ;  (1 found)
0x000d5423: retn 0x448B ;  (1 found)
0x000d5859: retn 0x448B ;  (1 found)
0x000d5a21: retn 0x448B ;  (1 found)
0x00127d21: retn 0x448B ;  (1 found)
0x00109953: retn 0x448D ;  (1 found)
0x00036265: retn 0x44C7 ;  (1 found)
0x00037269: retn 0x44C7 ;  (1 found)
0x000f632c: retn 0x44F6 ;  (1 found)
0x00044a35: retn 0x4574 ;  (1 found)
0x0004972d: retn 0x4589 ;  (1 found)
0x00064131: retn 0x4589 ;  (1 found)
0x00049d34: retn 0x458B ;  (1 found)
0x00054171: retn 0x4674 ;  (1 found)
0x00114852: retn 0x4689 ;  (1 found)
0x00056a66: retn 0x478B ;  (1 found)
0x000d6554: retn 0x478B ;  (1 found)
0x000e6b42: retn 0x4B74 ;  (1 found)
0x00097521: retn 0x4C77 ;  (1 found)
0x00019d2c: retn 0x4C89 ;  (1 found)
0x00074346: retn 0x528B ;  (1 found)
0x0008437e: retn 0x528D ;  (1 found)
0x00084627: retn 0x528D ;  (1 found)
0x0008464d: retn 0x528D ;  (1 found)
0x0008473e: retn 0x528D ;  (1 found)
0x00084767: retn 0x528D ;  (1 found)
0x0008486e: retn 0x528D ;  (1 found)
0x00084c27: retn 0x528D ;  (1 found)
0x00084c4d: retn 0x528D ;  (1 found)
0x00084d2e: retn 0x528D ;  (1 found)
0x00084d57: retn 0x528D ;  (1 found)
0x00084d7d: retn 0x528D ;  (1 found)
0x00084e5e: retn 0x528D ;  (1 found)
0x0008523d: retn 0x528D ;  (1 found)
0x00085347: retn 0x528D ;  (1 found)
0x0008536d: retn 0x528D ;  (1 found)
0x0008544e: retn 0x528D ;  (1 found)
0x00085477: retn 0x528D ;  (1 found)
0x00085c67: retn 0x528D ;  (1 found)
0x00085e38: retn 0x528D ;  (1 found)
0x00085f47: retn 0x528D ;  (1 found)
0x00085f79: retn 0x528D ;  (1 found)
0x00086249: retn 0x528D ;  (1 found)
0x00086278: retn 0x528D ;  (1 found)
0x00086377: retn 0x528D ;  (1 found)
0x00086538: retn 0x528D ;  (1 found)
0x00086637: retn 0x528D ;  (1 found)
0x00086669: retn 0x528D ;  (1 found)
0x00086929: retn 0x528D ;  (1 found)
0x00086958: retn 0x528D ;  (1 found)
0x00086a57: retn 0x528D ;  (1 found)
0x00086d49: retn 0x528D ;  (1 found)
0x00086d78: retn 0x528D ;  (1 found)
0x00086e77: retn 0x528D ;  (1 found)
0x00087038: retn 0x528D ;  (1 found)
0x0008873e: retn 0x528D ;  (1 found)
0x00088767: retn 0x528D ;  (1 found)
0x0008887e: retn 0x528D ;  (1 found)
0x00088b27: retn 0x528D ;  (1 found)
0x00088b4d: retn 0x528D ;  (1 found)
0x00088c2e: retn 0x528D ;  (1 found)
0x00088c57: retn 0x528D ;  (1 found)
0x00088c7d: retn 0x528D ;  (1 found)
0x00088d5e: retn 0x528D ;  (1 found)
0x0008913d: retn 0x528D ;  (1 found)
0x00089247: retn 0x528D ;  (1 found)
0x0008926d: retn 0x528D ;  (1 found)
0x0008934e: retn 0x528D ;  (1 found)
0x00089377: retn 0x528D ;  (1 found)
0x0008947e: retn 0x528D ;  (1 found)
0x0008972d: retn 0x528D ;  (1 found)
0x00089837: retn 0x528D ;  (1 found)
0x0008985d: retn 0x528D ;  (1 found)
0x00149f21: retn 0x528D ;  (1 found)
0x00149f47: retn 0x528D ;  (1 found)
0x00095028: retn 0x5375 ;  (1 found)
0x000e4069: retn 0x5403 ;  (1 found)
0x0003487d: retn 0x542B ;  (1 found)
0x00074245: retn 0x5488 ;  (1 found)
0x00034f61: retn 0x5489 ;  (1 found)
0x00096227: retn 0x5489 ;  (1 found)
0x00119e74: retn 0x5489 ;  (1 found)
0x0006527b: retn 0x548D ;  (1 found)
0x000a7671: retn 0x5589 ;  (1 found)
0x000c8521: retn 0x5589 ;  (1 found)
0x00069576: retn 0x562B ;  (1 found)
0x0007454f: retn 0x5675 ;  (1 found)
0x0011426b: retn 0x5689 ;  (1 found)
0x000f976c: retn 0x568D ;  (1 found)
0x00085b7a: retn 0x5C8D ;  (1 found)
0x00089f5a: retn 0x5C8D ;  (1 found)
0x0014572c: retn 0x5D5E ;  (1 found)
0x00038b57: retn 0x62E9 ;  (1 found)
0x00054240: retn 0x6974 ;  (1 found)
0x00019c6a: retn 0x6C89 ;  (1 found)
0x000f887a: retn 0x7410 ;  (1 found)
0x00064c59: retn 0x7420 ;  (1 found)
0x000e5a6e: retn 0x7420 ;  (1 found)
0x000e4973: retn 0x7440 ;  (1 found)
0x00097b73: retn 0x748D ;  (1 found)
0x000e963b: retn 0x748D ;  (1 found)
0x00038a47: retn 0x7501 ;  (1 found)
0x0014685f: retn 0x7501 ;  (1 found)
0x00147052: retn 0x7501 ;  (1 found)
0x00146864: retn 0x7502 ;  (1 found)
0x00147057: retn 0x7502 ;  (1 found)
0x000d7e6d: retn 0x7504 ;  (1 found)
0x00146869: retn 0x7504 ;  (1 found)
0x0014705c: retn 0x7504 ;  (1 found)
0x0014686e: retn 0x7508 ;  (1 found)
0x00146873: retn 0x7510 ;  (1 found)
0x00147071: retn 0x7510 ;  (1 found)
0x00146878: retn 0x7520 ;  (1 found)
0x00147076: retn 0x7520 ;  (1 found)
0x0014687d: retn 0x7540 ;  (1 found)
0x0014707b: retn 0x7540 ;  (1 found)
0x00148721: retn 0x7C0E ;  (1 found)
0x00148731: retn 0x7C0F ;  (1 found)
0x000a7b2a: retn 0x7C8B ;  (1 found)
0x000f7c5b: retn 0x7C8B ;  (1 found)
0x00059342: retn 0x7D77 ;  (1 found)
0x00115955: retn 0x8080 ;  (1 found)
0x0007515c: retn 0x8108 ;  (1 found)
0x00047031: retn 0x8120 ;  (1 found)
0x0004726c: retn 0x8120 ;  (1 found)
0x00127171: retn 0x828B ;  (1 found)
0x00045268: retn 0x8301 ;  (1 found)
0x0004537c: retn 0x8301 ;  (1 found)
0x00084051: retn 0x8301 ;  (1 found)
0x000a4135: retn 0x8301 ;  (1 found)
0x000c8143: retn 0x8302 ;  (1 found)
0x00118875: retn 0x8303 ;  (1 found)
0x00058043: retn 0x8304 ;  (1 found)
0x00098069: retn 0x8304 ;  (1 found)
0x000b407c: retn 0x8304 ;  (1 found)
0x000c7c6b: retn 0x8304 ;  (1 found)
0x00054533: retn 0x830F ;  (1 found)
0x0005736b: retn 0x830F ;  (1 found)
0x00097c67: retn 0x8310 ;  (1 found)
0x0009852e: retn 0x8310 ;  (1 found)
0x00139e50: retn 0x8310 ;  (1 found)
0x000f9338: retn 0x8318 ;  (1 found)
0x00017a7c: retn 0x831E ;  (1 found)
0x000a4d52: retn 0x831E ;  (1 found)
0x00134468: retn 0x8320 ;  (1 found)
0x0013456f: retn 0x8320 ;  (1 found)
0x00136d78: retn 0x8320 ;  (1 found)
0x00136e7f: retn 0x8320 ;  (1 found)
0x0013834c: retn 0x8320 ;  (1 found)
0x00138456: retn 0x8320 ;  (1 found)
0x0013932c: retn 0x8320 ;  (1 found)
0x00139436: retn 0x8320 ;  (1 found)
0x0012526d: retn 0x8328 ;  (1 found)
0x000d4853: retn 0x8340 ;  (1 found)
0x000d4a60: retn 0x8340 ;  (1 found)
0x000d5e76: retn 0x8340 ;  (1 found)
0x00134448: retn 0x8340 ;  (1 found)
0x0013454f: retn 0x8340 ;  (1 found)
0x00136d58: retn 0x8340 ;  (1 found)
0x00136e5f: retn 0x8340 ;  (1 found)
0x0013832c: retn 0x8340 ;  (1 found)
0x00138436: retn 0x8340 ;  (1 found)
0x00148261: retn 0x8340 ;  (1 found)
0x000d825d: retn 0x8365 ;  (1 found)
0x00109c3d: retn 0x8365 ;  (1 found)
0x00124a57: retn 0x8365 ;  (1 found)
0x000e9a69: retn 0x8389 ;  (1 found)
0x00056166: retn 0x838D ;  (1 found)
0x00017a69: retn 0x840F ;  (1 found)
0x00024670: retn 0x840F ;  (1 found)
0x00028234: retn 0x840F ;  (1 found)
0x00028250: retn 0x840F ;  (1 found)
0x0002924c: retn 0x840F ;  (1 found)
0x00044133: retn 0x840F ;  (1 found)
0x00044231: retn 0x840F ;  (1 found)
0x0004493d: retn 0x840F ;  (1 found)
0x00045f54: retn 0x840F ;  (1 found)
0x00046052: retn 0x840F ;  (1 found)
0x00059271: retn 0x840F ;  (1 found)
0x000a982b: retn 0x840F ;  (1 found)
0x000c6c4e: retn 0x840F ;  (1 found)
0x00127b59: retn 0x840F ;  (1 found)
0x00139361: retn 0x840F ;  (1 found)
0x00139e56: retn 0x840F ;  (1 found)
0x00035577: retn 0x843B ;  (1 found)
0x000d653f: retn 0x8488 ;  (1 found)
0x00038467: retn 0x848D ;  (1 found)
0x00065d43: retn 0x8501 ;  (1 found)
0x000a424d: retn 0x8501 ;  (1 found)
0x000c9644: retn 0x8501 ;  (1 found)
0x0009805e: retn 0x8504 ;  (1 found)
0x000d5b2e: retn 0x8504 ;  (1 found)
0x00078077: retn 0x850F ;  (1 found)
0x000a9f7b: retn 0x850F ;  (1 found)
0x000b9833: retn 0x850F ;  (1 found)
0x000c6c46: retn 0x850F ;  (1 found)
0x000e532d: retn 0x850F ;  (1 found)
0x00149875: retn 0x850F ;  (1 found)
0x00098036: retn 0x8510 ;  (1 found)
0x00095c34: retn 0x8540 ;  (1 found)
0x00058950: retn 0x8589 ;  (1 found)
0x0005987a: retn 0x8589 ;  (1 found)
0x00046537: retn 0x860F ;  (1 found)
0x0009533f: retn 0x860F ;  (1 found)
0x0004456e: retn 0x870F ;  (1 found)
0x0004457d: retn 0x870F ;  (1 found)
0x00044e2a: retn 0x870F ;  (1 found)
0x00044f20: retn 0x870F ;  (1 found)
0x0005684e: retn 0x870F ;  (1 found)
0x00056861: retn 0x870F ;  (1 found)
0x0005694c: retn 0x870F ;  (1 found)
0x0005695f: retn 0x870F ;  (1 found)
0x00059222: retn 0x870F ;  (1 found)
0x00158926: retn 0x871E ;  (1 found)
0x00024449: retn 0x8901 ;  (1 found)
0x0002486f: retn 0x8901 ;  (1 found)
0x00028c54: retn 0x8901 ;  (1 found)
0x00036028: retn 0x8901 ;  (1 found)
0x00038e48: retn 0x8901 ;  (1 found)
0x00047b2e: retn 0x8901 ;  (1 found)
0x0004855e: retn 0x8901 ;  (1 found)
0x00048958: retn 0x8901 ;  (1 found)
0x00049b7e: retn 0x8901 ;  (1 found)
0x00064159: retn 0x8901 ;  (1 found)
0x00096a26: retn 0x8901 ;  (1 found)
0x000a9b32: retn 0x8901 ;  (1 found)
0x000a9b63: retn 0x8901 ;  (1 found)
0x000b4f20: retn 0x8901 ;  (1 found)
0x000b7956: retn 0x8901 ;  (1 found)
0x000f7f68: retn 0x8901 ;  (1 found)
0x000f8b71: retn 0x8901 ;  (1 found)
0x00118436: retn 0x8901 ;  (1 found)
0x0011887e: retn 0x8901 ;  (1 found)
0x00118a26: retn 0x8901 ;  (1 found)
0x00046879: retn 0x8904 ;  (1 found)
0x00049a54: retn 0x8904 ;  (1 found)
0x00058a30: retn 0x8904 ;  (1 found)
0x00059b78: retn 0x8904 ;  (1 found)
0x00098546: retn 0x8904 ;  (1 found)
0x000b603b: retn 0x8909 ;  (1 found)
0x000b604f: retn 0x8909 ;  (1 found)
0x000b6075: retn 0x8909 ;  (1 found)
0x000b7425: retn 0x8909 ;  (1 found)
0x000b764b: retn 0x8909 ;  (1 found)
0x000b765f: retn 0x8909 ;  (1 found)
0x000f4b2f: retn 0x8909 ;  (1 found)
0x000f4b55: retn 0x8909 ;  (1 found)
0x0010632b: retn 0x8909 ;  (1 found)
0x0010634c: retn 0x8909 ;  (1 found)
0x0010752f: retn 0x8909 ;  (1 found)
0x00107555: retn 0x8909 ;  (1 found)
0x00108e5b: retn 0x8909 ;  (1 found)
0x00108e6f: retn 0x8909 ;  (1 found)
0x0010903b: retn 0x8909 ;  (1 found)
0x0010904f: retn 0x8909 ;  (1 found)
0x00109075: retn 0x8909 ;  (1 found)
0x00109830: retn 0x8909 ;  (1 found)
0x0013573c: retn 0x8910 ;  (1 found)
0x0013916c: retn 0x8910 ;  (1 found)
0x000d442f: retn 0x8940 ;  (1 found)
0x000a565d: retn 0x895E ;  (1 found)
0x00055534: retn 0x8965 ;  (1 found)
0x000b7d61: retn 0x8965 ;  (1 found)
0x000b824d: retn 0x8965 ;  (1 found)
0x000c5424: retn 0x8965 ;  (1 found)
0x000c5466: retn 0x8965 ;  (1 found)
0x000c5520: retn 0x8965 ;  (1 found)
0x000c5560: retn 0x8965 ;  (1 found)
0x000e4f48: retn 0x8965 ;  (1 found)
0x000e6d36: retn 0x8965 ;  (1 found)
0x000e7d74: retn 0x8965 ;  (1 found)
0x000e7e44: retn 0x8965 ;  (1 found)
0x000e8040: retn 0x8965 ;  (1 found)
0x000e8128: retn 0x8965 ;  (1 found)
0x000e8520: retn 0x8965 ;  (1 found)
0x00124248: retn 0x8965 ;  (1 found)
0x000d5045: retn 0x8B01 ;  (1 found)
0x0009816d: retn 0x8B04 ;  (1 found)
0x000e7265: retn 0x8B08 ;  (1 found)
0x000d6947: retn 0x8D01 ;  (1 found)
0x000d8828: retn 0x8D01 ;  (1 found)
0x0010523a: retn 0x8D01 ;  (1 found)
0x00118847: retn 0x8D04 ;  (1 found)
0x00095b31: retn 0x8D10 ;  (1 found)
0x000c8221: retn 0x8D89 ;  (1 found)
0x000b9947: retn 0x8DC3 ;  (1 found)
0x000f7237: retn 0x8DC3 ;  (1 found)
0x0009563d: retn 0x9066 ;  (1 found)
0x000a7b45: retn 0x90C3 ;  (1 found)
0x00074361: retn 0x933B ;  (1 found)
0x000a9a2f: retn 0x9389 ;  (1 found)
0x00149959: retn 0x9474 ;  (1 found)
0x000b5b76: retn 0x95EB ;  (1 found)
0x00074d7b: retn 0x9F74 ;  (1 found)
0x000f945b: retn 0xA274 ;  (1 found)
0x000c8d7d: retn 0xA5E9 ;  (1 found)
0x000a7928: retn 0xA5EB ;  (1 found)
0x000e6556: retn 0xAC75 ;  (1 found)
0x000d9837: retn 0xACE9 ;  (1 found)
0x000a7a30: retn 0xB48D ;  (1 found)
0x00035c23: retn 0xB60F ;  (1 found)
0x0007646e: retn 0xB60F ;  (1 found)
0x000c6f79: retn 0xB60F ;  (1 found)
0x000e997f: retn 0xB60F ;  (1 found)
0x00117c6a: retn 0xB60F ;  (1 found)
0x00117c7d: retn 0xB60F ;  (1 found)
0x000a7e71: retn 0xB801 ;  (1 found)
0x00117e46: retn 0xBC80 ;  (1 found)
0x00018f7b: retn 0xBD80 ;  (1 found)
0x0004662c: retn 0xBD89 ;  (1 found)
0x000e8d6f: retn 0xBE0F ;  (1 found)
0x000e8e4f: retn 0xBE0F ;  (1 found)
0x00019549: retn 0xC031 ;  (1 found)
0x000e9d67: retn 0xC031 ;  (1 found)
0x00114139: retn 0xC031 ;  (1 found)
0x00114168: retn 0xC031 ;  (1 found)
0x0011444b: retn 0xC031 ;  (1 found)
0x00096b3a: retn 0xC083 ;  (1 found)
0x0009566a: retn 0xC085 ;  (1 found)
0x0009574a: retn 0xC085 ;  (1 found)
0x00095777: retn 0xC085 ;  (1 found)
0x00095b60: retn 0xC085 ;  (1 found)
0x00095c48: retn 0xC085 ;  (1 found)
0x00147c48: retn 0xC085 ;  (1 found)
0x00148169: retn 0xC085 ;  (1 found)
0x0008866f: retn 0xC0BE ;  (1 found)
0x00097c78: retn 0xC101 ;  (1 found)
0x00037f6f: retn 0xC102 ;  (1 found)
0x00049767: retn 0xC183 ;  (1 found)
0x00096a24: retn 0xC283 ;  (1 found)
0x00085e6e: retn 0xC301 ;  (1 found)
0x0008614e: retn 0xC301 ;  (1 found)
0x0008656e: retn 0xC301 ;  (1 found)
0x0008682e: retn 0xC301 ;  (1 found)
0x00086c4e: retn 0xC301 ;  (1 found)
0x0008706e: retn 0xC301 ;  (1 found)
0x000d8745: retn 0xC374 ;  (1 found)
0x00118a5d: retn 0xC481 ;  (1 found)
0x0009682e: retn 0xC483 ;  (1 found)
0x000a7e61: retn 0xC483 ;  (1 found)
0x000c5c6e: retn 0xC483 ;  (1 found)
0x00157a62: retn 0xC4C3 ;  (1 found)
0x00019a32: retn 0xC589 ;  (1 found)
0x000a8d3b: retn 0xC601 ;  (1 found)
0x000d8e7f: retn 0xC689 ;  (1 found)
0x00117833: retn 0xC707 ;  (1 found)
0x00124539: retn 0xC709 ;  (1 found)
0x00029535: retn 0xC740 ;  (1 found)
0x000c7461: retn 0xC740 ;  (1 found)
0x00078577: retn 0xC883 ;  (1 found)
0x000b9e4d: retn 0xCB87 ;  (1 found)
0x000e8428: retn 0xCB87 ;  (1 found)
0x00075659: retn 0xCC75 ;  (1 found)
0x0015934a: retn 0xCCA7 ;  (1 found)
0x000a5656: retn 0xCF74 ;  (1 found)
0x00029a2b: retn 0xD001 ;  (1 found)
0x000b984f: retn 0xD028 ;  (1 found)
0x000a4c65: retn 0xD029 ;  (1 found)
0x00054e43: retn 0xD089 ;  (1 found)
0x00098569: retn 0xD089 ;  (1 found)
0x00114e4a: retn 0xD089 ;  (1 found)
0x00114f2a: retn 0xD089 ;  (1 found)
0x000a8157: retn 0xD138 ;  (1 found)
0x00044628: retn 0xD285 ;  (1 found)
0x00075631: retn 0xD285 ;  (1 found)
0x0010556e: retn 0xD285 ;  (1 found)
0x00105d3e: retn 0xD285 ;  (1 found)
0x00107022: retn 0xD285 ;  (1 found)
0x000a5d63: retn 0xD589 ;  (1 found)
0x00049051: retn 0xD689 ;  (1 found)
0x000e5469: retn 0xD689 ;  (1 found)
0x000e5539: retn 0xD689 ;  (1 found)
0x000e5569: retn 0xD689 ;  (1 found)
0x0011465e: retn 0xD739 ;  (1 found)
0x000d6966: retn 0xD772 ;  (1 found)
0x00027928: retn 0xD789 ;  (1 found)
0x00027944: retn 0xD789 ;  (1 found)
0x00027960: retn 0xD789 ;  (1 found)
0x00036f40: retn 0xD789 ;  (1 found)
0x00039d70: retn 0xD789 ;  (1 found)
0x0009703f: retn 0xD789 ;  (1 found)
0x00059864: retn 0xDAF7 ;  (1 found)
0x00064946: retn 0xDEEB ;  (1 found)
0x000d6f3f: retn 0xE083 ;  (1 found)
0x0010506c: retn 0xE181 ;  (1 found)
0x00148231: retn 0xE280 ;  (1 found)
0x0014835c: retn 0xE280 ;  (1 found)
0x000d5269: retn 0xE281 ;  (1 found)
0x00115946: retn 0xE281 ;  (1 found)
0x00017572: retn 0xE283 ;  (1 found)
0x00079321: retn 0xE283 ;  (1 found)
0x000b4633: retn 0xE283 ;  (1 found)
0x0011846d: retn 0xE883 ;  (1 found)
0x0002847b: retn 0xE901 ;  (1 found)
0x000e8b75: retn 0xE901 ;  (1 found)
0x000c8d55: retn 0xE902 ;  (1 found)
0x00115846: retn 0xE904 ;  (1 found)
0x0002853a: retn 0xE90A ;  (1 found)
0x00159427: retn 0xE970 ;  (1 found)
0x00117d69: retn 0xE9C1 ;  (1 found)
0x00114531: retn 0xEA83 ;  (1 found)
0x0001914f: retn 0xEAC1 ;  (1 found)
0x00059859: retn 0xEAC1 ;  (1 found)
0x00079f4a: retn 0xEAC1 ;  (1 found)
0x000a7720: retn 0xEAC1 ;  (1 found)
0x000f9761: retn 0xEAC1 ;  (1 found)
0x0010513b: retn 0xEAC1 ;  (1 found)
0x00105144: retn 0xEAC1 ;  (1 found)
0x000e8b31: retn 0xEB03 ;  (1 found)
0x000e8b69: retn 0xEB03 ;  (1 found)
0x000c5e66: retn 0xEB18 ;  (1 found)
0x00126f41: retn 0xEBEB ;  (1 found)
0x000a8852: retn 0xED85 ;  (1 found)
0x00177468: retn 0xEF13 ;  (1 found)
0x00177c30: retn 0xEF21 ;  (1 found)
0x00046622: retn 0xEFC1 ;  (1 found)
0x000e5e55: retn 0xEFF0 ;  (1 found)
0x00025335: retn 0xF075 ;  (1 found)
0x000e546e: retn 0xF189 ;  (1 found)
0x000e553e: retn 0xF189 ;  (1 found)
0x000e556e: retn 0xF189 ;  (1 found)
0x000d7777: retn 0xF302 ;  (1 found)
0x000c5c2b: retn 0xF304 ;  (1 found)
0x000f7530: retn 0xF618 ;  (1 found)
0x000f8322: retn 0xF631 ;  (1 found)
0x000f7a5f: retn 0xF67C ;  (1 found)
0x0009933b: retn 0xF883 ;  (1 found)
0x000d982c: retn 0xF883 ;  (1 found)
0x000e4020: retn 0xF889 ;  (1 found)
0x0007854b: retn 0xF9B8 ;  (1 found)
0x000d644b: retn 0xFA73 ;  (1 found)
0x0007867f: retn 0xFAB8 ;  (1 found)
0x0003562b: retn 0xFAC1 ;  (1 found)
0x00048a6a: retn 0xFAC1 ;  (1 found)
0x00059c2a: retn 0xFAC1 ;  (1 found)
0x00068671: retn 0xFAC1 ;  (1 found)
0x00069741: retn 0xFAC1 ;  (1 found)
0x000a803c: retn 0xFAC1 ;  (1 found)
0x000d5961: retn 0xFAC1 ;  (1 found)
0x00129e3e: retn 0xFAC1 ;  (1 found)
0x00055e5a: retn 0xFBD2 ;  (1 found)
0x00166038: retn 0xFCD1 ;  (1 found)
0x00167168: retn 0xFD2C ;  (1 found)
0x00167260: retn 0xFD2D ;  (1 found)
0x00167324: retn 0xFD3A ;  (1 found)
0x00167470: retn 0xFD49 ;  (1 found)
0x0016746c: retn 0xFD4B ;  (1 found)
0x00167764: retn 0xFD5C ;  (1 found)
0x00149a7a: retn 0xFE89 ;  (1 found)
0x00107e6a: retn 0xFF7F ;  (1 found)
0x00097c7e: retn 0xFF85 ;  (1 found)
0x000b6a3b: retn 0xFFB8 ;  (1 found)
0x000e6865: retn 0xFFB8 ;  (1 found)
0x000e6937: retn 0xFFB8 ;  (1 found)
0x000e6a4f: retn 0xFFB8 ;  (1 found)
0x00044a79: retn 0xFFDF ;  (1 found)
0x00176530: retn 0xFFEE ;  (1 found)
0x0017664a: retn 0xFFEE ;  (1 found)
0x00185368: retn 0xFFF1 ;  (1 found)
0x00185428: retn 0xFFF1 ;  (1 found)
0x00037157: retn 0xFFF2 ;  (1 found)
0x00096823: retn 0xFFF8 ;  (1 found)
0x00054350: retn 0xFFFA ;  (1 found)
0x0001965e: retn 0xFFFB ;  (1 found)
0x00046a2f: retn 0xFFFB ;  (1 found)
0x000b9761: retn 0xFFFB ;  (1 found)
0x000c6650: retn 0xFFFB ;  (1 found)
0x000c773a: retn 0xFFFB ;  (1 found)
0x000c774b: retn 0xFFFB ;  (1 found)
0x000c8553: retn 0xFFFB ;  (1 found)
0x000c9d23: retn 0xFFFB ;  (1 found)
0x000c9e6f: retn 0xFFFB ;  (1 found)
0x000c9f6a: retn 0xFFFB ;  (1 found)
0x00105d5b: retn 0xFFFB ;  (1 found)
0x00105f6c: retn 0xFFFB ;  (1 found)
0x00056d51: retn 0xFFFC ;  (1 found)
0x0007907a: retn 0xFFFC ;  (1 found)
0x000f8759: retn 0xFFFD ;  (1 found)
0x00076c2d: retn 0xFFFE ;  (1 found)
0x000d912e: retn 0xFFFE ;  (1 found)
0x0004677c: retn 0xFFFF ;  (1 found)
0x0004735a: retn 0xFFFF ;  (1 found)
0x00079270: retn 0xFFFF ;  (1 found)
0x00017f20: rol byte [eax-0x6BF0A2C8], cl ; retn 0x348D ;  (1 found)
0x00168a6d: rol byte [eax], 1  ; add byte [ebp+edi-0x12], dh ; jmp dword [ecx+edx*8+0x00] ;  (1 found)
0x000b955f: rol byte [eax], cl ; add byte [eax], al ; call dword [0x00000010] ;  (1 found)
0x000e7b63: rol byte [eax], cl ; add byte [eax], al ; call dword [0x00000010] ;  (1 found)
0x00095c40: rol byte [ebp+0x663B75C0], 0x0000000F ; xlatb  ; retn 0xC085 ;  (1 found)
0x00098930: rol byte [ebp-0x3F6BF02E], 0xFFFFFFF3 ; ret  ;  (1 found)
0x00104f3b: rol byte [ebx+0x5E5B1CC4], 0x0000005F ; pop ebp ; ret  ;  (1 found)
0x000e9b69: rol byte [ebx+0x5E5B2CC4], 0x0000005F ; pop ebp ; ret  ;  (1 found)
0x00109a31: rol byte [ebx+0x5E5B5CC4], 0x0000005F ; pop ebp ; ret  ;  (1 found)
0x0011886e: rol byte [ebx-0x05D6FC26], 0xFFFFFF83 ; retn 0x8303 ;  (1 found)
0x00095862: rol byte [ebx-0x3DFEBF16], 0x0000007C ; add eax, ecx ; ret  ;  (1 found)
0x00095872: rol byte [ebx-0x3DFECF16], 0x0000007C ; lea eax, dword [ecx+eax+0x10] ; ret  ;  (1 found)
0x00114e7b: rol byte [ebx-0x49F0E33C], 0xFFFFFFC0 ; ret  ;  (1 found)
0x00148e36: rol byte [ebx], 0x0000005F ; ret  ;  (1 found)
0x000c567f: rol byte [ecx], 0x00000039 ; retn 0xF377 ;  (1 found)
0x000a5168: rol byte [ecx], 0xFFFFFF83 ; retn 0x3901 ;  (1 found)
0x000f697c: rol byte [ecx], 0xFFFFFF83 ; retn 0x3901 ;  (1 found)
0x00095822: rol byte [ecx], 0xFFFFFFC8 ; ret  ;  (1 found)
0x00176920: rol byte [ecx], 0xFFFFFFEF ; call dword [ebx] ;  (1 found)
0x00095127: rol byte [ecx], 0xFFFFFFF8 ; pop edi ; ret  ;  (1 found)
0x00095572: rol byte [ecx], 0xFFFFFFF8 ; pop edi ; ret  ;  (1 found)
0x00148e5c: rol byte [edi], 0x0000005F ; ret  ;  (1 found)
0x00166e34: rol byte [edx], 1  ; std  ; jmp dword [eax+0x03] ;  (1 found)
0x00166e50: rol byte [esi], 0xFFFFFFFD ; call dword [eax+0x07] ;  (1 found)
0x00157a60: rol cl, 0xFFFFFFC2 ; ret  ;  (1 found)
0x000d7772: rol cl, 0xFFFFFFE9 ; add dh, dh ; retn 0xF302 ;  (1 found)
0x000d857d: rol cl, 0xFFFFFFE9 ; add dh, dh ; retn 0xF302 ;  (1 found)
0x000d887d: rol cl, 0xFFFFFFE9 ; add dh, dh ; retn 0xF302 ;  (1 found)
0x00168855: rol dword [eax], 0x00000000 ; mov eax, dword [0x10FFED74] ; retn 0x0000 ;  (1 found)
0x0011886c: rol dword [eax], 1  ; rol byte [ebx-0x05D6FC26], 0xFFFFFF83 ; retn 0x8303 ;  (1 found)
0x000b9464: rol dword [eax], cl ; add byte [eax], al ; call dword [0x00000010] ;  (1 found)
0x00095551: rol dword [ebp+0x315A75C0], 0xFFFFFFC0 ; pop edi ; ret  ;  (1 found)
0x00024f4e: rol dword [edi+0x0006B8CB], 1  ; add byte [eax], al ; call dword [0x00000010] ;  (1 found)
0x0002946a: rol dword [edi+0x0006B8CB], 1  ; add byte [eax], al ; call dword [0x00000010] ;  (1 found)
0x000b912e: rol dword [edi+0x00D5B8CB], 1  ; add byte [eax], al ; call dword [0x00000010] ;  (1 found)
0x0015912a: rol dword [edi+0x42923BBD], 1  ; jmp dword [edx-0x71] ;  (1 found)
0x00105049: ror ax, 0x0008 ; ret  ;  (1 found)
0x00197650: ror bl, 0xFFFFFFF7 ; jmp dword [edx+0x00000000] ;  (1 found)
0x0014922d: ror byte [0xC083C35F], 0x0000000E ; pop edi ; ret  ;  (1 found)
0x00116b23: ror byte [eax], 0xFFFFFF89 ; add al, 0x24 ; call dword [esp+0x24] ;  (1 found)
0x000c7279: ror byte [ebp+0x5E5BF465], 0x0000005F ; pop ebp ; ret  ;  (1 found)
0x000a7268: ror byte [ebp+0x5EFF0044], 0x0000005F ; ret  ;  (1 found)
0x000a7533: ror byte [ebp+0x5EFF0044], 0x0000005F ; ret  ;  (1 found)
0x000a7551: ror byte [ebp+0x5EFF0044], 0x0000005F ; ret  ;  (1 found)
0x00038a41: ror byte [ebx-0x09E58AEA], cl ; retn 0x7501 ;  (1 found)
0x00149223: ror byte [ebx], 0x0000005F ; ret  ;  (1 found)
0x00074340: ror byte [ecx+0x291B75F2], cl ; retn 0x528B ;  (1 found)
0x00049566: ror byte [ecx-0x00009B43], cl ; dec dword [ecx-0x0000A34B] ; call dword [eax+0x0026748D] ;  (1 found)
0x000c7364: ror byte [ecx-0x77F04FAB], cl ; ret  ;  (1 found)
0x00176f20: ror byte [ecx], 0xFFFFFFEF ; jmp dword [ebx] ;  (1 found)
0x000f433f: ror byte [edi], 0x00000044 ; retn 0x4489 ;  (1 found)
0x00149237: ror byte [edi], 0x0000005F ; ret  ;  (1 found)
0x000c456d: ror byte [edi], 0xFFFFFF84 ; ret  ;  (1 found)
0x00117036: ror byte [edi], 0xFFFFFF84 ; ret  ;  (1 found)
0x000d5778: ror byte [edi], 0xFFFFFF85 ; retn 0x0002 ;  (1 found)
0x000b984c: ror byte [edi], 0xFFFFFF92 ; retn 0xD028 ;  (1 found)
0x000c8d7a: ror byte [edi], 0xFFFFFF94 ; retn 0xA5E9 ;  (1 found)
0x00119e71: ror byte [edi], 0xFFFFFF95 ; retn 0x5489 ;  (1 found)
0x000f7c58: ror byte [edi], 0xFFFFFF95 ; retn 0x7C8B ;  (1 found)
0x00114e47: ror byte [edi], 0xFFFFFF95 ; retn 0xD089 ;  (1 found)
0x00114f27: ror byte [edi], 0xFFFFFF95 ; retn 0xD089 ;  (1 found)
0x000a5d60: ror byte [edi], 0xFFFFFF95 ; retn 0xD589 ;  (1 found)
0x00027925: ror byte [edi], 0xFFFFFF95 ; retn 0xD789 ;  (1 found)
0x00099338: ror byte [edi], 0xFFFFFF95 ; retn 0xF883 ;  (1 found)
0x00114e78: ror byte [edi], 0xFFFFFF95 ; rol byte [ebx-0x49F0E33C], 0xFFFFFFC0 ; ret  ;  (1 found)
0x000d9829: ror byte [edi], 0xFFFFFF9E ; retn 0xF883 ;  (1 found)
0x000a7265: ror byte [edi], 0xFFFFFFB6 ; ror byte [ebp+0x5EFF0044], 0x0000005F ; ret  ;  (1 found)
0x000a7530: ror byte [edi], 0xFFFFFFB6 ; ror byte [ebp+0x5EFF0044], 0x0000005F ; ret  ;  (1 found)
0x000a754e: ror byte [edi], 0xFFFFFFB6 ; ror byte [ebp+0x5EFF0044], 0x0000005F ; ret  ;  (1 found)
0x0006412e: ror byte [edi], 1  ; inc edx ; retn 0x4589 ;  (1 found)
0x0005894d: ror byte [edi], cl ; dec ecx ; retn 0x8589 ;  (1 found)
0x00146857: ror byte [edi], cl ; test byte [edx-0x0A000000], ah ; retn 0x7501 ;  (1 found)
0x000a8154: ror byte [edi], cl ; xchg eax, ebp ; retn 0xD138 ;  (1 found)
0x00149232: ror byte [esi], 0x0000005F ; ret  ;  (1 found)
0x00147c41: ror dword [ebp+0x0F661049], 1  ; xlatb  ; retn 0xC085 ;  (1 found)
0x00029454: ror dword [ebx-0x0000F775], cl ; jmp dword [ebp-0x7D] ;  (1 found)
0x000e5e4d: ror dword [ebx], 1  ; add byte [ebx-0x08F7DBBC], cl ; retn 0xEFF0 ;  (1 found)
0x000e816c: ror dword [ecx+0x245C8BDA], 0x04 ; mov eax, 0x00000094 ; call dword [0x00000010] ;  (1 found)
0x000e5e7a: ror dword [ecx-0x3FCEF7B8], 1  ; pop ebx ; ret  ;  (1 found)
0x0010504a: ror eax, 0x08 ; ret  ;  (1 found)
0x00019528: ror eax, 0x09 ; xor eax, dword [0x00000018] ; call eax ;  (1 found)
0x0002402f: ror eax, 0x09 ; xor eax, dword [0x00000018] ; call eax ;  (1 found)
0x00024175: ror eax, 0x09 ; xor eax, dword [0x00000018] ; call eax ;  (1 found)
0x00024221: ror eax, 0x09 ; xor eax, dword [0x00000018] ; call eax ;  (1 found)
0x0002657c: ror eax, 0x09 ; xor eax, dword [0x00000018] ; call eax ;  (1 found)
0x0002674f: ror eax, 0x09 ; xor eax, dword [0x00000018] ; call eax ;  (1 found)
0x00026827: ror eax, 0x09 ; xor eax, dword [0x00000018] ; call eax ;  (1 found)
0x00026847: ror eax, 0x09 ; xor eax, dword [0x00000018] ; call eax ;  (1 found)
0x00027434: ror eax, 0x09 ; xor eax, dword [0x00000018] ; call eax ;  (1 found)
0x00027477: ror eax, 0x09 ; xor eax, dword [0x00000018] ; call eax ;  (1 found)
0x00027f56: ror eax, 0x09 ; xor eax, dword [0x00000018] ; call eax ;  (1 found)
0x00028947: ror eax, 0x09 ; xor eax, dword [0x00000018] ; call eax ;  (1 found)
0x00028970: ror eax, 0x09 ; xor eax, dword [0x00000018] ; call eax ;  (1 found)
0x00028b79: ror eax, 0x09 ; xor eax, dword [0x00000018] ; call eax ;  (1 found)
0x00028d32: ror eax, 0x09 ; xor eax, dword [0x00000018] ; call eax ;  (1 found)
0x00028f5f: ror eax, 0x09 ; xor eax, dword [0x00000018] ; call eax ;  (1 found)
0x00028f7f: ror eax, 0x09 ; xor eax, dword [0x00000018] ; call eax ;  (1 found)
0x00029121: ror eax, 0x09 ; xor eax, dword [0x00000018] ; call eax ;  (1 found)
0x00184856: sahf  ; int1  ; jmp dword [edx] ;  (1 found)
0x00184946: sahf  ; int1  ; jmp dword [edx] ;  (1 found)
0x00184976: sahf  ; int1  ; jmp dword [edx] ;  (1 found)
0x00026c58: sahf  ; ret  ;  (1 found)
0x000d982b: sahf  ; retn 0xF883 ;  (1 found)
0x00169b41: sal al, cl ; call dword [esi+eax*2] ;  (1 found)
0x00188131: sal bl, 1  ; call dword [eax+0x00] ;  (1 found)
0x00188155: sal bl, 1  ; call dword [eax+0x00] ;  (1 found)
0x00188179: sal bl, 1  ; call dword [eax+0x00] ;  (1 found)
0x000b903d: sal bl, 1  ; ret  ;  (1 found)
0x000b9559: sal byte [ebp+0x23], 0xFFFFFF87 ; fistp qword [eax+0x000000D2] ; call dword [0x00000010] ;  (1 found)
0x000e6d6d: sal byte [ebp+0x2B], 0xFFFFFF87 ; fistp qword [eax+0x00000091] ; call dword [0x00000010] ;  (1 found)
0x000e6e2d: sal byte [ebp+0x2B], 0xFFFFFF87 ; fistp qword [eax+0x00000092] ; call dword [0x00000010] ;  (1 found)
0x00087a51: sal byte [ebp+0x38], 0xFFFFFF83 ; ret  ;  (1 found)
0x00024445: sal byte [ebp-0x50], 0xFFFFFF83 ; retn 0x8901 ;  (1 found)
0x000e9921: sal byte [edx+eax-0x77], 0x00000010 ; rep ret  ;  (1 found)
0x000a8459: sal byte [edx+eax-0x77], cl ; add dh, bl ; ret  ;  (1 found)
0x00167370: sal byte [edx], 0xFFFFFFFD ; call dword [eax+0x33] ;  (1 found)
0x00186a40: sal dl, 0xFFFFFFF2 ; call ecx ;  (1 found)
0x00168868: sal dword [ebp+ebp*8-0x01], 0x70 ; retn 0x0000 ;  (1 found)
0x00187029: sal dword [edx-0x0E], cl ; jmp dword [edx] ;  (1 found)
0x000b9a66: sal ebx, 1  ; ret  ;  (1 found)
0x0019797d: sal edi, 1  ; call dword [esi] ;  (1 found)
0x00099562: salc  ; clc  ; call dword [eax-0x6F6F6F70] ;  (1 found)
0x0016625d: salc  ; cld  ; jmp dword [eax-0x2F00032D] ;  (1 found)
0x00166254: salc  ; cld  ; jmp dword [ebp-0x1A00032A] ;  (1 found)
0x00166255: salc  ; cld  ; jmp dword [ebp-0x1A00032A] ;  (1 found)
0x00166251: salc  ; cld  ; jmp dword [ebp-0x2A] ;  (1 found)
0x00166259: salc  ; cld  ; jmp ebp ;  (1 found)
0x00165e2d: sar ah, 1  ; call ebx ;  (1 found)
0x00165e29: sar ah, 1  ; jmp dword [ebx-0x2C000330] ;  (1 found)
0x00165e51: sar ah, cl ; call dword [ebx-0x3C00032E] ;  (1 found)
0x00165e4d: sar ah, cl ; jmp dword [ebx-0x2E] ;  (1 found)
0x0006974f: sar bh, cl ; jmp dword [ecx] ;  (1 found)
0x0004507a: sar byte [eax+0x00000001], 0x0000000F ; inc ebp ; retn 0x8588 ;  (1 found)
0x0006812a: sar byte [eax+0x03], 0xFFFFFFF3 ; ret  ;  (1 found)
0x00194f41: sar byte [esi+esi*8], 1  ; jmp dword [edx] ;  (1 found)
0x000d457b: sar ch, 0xFFFFFFFF ; call dword [eax+0x20248C8B] ;  (1 found)
0x00166a38: sar cl, cl ; cld  ; jmp dword [edx-0x06] ;  (1 found)
0x000d7323: sar dh, 0xFFFFFFFF ; jmp dword [eax] ;  (1 found)
0x00044046: sar dl, 0xFFFFFFFF ; jmp dword [eax] ;  (1 found)
0x00044329: sar dl, 0xFFFFFFFF ; jmp dword [eax] ;  (1 found)
0x000e9575: sar dword [eax+0x0000010F], cl ; call dword [0x00000010] ;  (1 found)
0x00094849: sar dword [eax+0x0C03000C], 0xFFFFFF91 ; jmp ecx ;  (1 found)
0x0009474a: sar dword [ebx+0x03000C61], 0x0C ; xchg eax, ecx ; jmp ecx ;  (1 found)
0x000e6a67: sar eax, 0x1F ; add esp, 0x0C ; ret  ;  (1 found)
0x00165e3d: sar esp, 1  ; call dword [ebx-0x3C00032F] ;  (1 found)
0x00166071: sar esp, 1  ; call dword [esi-0x4900032F] ;  (1 found)
0x00166079: sar esp, 1  ; call esi ;  (1 found)
0x00166021: sar esp, 1  ; jmp dword [ebp-0x3A00032F] ;  (1 found)
0x00165e39: sar esp, 1  ; jmp dword [ebx-0x2F] ;  (1 found)
0x00165e48: sar esp, 1  ; jmp dword [ebx] ;  (1 found)
0x00165e49: sar esp, 1  ; jmp dword [ebx] ;  (1 found)
0x00166031: sar esp, 1  ; jmp dword [edx-0x3D00032F] ;  (1 found)
0x00166029: sar esp, 1  ; jmp ebp ;  (1 found)
0x00166039: sar esp, 1  ; jmp edx ;  (1 found)
0x00166165: sar esp, cl ; call dword [esp+edx*8] ;  (1 found)
0x00166261: sar esp, cl ; call eax ;  (1 found)
0x00166221: sar esp, cl ; call ebp ;  (1 found)
0x00166161: sar esp, cl ; jmp esp ;  (1 found)
0x00166924: sbb ah, 0xFFFFFFFC ; call dword [eax] ;  (1 found)
0x000b7e32: sbb al, 0x01 ; add byte [eax], al ; call dword [0x00000010] ;  (1 found)
0x00185e2b: sbb al, 0x0D ; add ebx, dword [edx-0x0E] ; jmp dword [edx] ;  (1 found)
0x00186643: sbb al, 0x0D ; cmp ah, byte [edi-0x0E] ; jmp dword [edx] ;  (1 found)
0x0018606f: sbb al, 0x0D ; cmp al, 0x5B ; jmp dword [edx] ;  (1 found)
0x00178423: sbb al, 0x0D ; fdiv st2, st0 ; jmp dword [edx] ;  (1 found)
0x0017856f: sbb al, 0x0D ; fdiv st2, st0 ; jmp dword [edx] ;  (1 found)
0x0018892b: sbb al, 0x0D ; fldenv  [eax-0x0C] ; jmp dword [edx] ;  (1 found)
0x0017804b: sbb al, 0x0D ; imul ebx, eax, 0xFA ; jmp dword [edx] ;  (1 found)
0x00177573: sbb al, 0x0D ; imul edx, ecx, 0xEE ; jmp dword [edx] ;  (1 found)
0x00195a47: sbb al, 0x0D ; mov dword [ebp-0x0A], ecx ; jmp dword [edx] ;  (1 found)
0x00194523: sbb al, 0x0D ; mov seg?, word [esi+esi*8] ; jmp dword [edx] ;  (1 found)
0x00186e2b: sbb al, 0x0D ; or dword [edx-0x0E], esi ; jmp dword [edx] ;  (1 found)
0x00178e6f: sbb al, 0x0D ; out dx, al ; jmp dword [edx] ;  (1 found)
0x00176677: sbb al, 0x0D ; pop ds ; ret  ;  (1 found)
0x00186673: sbb al, 0x0D ; push ecx ; jmp dword [bp+si] ;  (1 found)
0x00187027: sbb al, 0x0D ; sal dword [edx-0x0E], cl ; jmp dword [edx] ;  (1 found)
0x00194f3f: sbb al, 0x0D ; sar byte [esi+esi*8], 1  ; jmp dword [edx] ;  (1 found)
0x0017807b: sbb al, 0x0D ; sbb eax, 0xFFFFFFFA ; jmp dword [edx] ;  (1 found)
0x0018683f: sbb al, 0x0D ; test al, 0x68 ; jmp dword [edx] ;  (1 found)
0x0018545b: sbb al, 0x0D ; test al, 0xFFFFFFF1 ; jmp dword [edx] ;  (1 found)
0x00186f27: sbb al, 0x0D ; xor al, 0x72 ; jmp dword [edx] ;  (1 found)
0x0019544b: sbb al, 0x0D ; xor byte [ecx-0x0A], al ; jmp dword [edx] ;  (1 found)
0x00114e7e: sbb al, 0x0F ; mov dh, 0xC0 ; ret  ;  (1 found)
0x000a7145: sbb al, 0x0F ; test dword [eax+eax+0x5E5F0000], esp ; ret  ;  (1 found)
0x00184654: sbb al, 0x10 ; call dword [edi+0x00] ;  (1 found)
0x00177624: sbb al, 0x15 ; out dx, eax ; jmp dword [eax] ;  (1 found)
0x00169260: sbb al, 0x1D ; jmp dword [edi+edi*8] ;  (1 found)
0x0009703d: sbb al, 0x21 ; retn 0xD789 ;  (1 found)
0x00129d74: sbb al, 0x24 ; ret  ;  (1 found)
0x000a5654: sbb al, 0x39 ; retn 0xCF74 ;  (1 found)
0x00097b34: sbb al, 0x83 ; retn 0x3901 ;  (1 found)
0x000c9642: sbb al, 0x83 ; retn 0x8501 ;  (1 found)
0x00064157: sbb al, 0x83 ; retn 0x8901 ;  (1 found)
0x00024443: sbb al, 0x85 ; sal byte [ebp-0x50], 0xFFFFFF83 ; retn 0x8901 ;  (1 found)
0x00114257: sbb al, 0x89 ; add al, 0x24 ; call dword [esi+0x20] ;  (1 found)
0x000b7e2e: sbb al, 0x89 ; ret  ;  (1 found)
0x000c5847: sbb al, 0x89 ; ret  ;  (1 found)
0x000c5927: sbb al, 0x89 ; ret  ;  (1 found)
0x00056a64: sbb al, 0x89 ; retn 0x478B ;  (1 found)
0x00134623: sbb al, 0x8B ; jmp ebx ;  (1 found)
0x00134743: sbb al, 0x8B ; jmp ebx ;  (1 found)
0x00134863: sbb al, 0x8B ; jmp ebx ;  (1 found)
0x00134b33: sbb al, 0x8B ; jmp ebx ;  (1 found)
0x00134c53: sbb al, 0x8B ; jmp ebx ;  (1 found)
0x00134d73: sbb al, 0x8B ; jmp ebx ;  (1 found)
0x00135726: sbb al, 0x8B ; jmp ebx ;  (1 found)
0x00135920: sbb al, 0x8B ; jmp ebx ;  (1 found)
0x00135a27: sbb al, 0x8B ; jmp ebx ;  (1 found)
0x00135b43: sbb al, 0x8B ; jmp ebx ;  (1 found)
0x00135c63: sbb al, 0x8B ; jmp ebx ;  (1 found)
0x00135f33: sbb al, 0x8B ; jmp ebx ;  (1 found)
0x00136053: sbb al, 0x8B ; jmp ebx ;  (1 found)
0x00136173: sbb al, 0x8B ; jmp ebx ;  (1 found)
0x00136f33: sbb al, 0x8B ; jmp ebx ;  (1 found)
0x00137053: sbb al, 0x8B ; jmp ebx ;  (1 found)
0x00137173: sbb al, 0x8B ; jmp ebx ;  (1 found)
0x00137323: sbb al, 0x8B ; jmp ebx ;  (1 found)
0x00137443: sbb al, 0x8B ; jmp ebx ;  (1 found)
0x00137563: sbb al, 0x8B ; jmp ebx ;  (1 found)
0x00138053: sbb al, 0x8B ; jmp ebx ;  (1 found)
0x00138166: sbb al, 0x8B ; jmp ebx ;  (1 found)
0x00138176: sbb al, 0x8B ; jmp ebx ;  (1 found)
0x0013826f: sbb al, 0x8B ; jmp ebx ;  (1 found)
0x00138376: sbb al, 0x8B ; jmp ebx ;  (1 found)
0x00138633: sbb al, 0x8B ; jmp ebx ;  (1 found)
0x00138753: sbb al, 0x8B ; jmp ebx ;  (1 found)
0x00138873: sbb al, 0x8B ; jmp ebx ;  (1 found)
0x00138a23: sbb al, 0x8B ; jmp ebx ;  (1 found)
0x00138b43: sbb al, 0x8B ; jmp ebx ;  (1 found)
0x00138c63: sbb al, 0x8B ; jmp ebx ;  (1 found)
0x00138f75: sbb al, 0x8B ; jmp ebx ;  (1 found)
0x00139146: sbb al, 0x8B ; jmp ebx ;  (1 found)
0x00139156: sbb al, 0x8B ; jmp ebx ;  (1 found)
0x0013924f: sbb al, 0x8B ; jmp ebx ;  (1 found)
0x00139356: sbb al, 0x8B ; jmp ebx ;  (1 found)
0x00139460: sbb al, 0x8B ; jmp ebx ;  (1 found)
0x00139733: sbb al, 0x8B ; jmp ebx ;  (1 found)
0x00139853: sbb al, 0x8B ; jmp ebx ;  (1 found)
0x00139973: sbb al, 0x8B ; jmp ebx ;  (1 found)
0x00139b23: sbb al, 0x8B ; jmp ebx ;  (1 found)
0x00139c43: sbb al, 0x8B ; jmp ebx ;  (1 found)
0x00139f45: sbb al, 0x8B ; jmp ebx ;  (1 found)
0x00184975: sbb al, 0x9E ; int1  ; jmp dword [edx] ;  (1 found)
0x00135770: sbb al, 0xBB ; jmp ebx ;  (1 found)
0x00115f3a: sbb al, 0xC3 ; lea esi, dword [esi+0x00] ; rep ret  ;  (1 found)
0x00186374: sbb al, 0xE3 ; call dword [esi+0x00] ;  (1 found)
0x00068b6e: sbb al, 0xE8 ; call dword [ecx] ;  (1 found)
0x00169249: sbb al, 0xF0 ; call dword [edi+edi*8+0x00] ;  (1 found)
0x00198755: sbb al, bh ; call dword [0x00000001] ;  (1 found)
0x00125265: sbb al, byte [eax+0x7400287A] ; adc al, 0x83 ; retn 0x8328 ;  (1 found)
0x00169665: sbb al, byte [ecx] ; add byte [edi+ebp*2-0x10], al ; call dword [edx+ebx+0x71340001] ;  (1 found)
0x00167b51: sbb bl, ch ; call dword [eax] ;  (1 found)
0x000e8c51: sbb byte [eax+0x00000001], bh ; pop ebx ; ret  ;  (1 found)
0x0001952e: sbb byte [eax], al ; add byte [eax], al ; call eax ;  (1 found)
0x00024035: sbb byte [eax], al ; add byte [eax], al ; call eax ;  (1 found)
0x0002417b: sbb byte [eax], al ; add byte [eax], al ; call eax ;  (1 found)
0x00024227: sbb byte [eax], al ; add byte [eax], al ; call eax ;  (1 found)
0x00026755: sbb byte [eax], al ; add byte [eax], al ; call eax ;  (1 found)
0x0002682d: sbb byte [eax], al ; add byte [eax], al ; call eax ;  (1 found)
0x0002684d: sbb byte [eax], al ; add byte [eax], al ; call eax ;  (1 found)
0x0002743a: sbb byte [eax], al ; add byte [eax], al ; call eax ;  (1 found)
0x0002747d: sbb byte [eax], al ; add byte [eax], al ; call eax ;  (1 found)
0x00027f5c: sbb byte [eax], al ; add byte [eax], al ; call eax ;  (1 found)
0x0002894d: sbb byte [eax], al ; add byte [eax], al ; call eax ;  (1 found)
0x00028976: sbb byte [eax], al ; add byte [eax], al ; call eax ;  (1 found)
0x00028b7f: sbb byte [eax], al ; add byte [eax], al ; call eax ;  (1 found)
0x00028d38: sbb byte [eax], al ; add byte [eax], al ; call eax ;  (1 found)
0x00028f65: sbb byte [eax], al ; add byte [eax], al ; call eax ;  (1 found)
0x00029127: sbb byte [eax], al ; add byte [eax], al ; call eax ;  (1 found)
0x00019659: sbb byte [eax], al ; lea eax, dword [ecx-0x00043DEE] ; ret  ;  (1 found)
0x00019639: sbb byte [eax], al ; lea eax, dword [ecx-0x00046116] ; ret  ;  (1 found)
0x00074d75: sbb byte [ebp+0x29A374C0], al ; retn 0x9F74 ;  (1 found)
0x00034f35: sbb byte [ebx+0x01402444], cl ; retn 0x448B ;  (1 found)
0x00094d5a: sbb byte [ebx+0x5B0C2444], cl ; pop esi ; ret  ;  (1 found)
0x00035a5e: sbb byte [ebx-0x0001577D], cl ; jmp dword [ebp-0x75] ;  (1 found)
0x00035b5e: sbb byte [ebx-0x0001577D], cl ; jmp dword [ebp-0x75] ;  (1 found)
0x00099c4e: sbb byte [ebx-0x0001577D], cl ; jmp dword [ebp-0x75] ;  (1 found)
0x00099d4e: sbb byte [ebx-0x0001577D], cl ; jmp dword [ebp-0x75] ;  (1 found)
0x0007926c: sbb byte [ebx-0x17], bl ; in eax, dx ; retn 0xFFFF ;  (1 found)
0x00124772: sbb byte [ebx-0x2F76E33C], al ; ret  ;  (1 found)
0x0002443f: sbb byte [ebx-0x7AE3DBB4], cl ; sal byte [ebp-0x50], 0xFFFFFF83 ; retn 0x8901 ;  (1 found)
0x00034673: sbb byte [ebx-0x7CBFDBAC], cl ; retn 0x0F01 ;  (1 found)
0x0010513e: sbb byte [ecx-0x76E7DBAC], cl ; retn 0xEAC1 ;  (1 found)
0x0016962d: sbb byte [ecx], al ; add byte [edx+0x6C], bh ; jmp dword [eax] ;  (1 found)
0x00098567: sbb byte [ecx], ch ; retn 0xD089 ;  (1 found)
0x00117c7b: sbb byte [ecx], cl ; retn 0xB60F ;  (1 found)
0x00166f54: sbb byte [esi], 0xFFFFFFFD ; call eax ;  (1 found)
0x00169c70: sbb ch, byte [esi] ; int1  ; jmp dword [esp+esi+0x01] ;  (1 found)
0x00188541: sbb dh, ah ; call dword [eax] ;  (1 found)
0x00149977: sbb dh, dh ; retn 0x0F0F ;  (1 found)
0x00064c57: sbb dh, dh ; retn 0x7420 ;  (1 found)
0x00038a45: sbb dh, dh ; retn 0x7501 ;  (1 found)
0x00184b2d: sbb dh, dl ; jmp ebx ;  (1 found)
0x00097d4d: sbb dword [ebp+esi-0x10], 0xFFFFFFFF ; pop ebx ; ret  ;  (1 found)
0x00128b52: sbb eax, 0x81000012 ; ret  ;  (1 found)
0x00126f52: sbb eax, 0x8100002E ; ret  ;  (1 found)
0x00126552: sbb eax, 0x81000038 ; ret  ;  (1 found)
0x000e8a52: sbb eax, 0x81000413 ; ret  ;  (1 found)
0x000c5b52: sbb eax, 0x81000642 ; ret  ;  (1 found)
0x000b5c52: sbb eax, 0x81000741 ; ret  ;  (1 found)
0x00099b52: sbb eax, 0x81000902 ; ret  ;  (1 found)
0x00098452: sbb eax, 0x81000919 ; ret  ;  (1 found)
0x00035b52: sbb eax, 0x81000F42 ; ret  ;  (1 found)
0x00035a52: sbb eax, 0x81000F43 ; ret  ;  (1 found)
0x00026c52: sbb eax, 0x81001031 ; ret  ;  (1 found)
0x000a5445: sbb eax, 0x83B4558B ; retn 0x3901 ;  (1 found)
0x000e802e: sbb eax, 0xC1810004 ; ret  ;  (1 found)
0x0017807d: sbb eax, 0xFFFFFFFA ; jmp dword [edx] ;  (1 found)
0x000a9827: sbb eax, dword [eax] ; add byte [ecx], cl ; retn 0x840F ;  (1 found)
0x000a9f77: sbb eax, dword [eax] ; add byte [ecx], cl ; retn 0x850F ;  (1 found)
0x0016967d: sbb eax, dword [ecx] ; add byte [ebp+0x72], cl ; call dword [eax] ;  (1 found)
0x000b5152: sbb eax, dword [edi] ; add byte [ebx-0x0000F77D], cl ; jmp dword [ebp+0x03] ;  (1 found)
0x00074344: sbb ebp, dword [ecx] ; retn 0x528B ;  (1 found)
0x00177c51: sbb ebx, edx ; out dx, al ; jmp dword [edx] ;  (1 found)
0x000e504c: sbb ecx, dword [ebx-0x0000F77D] ; jmp dword [ebp-0x39] ;  (1 found)
0x00194141: sbb edi, esi ; call dword [eax] ;  (1 found)
0x00169239: sbb esi, eax ; inc dword [esi+edi*8+0x1BE40000] ; jmp dword [esi+edi*8+0x1C040000] ;  (1 found)
0x00169241: sbb esi, eax ; jmp dword [esi+edi*8+0x1C040000] ;  (1 found)
0x00188b2d: sbb esi, esp ; jmp dword [ebx+0x00] ;  (1 found)
0x00188a6d: sbb esp, esi ; call eax ;  (1 found)
0x00126c48: scasb  ; ret  ;  (1 found)
0x00167a21: scasd  ; cld  ; call dword [eax] ;  (1 found)
0x00168529: scasd  ; in al, dx ; call dword [eax] ;  (1 found)
0x00168548: scasd  ; in al, dx ; call eax ;  (1 found)
0x00168549: scasd  ; in al, dx ; call eax ;  (1 found)
0x00168541: scasd  ; in al, dx ; jmp dword [eax+0x640000B0] ;  (1 found)
0x00168559: scasd  ; in al, dx ; jmp dword [eax] ;  (1 found)
0x00168521: scasd  ; in al, dx ; jmp eax ;  (1 found)
0x000a7b44: scasd  ; retn 0x90C3 ;  (1 found)
0x00098933: sete al ; rep ret  ;  (1 found)
0x0002704a: sete al ; ret  ;  (1 found)
0x00166958: shl bl, 1  ; cld  ; jmp dword [eax-0x1C] ;  (1 found)
0x0010505b: shl byte [0x00FFFFFF], 1  ; ret  ;  (1 found)
0x00115944: shl byte [ecx], 1  ; retn 0xE281 ;  (1 found)
0x000b4079: shl byte [edx], 0xFFFFFF83 ; retn 0x8304 ;  (1 found)
0x00095746: shl byte [esi+0x0F], 1  ; xlatb  ; retn 0xC085 ;  (1 found)
0x0013425a: shl cl, cl ; cld  ; jmp dword [esi-0x70] ;  (1 found)
0x00186430: shl dh, 0xFFFFFFF2 ; jmp dword [edx+0x00] ;  (1 found)
0x00095666: shl dword [esi+0x0F], 1  ; xlatb  ; retn 0xC085 ;  (1 found)
0x00095b5c: shl dword [esi+0x0F], 1  ; xlatb  ; retn 0xC085 ;  (1 found)
0x00148165: shl dword [esi+0x0F], 1  ; xlatb  ; retn 0xC085 ;  (1 found)
0x00166968: shr ah, cl ; cld  ; jmp dword [edx-0x13] ;  (1 found)
0x000e9639: shr bl, cl ; retn 0x748D ;  (1 found)
0x00169944: shr byte [0xB3E40001], 0xFFFFFFF0 ; jmp eax ;  (1 found)
0x000a5421: shr byte [ecx], 1  ; retn 0x048B ;  (1 found)
0x00055532: shr byte [ecx], cl ; retn 0x8965 ;  (1 found)
0x000b7d5f: shr byte [ecx], cl ; retn 0x8965 ;  (1 found)
0x000b824b: shr byte [ecx], cl ; retn 0x8965 ;  (1 found)
0x000c5422: shr byte [ecx], cl ; retn 0x8965 ;  (1 found)
0x000c5464: shr byte [ecx], cl ; retn 0x8965 ;  (1 found)
0x000c555e: shr byte [ecx], cl ; retn 0x8965 ;  (1 found)
0x000e4f46: shr byte [ecx], cl ; retn 0x8965 ;  (1 found)
0x000e6d34: shr byte [ecx], cl ; retn 0x8965 ;  (1 found)
0x000e7d72: shr byte [ecx], cl ; retn 0x8965 ;  (1 found)
0x000e7e42: shr byte [ecx], cl ; retn 0x8965 ;  (1 found)
0x000e803e: shr byte [ecx], cl ; retn 0x8965 ;  (1 found)
0x000e807e: shr byte [ecx], cl ; retn 0x8965 ;  (1 found)
0x000e8126: shr byte [ecx], cl ; retn 0x8965 ;  (1 found)
0x00168b49: shr dh, 1  ; call dword [eax+0x340000D5] ;  (1 found)
0x00177666: shr dh, cl ; jmp dword [edx] ;  (1 found)
0x00177726: shr dh, cl ; jmp dword [edx] ;  (1 found)
0x00177756: shr dh, cl ; jmp dword [edx] ;  (1 found)
0x00168b59: shr dh, cl ; jmp esp ;  (1 found)
0x000b4629: shr dword [edx-0x077CFFFE], cl ; push dword [ebx+ebp-0x77] ; retn 0xE283 ;  (1 found)
0x0017745a: shr esi, 1  ; jmp dword [edx] ;  (1 found)
0x00177546: shr esi, 1  ; jmp dword [edx] ;  (1 found)
0x00177576: shr esi, 1  ; jmp dword [edx] ;  (1 found)
0x00166a35: stc  ; cld  ; call edx ;  (1 found)
0x00166a39: stc  ; cld  ; jmp dword [edx-0x06] ;  (1 found)
0x00166a25: stc  ; cld  ; jmp dword [edx] ;  (1 found)
0x000a8544: stc  ; retn 0x0010 ;  (1 found)
0x00144346: std  ; adc byte [ebp-0x79F00F93], cl ; call dword [eax] ;  (1 found)
0x00166e52: std  ; call dword [eax+0x07] ;  (1 found)
0x0016735e: std  ; call dword [eax+0x2E] ;  (1 found)
0x00167372: std  ; call dword [eax+0x33] ;  (1 found)
0x0016735a: std  ; call dword [eax+0x3B] ;  (1 found)
0x00167452: std  ; call dword [eax+0x3C] ;  (1 found)
0x00166d4a: std  ; call dword [eax-0x7F0002F4] ;  (1 found)
0x00166e42: std  ; call dword [eax] ;  (1 found)
0x00166f4e: std  ; call dword [eax] ;  (1 found)
0x00167072: std  ; call dword [eax] ;  (1 found)
0x00167361: std  ; call dword [eax] ;  (1 found)
0x00167362: std  ; call dword [eax] ;  (1 found)
0x00167472: std  ; call dword [eax] ;  (1 found)
0x0016754a: std  ; call dword [ebp+ecx*2-0x03] ;  (1 found)
0x00186e3d: std  ; call dword [ecx+0x00000000] ;  (1 found)
0x00166f7a: std  ; call dword [edi+ebx] ;  (1 found)
0x00045934: std  ; call dword [edi-0x77] ;  (1 found)
0x00167632: std  ; call dword [edx+0x12FFFD4E] ;  (1 found)
0x00166e76: std  ; call dword [edx+0x22FFFD10] ;  (1 found)
0x0016763a: std  ; call dword [edx+0x48FFFD4F] ;  (1 found)
0x00167626: std  ; call dword [edx+0x4F] ;  (1 found)
0x00167862: std  ; call dword [edx+0x5E] ;  (1 found)
0x00166f22: std  ; call dword [edx-0x1D0002E2] ;  (1 found)
0x0016715e: std  ; call dword [edx] ;  (1 found)
0x0016716a: std  ; call dword [edx] ;  (1 found)
0x00167262: std  ; call dword [edx] ;  (1 found)
0x00167326: std  ; call dword [edx] ;  (1 found)
0x0016762e: std  ; call dword [edx] ;  (1 found)
0x00167636: std  ; call dword [edx] ;  (1 found)
0x00167766: std  ; call dword [edx] ;  (1 found)
0x0016734a: std  ; call dword [esi+0x3B] ;  (1 found)
0x00167442: std  ; call dword [esi+0x3C] ;  (1 found)
0x0016777e: std  ; call dword [esi+0x5C] ;  (1 found)
0x0016782e: std  ; call dword [esi+ebx*2] ;  (1 found)
0x00166f3e: std  ; call dword [esi] ;  (1 found)
0x00167546: std  ; call dword [esp+ecx*2+0x4D54FFFD] ;  (1 found)
0x00166e32: std  ; call eax ;  (1 found)
0x00166f56: std  ; call eax ;  (1 found)
0x0016704e: std  ; call eax ;  (1 found)
0x0016702a: std  ; call edx ;  (1 found)
0x00167269: std  ; call edx ;  (1 found)
0x0016726a: std  ; call edx ;  (1 found)
0x00166f46: std  ; call esi ;  (1 found)
0x0016703e: std  ; call esi ;  (1 found)
0x00167136: std  ; call esp ;  (1 found)
0x0016722d: std  ; call esp ;  (1 found)
0x0016722e: std  ; call esp ;  (1 found)
0x00167732: std  ; call esp ;  (1 found)
0x00166e21: std  ; cld  ; call dword [eax+0x20FFFD00] ;  (1 found)
0x00166c51: std  ; cld  ; call dword [ebp+edi*8-0x01CB0004] ;  (1 found)
0x00166c41: std  ; cld  ; jmp esp ;  (1 found)
0x00175121: std  ; in eax, dx ; jmp dword [eax+0x01] ;  (1 found)
0x0016713a: std  ; jmp dword [0x2C1EFFFD+ebp] ;  (1 found)
0x00167736: std  ; jmp dword [0x5D74FFFD+ebx*2] ;  (1 found)
0x00166e36: std  ; jmp dword [eax+0x03] ;  (1 found)
0x00166e46: std  ; jmp dword [eax+0x30FFFD05] ;  (1 found)
0x00167366: std  ; jmp dword [eax+0x30FFFD31] ;  (1 found)
0x00167532: std  ; jmp dword [eax+0x4B] ;  (1 found)
0x00167076: std  ; jmp dword [eax-0x03] ;  (1 found)
0x00167456: std  ; jmp dword [eax-0x0F0002C4] ;  (1 found)
0x00166d52: std  ; jmp dword [eax] ;  (1 found)
0x00166e26: std  ; jmp dword [eax] ;  (1 found)
0x00166f5a: std  ; jmp dword [eax] ;  (1 found)
0x00167052: std  ; jmp dword [eax] ;  (1 found)
0x00167462: std  ; jmp dword [edx+0x32FFFD4A] ;  (1 found)
0x0016732a: std  ; jmp dword [edx+0x3B] ;  (1 found)
0x00167422: std  ; jmp dword [edx+0x3C] ;  (1 found)
0x0016775e: std  ; jmp dword [edx+0x5C] ;  (1 found)
0x0016776a: std  ; jmp dword [edx+0x5D] ;  (1 found)
0x00167866: std  ; jmp dword [edx-0x0D0002A2] ;  (1 found)
0x00166e7a: std  ; jmp dword [edx] ;  (1 found)
0x00167232: std  ; jmp dword [esi+ebp] ;  (1 found)
0x00167832: std  ; jmp dword [esi+ebx*2-0x03] ;  (1 found)
0x00167446: std  ; jmp dword [esi-0x090002C4] ;  (1 found)
0x00166f4a: std  ; jmp dword [esi] ;  (1 found)
0x00167042: std  ; jmp dword [esi] ;  (1 found)
0x0016712e: std  ; jmp dword [esp+ebp] ;  (1 found)
0x00166e56: std  ; jmp eax ;  (1 found)
0x00167376: std  ; jmp eax ;  (1 found)
0x00166e66: std  ; jmp edx ;  (1 found)
0x00166f26: std  ; jmp edx ;  (1 found)
0x00167476: std  ; jmp edx ;  (1 found)
0x0016762a: std  ; jmp edx ;  (1 found)
0x00167239: std  ; jmp esp ;  (1 found)
0x0016723a: std  ; jmp esp ;  (1 found)
0x00167542: std  ; jmp esp ;  (1 found)
0x0016755a: std  ; jmp esp ;  (1 found)
0x00147942: std  ; pop edi ; ret  ;  (1 found)
0x0016772e: std  ; push dword [esp+ebx*2-0x03] ; call esp ;  (1 found)
0x00178149: sti  ; call dword [eax] ;  (1 found)
0x0017814a: sti  ; call dword [eax] ;  (1 found)
0x00178179: sti  ; call dword [eax] ;  (1 found)
0x0017817a: sti  ; call dword [eax] ;  (1 found)
0x00166b79: sti  ; cld  ; call dword [eax] ;  (1 found)
0x0017826e: sti  ; jmp dword [eax] ;  (1 found)
0x00147932: sti  ; pop edi ; ret  ;  (1 found)
0x00168e68: stosb  ; fsubp st7, st0 ; jmp dword [eax-0x18] ;  (1 found)
0x000a7b23: str word [ebx-0x76DFDBA4] ; retn 0x7C8B ;  (1 found)
0x00166978: sub ah, 0xFFFFFFFC ; call dword [edx] ;  (1 found)
0x00114269: sub al, 0x01 ; retn 0x5689 ;  (1 found)
0x000a7b42: sub al, 0x0F ; scasd  ; retn 0x90C3 ;  (1 found)
0x00166f3c: sub al, 0x1F ; std  ; call dword [esi] ;  (1 found)
0x00118f3d: sub al, 0x24 ; call dword [eax+0x10] ;  (1 found)
0x00067e3f: sub al, 0x24 ; call dword [eax+0x40] ;  (1 found)
0x00067b76: sub al, 0x24 ; call edi ;  (1 found)
0x000e713c: sub al, 0x89 ; ret  ;  (1 found)
0x000e736f: sub al, 0x89 ; ret  ;  (1 found)
0x00169359: sub al, 0xF0 ; call dword [esp+eax+0x01] ;  (1 found)
0x00169c59: sub al, 0xF1 ; jmp dword [ebp+ecx*2+0x2C540001] ;  (1 found)
0x00169c69: sub al, 0xF1 ; jmp esp ;  (1 found)
0x0018526d: sub al, 0xF2 ; jmp dword [ebp+0x05] ;  (1 found)
0x00176124: sub al, 0xF2 ; out dx, al ; jmp dword [ecx+eax] ;  (1 found)
0x00194162: sub al, 0xF6 ; jmp dword [edx] ;  (1 found)
0x00198a45: sub al, 0xF8 ; call dword [eax+0x00] ;  (1 found)
0x00167169: sub al, 0xFD ; call dword [edx] ;  (1 found)
0x00167135: sub al, 0xFD ; call esp ;  (1 found)
0x00167139: sub al, 0xFD ; jmp dword [0x2C1EFFFD+ebp] ;  (1 found)
0x0005892b: sub bh, 0xFFFFFFFF ; jmp dword [edi+ecx] ;  (1 found)
0x00177f29: sub bh, ch ; call edx ;  (1 found)
0x00194b59: sub bh, dh ; call esi ;  (1 found)
0x00194d7d: sub bh, dh ; jmp dword [edi+0x00000000] ;  (1 found)
0x000b9d6d: sub byte [ebp-0x0F], 0xFFFFFFFF ; jmp eax ;  (1 found)
0x0003404e: sub byte [ebx-0x0001577D], cl ; jmp dword [ebp-0x75] ;  (1 found)
0x00099a6e: sub byte [ebx-0x0001577D], cl ; jmp dword [ebp-0x75] ;  (1 found)
0x00099b5e: sub byte [ebx-0x0001577D], cl ; jmp dword [ebp-0x75] ;  (1 found)
0x00189d28: sub byte [ebx-0x205BFFFF], ch ; hlt  ; call dword [edx] ;  (1 found)
0x00184b28: sub byte [ecx+0x01], bl ; add byte [edx+ebx], ah ; jmp ebx ;  (1 found)
0x00188b28: sub byte [ecx+0x1B040001], bl ; hlt  ; jmp dword [ebx+0x00] ;  (1 found)
0x0011625c: sub byte [ecx+0x5489243C], cl ; and al, 0x04 ; call dword [eax+0x0C] ;  (1 found)
0x0010994d: sub byte [ecx-0x76CFDBBC], cl ; retn 0x448D ;  (1 found)
0x00178928: sub byte [edi+0x2A440000], dl ; out dx, eax ; jmp dword [ebx] ;  (1 found)
0x000c5e7a: sub byte [esi+0x5F], bl ; pop ebp ; ret  ;  (1 found)
0x0017892d: sub ch, bh ; jmp dword [ebx] ;  (1 found)
0x00169c78: sub ch, byte [esi] ; int1  ; call dword [esp+esi+0x2E360001] ;  (1 found)
0x00169e20: sub dword [ecx], esi ; int1  ; jmp esp ;  (1 found)
0x0009523b: sub eax, 0x10 ; pop edi ; ret  ;  (1 found)
0x00095278: sub eax, 0x10 ; pop edi ; ret  ;  (1 found)
0x0016717d: sub eax, 0x2C06FFFD ; std  ; jmp dword [esi+0x2C] ;  (1 found)
0x00146862: sub eax, 0x7502C2F6 ; cmp dh, dh ; retn 0x7504 ;  (1 found)
0x00126c42: sub eax, 0x81000031 ; ret  ;  (1 found)
0x000e7c42: sub eax, 0x81000421 ; ret  ;  (1 found)
0x000e5142: sub eax, 0x8100044C ; ret  ;  (1 found)
0x000c5c42: sub eax, 0x81000641 ; ret  ;  (1 found)
0x000b8a42: sub eax, 0x81000713 ; ret  ;  (1 found)
0x000b8742: sub eax, 0x81000716 ; ret  ;  (1 found)
0x00099d42: sub eax, 0x81000900 ; ret  ;  (1 found)
0x00099c42: sub eax, 0x81000901 ; ret  ;  (1 found)
0x00098942: sub eax, 0x81000914 ; ret  ;  (1 found)
0x00097e42: sub eax, 0x8100091F ; ret  ;  (1 found)
0x00068b42: sub eax, 0x81000C12 ; ret  ;  (1 found)
0x00034042: sub eax, 0x81000F5D ; ret  ;  (1 found)
0x00129d6f: sub eax, 0x8BFFFFFE ; sbb al, 0x24 ; ret  ;  (1 found)
0x00169945: sub eax, 0xB3E40001 ; jmp eax ;  (1 found)
0x0016994d: sub eax, 0xB5E40001 ; jmp dword [eax] ;  (1 found)
0x00077f39: sub eax, dword [eax] ; add byte [ebx-0x0001877D], cl ; jmp dword [ebp-0x77] ;  (1 found)
0x000b9d6a: sub eax, dword [ebx+esi*4-0x000E9280] ; jmp eax ;  (1 found)
0x000e9758: sub eax, dword [ecx] ; add byte [eax], al ; call dword [0x00000010] ;  (1 found)
0x000e6d6f: sub eax, dword [edi+0x0091B8DF] ; add byte [eax], al ; call dword [0x00000010] ;  (1 found)
0x000e6e2f: sub eax, dword [edi+0x0092B8DF] ; add byte [eax], al ; call dword [0x00000010] ;  (1 found)
0x00024b50: sub ebp, dword [ebx+eax-0x0017E498] ; jmp ebp ;  (1 found)
0x000d436d: sub ecx, dword [ebx+edx*4-0x000CEC7C] ; jmp ecx ;  (1 found)
0x00194c31: sub edi, esi ; call dword [ecx+0x00000000] ;  (1 found)
0x000d4c79: sub edx, dword [ebx+eax*4-0x000CE370] ; jmp edx ;  (1 found)
0x00055d4a: sub edx, dword [ebx+eax*4-0x0014D2A0] ; jmp edx ;  (1 found)
0x00129052: sub edx, dword [ebx+ecx*4-0x00079F98] ; jmp edx ;  (1 found)
0x00119a42: sub esi, dword [ebx+eax*4-0x000895A8] ; jmp esi ;  (1 found)
0x00074f6e: sub esi, eax ; mov dword [esp], esi ; call dword [edx] ;  (1 found)
0x00194c5d: sub esi, edi ; call dword [eax] ;  (1 found)
0x00194026: sub esi, esi ; jmp dword [edx] ;  (1 found)
0x00194056: sub esi, esi ; jmp dword [edx] ;  (1 found)
0x000d8337: sub esp, 0x14 ; add esp, 0x2C ; ret  ;  (1 found)
0x0012496c: sub esp, 0x18 ; call dword [ebx-0x00001470] ;  (1 found)
0x00179568: test al, 0x54 ; out dx, eax ; jmp ebp ;  (1 found)
0x00186841: test al, 0x68 ; jmp dword [edx] ;  (1 found)
0x00176535: test al, 0xC1 ; out dx, al ; jmp dword [edx] ;  (1 found)
0x00175349: test al, 0xD5 ; in eax, dx ; jmp dword [edx] ;  (1 found)
0x00174366: test al, 0xEC ; jmp dword [edx] ;  (1 found)
0x0018545d: test al, 0xFFFFFFF1 ; jmp dword [edx] ;  (1 found)
0x00168c38: test bh, bl ; out dx, al ; jmp dword [eax] ;  (1 found)
0x00167134: test byte [0xFD2CD4FF+edi*8], ch ; jmp dword [0x2C1EFFFD+ebp] ;  (1 found)
0x00047358: test byte [eax], bh ; retn 0xFFFF ;  (1 found)
0x0007562b: test byte [ebp-0x76FFFFFB], bh ; retn 0xD285 ;  (1 found)
0x000b9d6b: test byte [ebx-0x000E9280], dh ; jmp eax ;  (1 found)
0x00128c6b: test byte [ebx-0x0F76EB3C], 0x0000005B ; pop esi ; ret  ;  (1 found)
0x00187034: test byte [ecx+0x01], bh ; add byte [ecx+0x01], bh ; call dword [eax] ;  (1 found)
0x000f7230: test byte [ecx+eax*2+0x01], 0x00000040 ; cmove eax, edx ; ret  ;  (1 found)
0x00099332: test byte [ecx-0x7B000000], cl ; ror byte [edi], 0xFFFFFF95 ; retn 0xF883 ;  (1 found)
0x00045262: test byte [ecx-0x7D000000], dh ; retn 0x8301 ;  (1 found)
0x0018746c: test byte [ecx], cl ; call edi ;  (1 found)
0x000a4c62: test byte [edi], 0xFFFFFF95 ; retn 0xD029 ;  (1 found)
0x00088354: test byte [edi], al ; idiv bh ; jmp dword [esi+0x0F] ;  (1 found)
0x00146859: test byte [edx-0x0A000000], ah ; retn 0x7501 ;  (1 found)
0x00184e5c: test byte [esi], ah ; call dword [ebp+0x00000000] ;  (1 found)
0x00167238: test byte [esi], ch ; std  ; jmp esp ;  (1 found)
0x00168c68: test cl, ah ; out dx, al ; call dword [eax-0x4BFFFF25] ;  (1 found)
0x00087977: test dword [0x5BFFFFFE], edx ; ret  ;  (1 found)
0x0008784f: test dword [0x5BFFFFFF], edi ; ret  ;  (1 found)
0x00059725: test dword [eax+0x39FFFFEF], esi ; retn 0x1C77 ;  (1 found)
0x0005933c: test dword [eax+0x39FFFFEF], esi ; retn 0x7D77 ;  (1 found)
0x0005685b: test dword [eax+0x39FFFFEF], esi ; retn 0x870F ;  (1 found)
0x00056959: test dword [eax+0x39FFFFEF], esi ; retn 0x870F ;  (1 found)
0x00046531: test dword [eax+0x39FFFFFB], eax ; retn 0x860F ;  (1 found)
0x00044e24: test dword [eax+0x39FFFFFB], eax ; retn 0x870F ;  (1 found)
0x000a7147: test dword [eax+eax+0x5E5F0000], esp ; ret  ;  (1 found)
0x00056d4b: test dword [eax-0x16000011], esi ; retn 0xFFFC ;  (1 found)
0x00116939: test dword [eax-0x77000000], esi ; xor al, 0x24 ; call dword [eax+0x10] ;  (1 found)
0x0014822b: test dword [eax-0x77FFFFFF], esi ; retn 0xE280 ;  (1 found)
0x00148356: test dword [ebp-0x78000000], eax ; retn 0xE280 ;  (1 found)
0x00148666: test dword [ebp-0x7D000000], esp ; retn 0x0F0C ;  (1 found)
0x00148e7d: test dword [ebx-0x7CFFFFFD], ebx ; ror byte [ebx], 0x0000005F ; ret  ;  (1 found)
0x00034768: test dword [ebx-0x7D000000], ebx ; retn 0x3901 ;  (1 found)
0x000a7162: test dword [ecx+0x5F000000], ecx ; pop esi ; ret  ;  (1 found)
0x00148f3a: test dword [ecx-0x0A000000], esi ; retn 0x0F04 ;  (1 found)
0x00098161: test dword [ecx-0x14F98A16], 0x74CE3918 ; adc al, 0x83 ; retn 0x8B04 ;  (1 found)
0x000a712c: test dword [edi+0x5F000000], edi ; pop esi ; ret  ;  (1 found)
0x00018968: test dword [edi+edi*8-0x01], eax ; inc dword [ebx-0x0000B77B] ; jmp dword [eax] ;  (1 found)
0x00148f64: test dword [edi-0x0A000000], esp ; retn 0x0F20 ;  (1 found)
0x0014863c: test dword [edi-0x7D000000], ebx ; retn 0x0F08 ;  (1 found)
0x00148e4d: test dword [edx-0x09FFFFFD], esi ; retn 0x0F40 ;  (1 found)
0x00188540: test dword [edx], ebx ; hlt  ; call dword [eax] ;  (1 found)
0x00148e44: test dword [esi-0x09FFFFFD], esi ; retn 0x0F20 ;  (1 found)
0x00148f6d: test dword [esi-0x0A000000], ebp ; retn 0x0F40 ;  (1 found)
0x00148e56: test dword [esi-0x7CFFFFFD], ebp ; rol byte [edi], 0x0000005F ; ret  ;  (1 found)
0x00027042: test dword [esp+0x04], 0xFFFFFF80 ; sete al ; ret  ;  (1 found)
0x00199b61: test eax, 0x5BBC0002 ; clc  ; call dword [ecx] ;  (1 found)
0x00166568: test eax, 0xC9FFFCD8 ; fdivr st0, st4 ; jmp dword [esi-0x28] ;  (1 found)
0x00166020: test ecx, edx ; cld  ; jmp dword [ebp-0x3A00032F] ;  (1 found)
0x00098931: test edx, edx ; sete al ; rep ret  ;  (1 found)
0x00179241: wait  ; add byte [eax], al ; ret  ;  (1 found)
0x00166574: xchg al, bl ; cld  ; jmp dword [esi-0x39000328] ;  (1 found)
0x00187c3d: xchg byte [edx+ecx], al ; ret  ;  (1 found)
0x00198c44: xchg byte [edx], al ; push 0xC6040E0A ; ret  ;  (1 found)
0x00166f44: xchg byte [esi], bl ; std  ; call esi ;  (1 found)
0x00108c45: xchg dword [eax-0x01], edi ; dec dword [ebx-0x0000F76D] ; jmp dword [ebp-0x75] ;  (1 found)
0x0017485e: xchg dword [ebx], eax ; add ah, al ; ret  ;  (1 found)
0x00188322: xchg dword [ebx], eax ; add ah, byte [esi+0x0A] ; ret  ;  (1 found)
0x00185662: xchg dword [ebx], eax ; add cl, byte [edi+0x0A] ; ret  ;  (1 found)
0x00195e2e: xchg dword [ebx], eax ; add dh, byte [ecx+0x0A] ; ret  ;  (1 found)
0x00196032: xchg dword [ebx], eax ; add esi, dword [ecx+eax+0x0A] ; ret  ;  (1 found)
0x00196e3b: xchg dword [edx], eax ; add dl, byte [edx-0x3938FBF2] ; ret  ;  (1 found)
0x00108645: xchg dword [esi-0x01], edi ; dec dword [ebx-0x0000F76D] ; jmp dword [ebp-0x75] ;  (1 found)
0x00158d2f: xchg dword [esp+eax+0x6FA9CE9D], esp ; ret  ;  (1 found)
0x00096b33: xchg eax, ebp ; add byte [ebx+0x29202454], cl ; retn 0xC083 ;  (1 found)
0x000a6f77: xchg eax, ebp ; idiv bh ; call dword [eax+0x0026748D] ;  (1 found)
0x00077928: xchg eax, ebp ; retn 0x440B ;  (1 found)
0x0011467f: xchg eax, ebp ; retn 0x463B ;  (1 found)
0x00119e73: xchg eax, ebp ; retn 0x5489 ;  (1 found)
0x000f7c5a: xchg eax, ebp ; retn 0x7C8B ;  (1 found)
0x000d653e: xchg eax, ebp ; retn 0x8488 ;  (1 found)
0x00035c22: xchg eax, ebp ; retn 0xB60F ;  (1 found)
0x0007646d: xchg eax, ebp ; retn 0xB60F ;  (1 found)
0x000a4c64: xchg eax, ebp ; retn 0xD029 ;  (1 found)
0x00114e49: xchg eax, ebp ; retn 0xD089 ;  (1 found)
0x00114f29: xchg eax, ebp ; retn 0xD089 ;  (1 found)
0x000a8156: xchg eax, ebp ; retn 0xD138 ;  (1 found)
0x000a5d62: xchg eax, ebp ; retn 0xD589 ;  (1 found)
0x00027927: xchg eax, ebp ; retn 0xD789 ;  (1 found)
0x000d7e7f: xchg eax, ebp ; retn 0xE083 ;  (1 found)
0x0009933a: xchg eax, ebp ; retn 0xF883 ;  (1 found)
0x00114e7a: xchg eax, ebp ; rol byte [ebx-0x49F0E33C], 0xFFFFFFC0 ; ret  ;  (1 found)
0x00169e60: xchg eax, ebp ; xor ecx, esi ; jmp dword [eax+eax*2+0x01] ;  (1 found)
0x0010997b: xchg eax, ebx ; call eax ;  (1 found)
0x00167979: xchg eax, ebx ; cld  ; call eax ;  (1 found)
0x00166344: xchg eax, ebx ; fdivr st0, st4 ; call ebx ;  (1 found)
0x00166354: xchg eax, ebx ; frndint  ; call ebx ;  (1 found)
0x00019a2c: xchg eax, ebx ; mov al, byte [0x89000036] ; retn 0xC589 ;  (1 found)
0x00027943: xchg eax, ebx ; retn 0xD789 ;  (1 found)
0x0016796d: xchg eax, ecx ; cld  ; call dword [eax-0x6E] ;  (1 found)
0x00167969: xchg eax, ecx ; cld  ; jmp dword [eax+0x50FFFC91] ;  (1 found)
0x00094751: xchg eax, ecx ; jmp ecx ;  (1 found)
0x00094837: xchg eax, ecx ; jmp ecx ;  (1 found)
0x00094850: xchg eax, ecx ; jmp ecx ;  (1 found)
0x0009487a: xchg eax, ecx ; jmp ecx ;  (1 found)
0x00178139: xchg eax, edi ; fsubp st6, st0 ; jmp dword [edx] ;  (1 found)
0x000e5468: xchg eax, edi ; retn 0xD689 ;  (1 found)
0x000e5538: xchg eax, edi ; retn 0xD689 ;  (1 found)
0x000e5568: xchg eax, edi ; retn 0xD689 ;  (1 found)
0x0002795f: xchg eax, edi ; retn 0xD789 ;  (1 found)
0x000b984b: xchg eax, edi ; ror byte [edi], 0xFFFFFF92 ; retn 0xD028 ;  (1 found)
0x00166e78: xchg eax, edx ; adc ch, bh ; jmp dword [edx] ;  (1 found)
0x00168441: xchg eax, edx ; in al, dx ; jmp eax ;  (1 found)
0x0015912e: xchg eax, edx ; inc edx ; jmp dword [edx-0x71] ;  (1 found)
0x000b984e: xchg eax, edx ; retn 0xD028 ;  (1 found)
0x00036f3f: xchg eax, edx ; retn 0xD789 ;  (1 found)
0x00039d6f: xchg eax, edx ; retn 0xD789 ;  (1 found)
0x000e546d: xchg eax, edx ; retn 0xF189 ;  (1 found)
0x000e553d: xchg eax, edx ; retn 0xF189 ;  (1 found)
0x000e556d: xchg eax, edx ; retn 0xF189 ;  (1 found)
0x00168469: xchg eax, esi ; in al, dx ; call eax ;  (1 found)
0x00127275: xchg eax, esp ; lea eax, dword [ebp-0x28] ; call dword [esi+0x00000198] ;  (1 found)
0x00119449: xchg eax, esp ; ret  ;  (1 found)
0x0011975f: xchg eax, esp ; ret  ;  (1 found)
0x000e6d62: xchg eax, esp ; retn 0x000B ;  (1 found)
0x000d4869: xchg eax, esp ; retn 0x003D ;  (1 found)
0x000a8c36: xchg eax, esp ; retn 0x2B3C ;  (1 found)
0x000a8d5d: xchg eax, esp ; retn 0x2B3C ;  (1 found)
0x00017f25: xchg eax, esp ; retn 0x348D ;  (1 found)
0x0006527a: xchg eax, esp ; retn 0x548D ;  (1 found)
0x000c8520: xchg eax, esp ; retn 0x5589 ;  (1 found)
0x000c8220: xchg eax, esp ; retn 0x8D89 ;  (1 found)
0x000c8d7c: xchg eax, esp ; retn 0xA5E9 ;  (1 found)
0x00019548: xchg eax, esp ; retn 0xC031 ;  (1 found)
0x00049766: xchg eax, esp ; retn 0xC183 ;  (1 found)
0x00054e42: xchg eax, esp ; retn 0xD089 ;  (1 found)
0x0010556d: xchg eax, esp ; retn 0xD285 ;  (1 found)
0x00105d3d: xchg eax, esp ; retn 0xD285 ;  (1 found)
0x00107021: xchg eax, esp ; retn 0xD285 ;  (1 found)
0x00024f4f: xchg ebx, ecx ; mov eax, 0x00000006 ; call dword [0x00000010] ;  (1 found)
0x0002576e: xchg ebx, ecx ; mov eax, 0x00000006 ; call dword [0x00000010] ;  (1 found)
0x00025866: xchg ebx, ecx ; mov eax, 0x00000006 ; call dword [0x00000010] ;  (1 found)
0x0002946b: xchg ebx, ecx ; mov eax, 0x00000006 ; call dword [0x00000010] ;  (1 found)
0x000b9c5f: xchg ebx, ecx ; mov eax, 0x00000006 ; call dword [0x00000010] ;  (1 found)
0x000b9e4e: xchg ebx, ecx ; mov eax, 0x00000006 ; call dword [0x00000010] ;  (1 found)
0x000e8429: xchg ebx, ecx ; mov eax, 0x00000006 ; call dword [0x00000010] ;  (1 found)
0x00125a6a: xchg ebx, ecx ; mov eax, 0x00000006 ; call dword [0x00000010] ;  (1 found)
0x000a8448: xchg ebx, ecx ; mov eax, 0x0000000D ; call dword [0x00000010] ;  (1 found)
0x000b912f: xchg ebx, ecx ; mov eax, 0x000000D5 ; call dword [0x00000010] ;  (1 found)
0x000e9574: xchg ebx, edx ; mov eax, 0x0000010F ; call dword [0x00000010] ;  (1 found)
0x000e6039: xchg edi, ebx ; mov eax, 0x00000036 ; call dword [0x00000010] ;  (1 found)
0x000e606d: xchg edi, ebx ; mov eax, 0x00000036 ; call dword [0x00000010] ;  (1 found)
0x000e6321: xchg edi, ebx ; mov eax, 0x00000036 ; call dword [0x00000010] ;  (1 found)
0x000e635c: xchg edi, ebx ; mov eax, 0x00000036 ; call dword [0x00000010] ;  (1 found)
0x000b7c64: xchg edi, ebx ; mov eax, 0x00000072 ; call dword [0x00000010] ;  (1 found)
0x000e6d70: xchg edi, ebx ; mov eax, 0x00000091 ; call dword [0x00000010] ;  (1 found)
0x000e6e30: xchg edi, ebx ; mov eax, 0x00000092 ; call dword [0x00000010] ;  (1 found)
0x000e6e72: xchg edi, ebx ; mov eax, 0x00000092 ; call dword [0x00000010] ;  (1 found)
0x000e9841: xchg edi, ebx ; mov eax, 0x000000C1 ; call dword [0x00000010] ;  (1 found)
0x000b955c: xchg edi, ebx ; mov eax, 0x000000D2 ; call dword [0x00000010] ;  (1 found)
0x000e7b60: xchg edi, ebx ; mov eax, 0x000000D2 ; call dword [0x00000010] ;  (1 found)
0x000b9461: xchg edi, ebx ; mov eax, 0x000000D3 ; call dword [0x00000010] ;  (1 found)
0x000c5b34: xchg edi, ebx ; mov eax, 0x000000DB ; call dword [0x00000010] ;  (1 found)
0x000c572b: xchg edi, ebx ; mov eax, 0x000000F2 ; call dword [0x00000010] ;  (1 found)
0x000e9755: xchg edi, ebx ; mov eax, 0x0000012B ; call dword [0x00000010] ;  (1 found)
0x00055569: xchg edi, ebx ; mov eax, 0x0000012E ; call dword [0x00000010] ;  (1 found)
0x0016632d: xlatb  ; cld  ; call dword [ebx-0x3C000329] ;  (1 found)
0x00166329: xlatb  ; cld  ; jmp dword [ebx-0x29] ;  (1 found)
0x00166338: xlatb  ; cld  ; jmp dword [ebx] ;  (1 found)
0x00166339: xlatb  ; cld  ; jmp dword [ebx] ;  (1 found)
0x00188571: xlatb  ; jmp dword [ecx] ;  (1 found)
0x00177a76: xlatb  ; out dx, al ; jmp dword [edx] ;  (1 found)
0x00178726: xlatb  ; out dx, al ; jmp dword [edx] ;  (1 found)
0x0009567e: xlatb  ; ret  ;  (1 found)
0x0009575d: xlatb  ; ret  ;  (1 found)
0x00095b74: xlatb  ; ret  ;  (1 found)
0x00095c5d: xlatb  ; ret  ;  (1 found)
0x00147c5f: xlatb  ; ret  ;  (1 found)
0x0014817d: xlatb  ; ret  ;  (1 found)
0x0014892d: xlatb  ; ret  ;  (1 found)
0x00149e52: xlatb  ; ret  ;  (1 found)
0x00095669: xlatb  ; retn 0xC085 ;  (1 found)
0x00095749: xlatb  ; retn 0xC085 ;  (1 found)
0x00095776: xlatb  ; retn 0xC085 ;  (1 found)
0x00095b5f: xlatb  ; retn 0xC085 ;  (1 found)
0x00095c47: xlatb  ; retn 0xC085 ;  (1 found)
0x00147c47: xlatb  ; retn 0xC085 ;  (1 found)
0x00148168: xlatb  ; retn 0xC085 ;  (1 found)
0x000c774a: xlatb  ; retn 0xFFFB ;  (1 found)
0x00178361: xor ah, bl ; cli  ; jmp dword [edx] ;  (1 found)
0x0016626c: xor ah, dl ; cld  ; jmp dword [eax-0x2C] ;  (1 found)
0x00168a38: xor al, 0x01 ; out dx, al ; jmp dword [edi+ecx*8+0x00] ;  (1 found)
0x00169268: xor al, 0x1D ; call dword [eax] ;  (1 found)
0x000c5d2d: xor al, 0x24 ; add esp, 0x08 ; ret  ;  (1 found)
0x00114133: xor al, 0x24 ; call dword [eax+0x04] ;  (1 found)
0x00114148: xor al, 0x24 ; call dword [eax+0x04] ;  (1 found)
0x0011693f: xor al, 0x24 ; call dword [eax+0x10] ;  (1 found)
0x00044774: xor al, 0x24 ; call dword [eax+0x1C] ;  (1 found)
0x00056a60: xor al, 0x24 ; call dword [eax+0x1C] ;  (1 found)
0x00059265: xor al, 0x24 ; call dword [eax+0x1C] ;  (1 found)
0x00065270: xor al, 0x24 ; call dword [eax+0x1C] ;  (1 found)
0x0006606c: xor al, 0x24 ; call dword [eax+0x1C] ;  (1 found)
0x00066a3f: xor al, 0x24 ; call dword [eax+0x24] ;  (1 found)
0x00066e77: xor al, 0x24 ; call dword [eax+0x2C] ;  (1 found)
0x00114163: xor al, 0x24 ; call dword [eax] ;  (1 found)
0x00114177: xor al, 0x24 ; call dword [eax] ;  (1 found)
0x00074f71: xor al, 0x24 ; call dword [edx] ;  (1 found)
0x00048e78: xor al, 0x24 ; call eax ;  (1 found)
0x00116958: xor al, 0x24 ; call eax ;  (1 found)
0x00044121: xor al, 0x24 ; mov dword [ebp-0x0000057C], edx ; call dword [eax+0x1C] ;  (1 found)
0x00045f42: xor al, 0x24 ; mov dword [ebp-0x0000057C], edx ; call dword [eax+0x1C] ;  (1 found)
0x00046040: xor al, 0x24 ; mov dword [ebp-0x0000057C], edx ; call dword [eax+0x1C] ;  (1 found)
0x0006704a: xor al, 0x24 ; mov dword [esp+0x04], edx ; call dword [eax+0x2C] ;  (1 found)
0x000c804e: xor al, 0x24 ; mov dword [esp+0x08], ecx ; call dword [ebp-0x78] ;  (1 found)
0x000c8445: xor al, 0x24 ; mov dword [esp+0x08], ecx ; call dword [ebp-0x78] ;  (1 found)
0x00169f50: xor al, 0x3B ; int1  ; call eax ;  (1 found)
0x00167540: xor al, 0x4B ; std  ; jmp esp ;  (1 found)
0x00167558: xor al, 0x4C ; std  ; jmp esp ;  (1 found)
0x00126e38: xor al, 0x5B ; pop esi ; ret  ;  (1 found)
0x00126e65: xor al, 0x5B ; pop esi ; ret  ;  (1 found)
0x00169560: xor al, 0x5C ; call dword [eax+0x15] ;  (1 found)
0x00186f29: xor al, 0x72 ; jmp dword [edx] ;  (1 found)
0x00168358: xor al, 0x73 ; in al, dx ; call dword [eax] ;  (1 found)
0x00169730: xor al, 0x78 ; jmp dword [eax+0x1F] ;  (1 found)
0x000d5043: xor al, 0x83 ; retn 0x8B01 ;  (1 found)
0x00127675: xor al, 0x89 ; add al, 0x24 ; call dword [esp+0x38] ;  (1 found)
0x0012774d: xor al, 0x89 ; add al, 0x24 ; call dword [esp+0x38] ;  (1 found)
0x00127772: xor al, 0x89 ; add al, 0x24 ; call dword [esp+0x38] ;  (1 found)
0x0006866f: xor al, 0x89 ; retn 0xFAC1 ;  (1 found)
0x0006973f: xor al, 0x89 ; retn 0xFAC1 ;  (1 found)
0x00076c29: xor al, 0x89 ; xor ch, cl ; retn 0xFFFE ;  (1 found)
0x00109979: xor al, 0x8D ; xchg eax, ebx ; call eax ;  (1 found)
0x00167c51: xor al, 0xEB ; jmp dword [eax+0x7E] ;  (1 found)
0x00187b31: xor al, 0xF3 ; call dword [esi] ;  (1 found)
0x00194466: xor al, 0xF6 ; jmp dword [edx] ;  (1 found)
0x00194526: xor al, 0xF6 ; jmp dword [edx] ;  (1 found)
0x00194556: xor al, 0xF6 ; jmp dword [edx] ;  (1 found)
0x000e5a6c: xor al, 0xF6 ; retn 0x7420 ;  (1 found)
0x00195225: xor al, 0xF7 ; call dword [eax] ;  (1 found)
0x00195255: xor al, 0xF7 ; call dword [eax] ;  (1 found)
0x0019542d: xor al, 0xF7 ; call dword [eax] ;  (1 found)
0x00166c58: xor al, 0xFE ; cld  ; call esp ;  (1 found)
0x000e9938: xor al, ch ; xor eax, 0x81000404 ; ret  ;  (1 found)
0x00198961: xor bh, al ; call dword [eax] ;  (1 found)
0x00198c35: xor bh, al ; jmp dword [eax+eax+0x00] ;  (1 found)
0x00167371: xor bh, ch ; call dword [eax+0x33] ;  (1 found)
0x00175e20: xor bh, ch ; out dx, al ; call dword [eax+eax+0x00] ;  (1 found)
0x00195045: xor bh, dh ; call dword [eax] ;  (1 found)
0x00179a30: xor byte [eax+0x58CC0000], ch ; out dx, eax ; jmp dword [ebx+0x00000000] ;  (1 found)
0x0003567b: xor byte [ebx+0x01642444], cl ; retn 0x448B ;  (1 found)
0x000e5a66: xor byte [ebx+0x4E894050], cl ; xor al, 0xF6 ; retn 0x7420 ;  (1 found)
0x000b5560: xor byte [ebx+0x5E], bl ; pop edi ; ret  ;  (1 found)
0x000a6f72: xor byte [ebx-0x6A16CF39], al ; idiv bh ; call dword [eax+0x0026748D] ;  (1 found)
0x0019544d: xor byte [ecx-0x0A], al ; jmp dword [edx] ;  (1 found)
0x00104f6b: xor byte [ecx-0x76F7DBBC], cl ; adc al, 0x24 ; call dword [ebx+0x00002EC8] ;  (1 found)
0x00095875: xor byte [ecx], al ; retn 0x267C ;  (1 found)
0x00199130: xor byte [edi+0x3EBC0002], bl ; clc  ; jmp dword [eax] ;  (1 found)
0x00198c30: xor byte [edx+0x32EC0002], bl ; clc  ; jmp dword [eax+eax+0x00] ;  (1 found)
0x00095c5a: xor byte [esi+0x0F], ah ; xlatb  ; ret  ;  (1 found)
0x00175120: xor ch, bh ; in eax, dx ; jmp dword [eax+0x01] ;  (1 found)
0x0017496d: xor ch, ch ; call dword [ebx+0x01] ;  (1 found)
0x00076c2b: xor ch, cl ; retn 0xFFFE ;  (1 found)
0x00188f51: xor dh, ah ; jmp dword [esi] ;  (1 found)
0x0019535d: xor dh, bh ; call ebx ;  (1 found)
0x00138139: xor dl, 0xFFFFFFA2 ; cld  ; jmp dword [esi-0x70] ;  (1 found)
0x0002726c: xor dword [eax-0x01], 0x0365FFFF ; add eax, 0x00000000 ; ret  ;  (1 found)
0x000d715d: xor dword [eax-0x01], 0xFFFFFFFF ; jmp dword [ebp-0x75] ;  (1 found)
0x00075657: xor dword [ecx], edi ; retn 0xCC75 ;  (1 found)
0x00194520: xor eax, 0x0D1CFFF6 ; mov seg?, word [esi+esi*8] ; jmp dword [edx] ;  (1 found)
0x0016622c: xor eax, 0x65FFFCD4 ; aam 0xFC ; call dword [ebp-0x3A00032C] ;  (1 found)
0x00166240: xor eax, 0x65FFFCD5 ; aad 0xFC ; jmp dword [ebp-0x1A00032B] ;  (1 found)
0x0012403a: xor eax, 0x8100005D ; ret  ;  (1 found)
0x000e993a: xor eax, 0x81000404 ; ret  ;  (1 found)
0x00139f3a: xor eax, 0x81FFFEFE ; ret  ;  (1 found)
0x00107158: xor eax, 0xFFFFFFB8 ; jmp dword [ebp+0x33] ;  (1 found)
0x0001952b: xor eax, dword [0x00000018] ; call eax ;  (1 found)
0x0001952c: xor eax, dword [0x00000018] ; call eax ;  (1 found)
0x00024032: xor eax, dword [0x00000018] ; call eax ;  (1 found)
0x00024033: xor eax, dword [0x00000018] ; call eax ;  (1 found)
0x00024178: xor eax, dword [0x00000018] ; call eax ;  (1 found)
0x00024179: xor eax, dword [0x00000018] ; call eax ;  (1 found)
0x00024224: xor eax, dword [0x00000018] ; call eax ;  (1 found)
0x00024225: xor eax, dword [0x00000018] ; call eax ;  (1 found)
0x0002657f: xor eax, dword [0x00000018] ; call eax ;  (1 found)
0x00026752: xor eax, dword [0x00000018] ; call eax ;  (1 found)
0x00026753: xor eax, dword [0x00000018] ; call eax ;  (1 found)
0x0002682a: xor eax, dword [0x00000018] ; call eax ;  (1 found)
0x0002682b: xor eax, dword [0x00000018] ; call eax ;  (1 found)
0x0002684a: xor eax, dword [0x00000018] ; call eax ;  (1 found)
0x0002684b: xor eax, dword [0x00000018] ; call eax ;  (1 found)
0x00027437: xor eax, dword [0x00000018] ; call eax ;  (1 found)
0x00027438: xor eax, dword [0x00000018] ; call eax ;  (1 found)
0x0002747a: xor eax, dword [0x00000018] ; call eax ;  (1 found)
0x0002747b: xor eax, dword [0x00000018] ; call eax ;  (1 found)
0x00027f59: xor eax, dword [0x00000018] ; call eax ;  (1 found)
0x00027f5a: xor eax, dword [0x00000018] ; call eax ;  (1 found)
0x0002894a: xor eax, dword [0x00000018] ; call eax ;  (1 found)
0x0002894b: xor eax, dword [0x00000018] ; call eax ;  (1 found)
0x00028973: xor eax, dword [0x00000018] ; call eax ;  (1 found)
0x00028974: xor eax, dword [0x00000018] ; call eax ;  (1 found)
0x00028b7c: xor eax, dword [0x00000018] ; call eax ;  (1 found)
0x00028b7d: xor eax, dword [0x00000018] ; call eax ;  (1 found)
0x00028d35: xor eax, dword [0x00000018] ; call eax ;  (1 found)
0x00028d36: xor eax, dword [0x00000018] ; call eax ;  (1 found)
0x00028f62: xor eax, dword [0x00000018] ; call eax ;  (1 found)
0x00028f63: xor eax, dword [0x00000018] ; call eax ;  (1 found)
0x00029124: xor eax, dword [0x00000018] ; call eax ;  (1 found)
0x00029125: xor eax, dword [0x00000018] ; call eax ;  (1 found)
0x0002677b: xor eax, dword [0x00000018] ; mov dword [esp], edx ; call eax ;  (1 found)
0x0002677c: xor eax, dword [0x00000018] ; mov dword [esp], edx ; call eax ;  (1 found)
0x00047928: xor eax, dword [0x00000018] ; mov dword [esp], edx ; call eax ;  (1 found)
0x00047929: xor eax, dword [0x00000018] ; mov dword [esp], edx ; call eax ;  (1 found)
0x00066235: xor eax, dword [0x00000018] ; mov dword [esp], edx ; call eax ;  (1 found)
0x00066236: xor eax, dword [0x00000018] ; mov dword [esp], edx ; call eax ;  (1 found)
0x000b8554: xor eax, dword [0x00000018] ; mov dword [esp], edx ; call eax ;  (1 found)
0x000b8555: xor eax, dword [0x00000018] ; mov dword [esp], edx ; call eax ;  (1 found)
0x000b9164: xor eax, dword [0x00000018] ; mov dword [esp], edx ; call eax ;  (1 found)
0x000b9165: xor eax, dword [0x00000018] ; mov dword [esp], edx ; call eax ;  (1 found)
0x000e7a4a: xor eax, dword [0x00000018] ; mov dword [esp], edx ; call eax ;  (1 found)
0x000e7a4b: xor eax, dword [0x00000018] ; mov dword [esp], edx ; call eax ;  (1 found)
0x00055670: xor eax, eax ; add esp, 0x0C ; ret  ;  (1 found)
0x0007733d: xor eax, eax ; add esp, 0x0C ; ret  ;  (1 found)
0x0012793c: xor eax, eax ; add esp, 0x0C ; ret  ;  (1 found)
0x00127e5c: xor eax, eax ; add esp, 0x0C ; ret  ;  (1 found)
0x00129a78: xor eax, eax ; add esp, 0x0C ; ret  ;  (1 found)
0x000e5028: xor eax, eax ; pop ebx ; ret  ;  (1 found)
0x000e5e7e: xor eax, eax ; pop ebx ; ret  ;  (1 found)
0x000f7240: xor eax, eax ; pop ebx ; ret  ;  (1 found)
0x00095520: xor eax, eax ; pop edi ; ret  ;  (1 found)
0x00095556: xor eax, eax ; pop edi ; ret  ;  (1 found)
0x00147642: xor eax, eax ; pop edi ; ret  ;  (1 found)
0x00147970: xor eax, eax ; pop edi ; ret  ;  (1 found)
0x00147a56: xor eax, eax ; pop edi ; ret  ;  (1 found)
0x00147a69: xor eax, eax ; pop edi ; ret  ;  (1 found)
0x00147a79: xor eax, eax ; pop edi ; ret  ;  (1 found)
0x00147e28: xor eax, eax ; pop edi ; ret  ;  (1 found)
0x00148820: xor eax, eax ; pop edi ; ret  ;  (1 found)
0x00149c60: xor eax, eax ; pop edi ; ret  ;  (1 found)
0x00074040: xor eax, eax ; ret  ;  (1 found)
0x00098428: xor eax, eax ; ret  ;  (1 found)
0x00098441: xor eax, eax ; ret  ;  (1 found)
0x000a7230: xor eax, eax ; ret  ;  (1 found)
0x000b9b40: xor eax, eax ; ret  ;  (1 found)
0x000d8a2f: xor eax, eax ; ret  ;  (1 found)
0x000d8a4d: xor eax, eax ; ret  ;  (1 found)
0x000d8a5b: xor eax, eax ; ret  ;  (1 found)
0x000d935a: xor eax, eax ; ret  ;  (1 found)
0x000d9370: xor eax, eax ; ret  ;  (1 found)
0x000e4d7b: xor eax, eax ; ret  ;  (1 found)
0x000e4d7c: xor eax, eax ; ret  ;  (1 found)
0x000f8b52: xor eax, eax ; ret  ;  (1 found)
0x00145457: xor eax, eax ; ret  ;  (1 found)
0x00148740: xor eax, eax ; ret  ;  (1 found)
0x00148770: xor eax, eax ; ret  ;  (1 found)
0x00148b40: xor eax, eax ; ret  ;  (1 found)
0x00149270: xor eax, eax ; ret  ;  (1 found)
0x00167c29: xor ebp, ebx ; jmp dword [ebx+edi*2+0x33C40000] ;  (1 found)
0x00167c31: xor ebp, ebx ; jmp esp ;  (1 found)
0x00167365: xor ebp, edi ; jmp dword [eax+0x30FFFD31] ;  (1 found)
0x000d564b: xor ebx, ebp ; ret  ;  (1 found)
0x00169e69: xor ecx, esi ; call dword [eax+eax*2+0x31AD0001] ;  (1 found)
0x00169e29: xor ecx, esi ; call dword [edi+edi] ;  (1 found)
0x00169e49: xor ecx, esi ; call esp ;  (1 found)
0x00169e61: xor ecx, esi ; jmp dword [eax+eax*2+0x01] ;  (1 found)
0x00169e41: xor ecx, esi ; jmp dword [edi+edi+0x316D0001] ;  (1 found)
0x00169e21: xor ecx, esi ; jmp esp ;  (1 found)
0x00167375: xor edi, ebp ; jmp eax ;  (1 found)
0x00195339: xor edi, esi ; jmp dword [ebx+0x00000000] ;  (1 found)
0x00165e38: xor edx, ecx ; cld  ; jmp dword [ebx-0x2F] ;  (1 found)
0x00166328: xor edx, edi ; cld  ; jmp dword [ebx-0x29] ;  (1 found)
0x00175742: xor esi, ebp ; jmp dword [edx] ;  (1 found)
0x00175772: xor esi, ebp ; jmp dword [edx] ;  (1 found)
0x00148f2c: xor esi, esi ; retn 0x0F01 ;  (1 found)
